
/home/rituraj/CiPHER/esp_2022_lagori_codes/r1_7seg_disp/build/r1_7seg.elf:     file format elf32-littlearm

Sections:
Idx Name          Size      VMA       LMA       File off  Algn
  0 .boot2        00000100  10000000  10000000  00001000  2**0
                  CONTENTS, ALLOC, LOAD, READONLY, CODE
  1 .text         00007780  10000100  10000100  00001100  2**3
                  CONTENTS, ALLOC, LOAD, READONLY, CODE
  2 .rodata       0000061c  10007880  10007880  00008880  2**3
                  CONTENTS, ALLOC, LOAD, READONLY, DATA
  3 .binary_info  00000020  10007e9c  10007e9c  00008e9c  2**2
                  CONTENTS, ALLOC, LOAD, DATA
  4 .ram_vector_table 000000c0  20000000  20000000  0000ae98  2**2
                  CONTENTS
  5 .data         00001dd8  200000c0  10007ebc  000090c0  2**4
                  CONTENTS, ALLOC, LOAD, READONLY, CODE
  6 .uninitialized_data 00000000  20001e98  20001e98  0000af58  2**0
                  CONTENTS
  7 .scratch_x    00000000  20040000  20040000  0000af58  2**0
                  CONTENTS
  8 .scratch_y    00000000  20041000  20041000  0000af58  2**0
                  CONTENTS
  9 .bss          00000da0  20001e98  20001e98  0000ae98  2**3
                  ALLOC
 10 .heap         00000800  20002c38  20002c38  0000af58  2**2
                  CONTENTS, READONLY
 11 .stack_dummy  00000800  20041000  20041000  0000b760  2**5
                  CONTENTS, READONLY
 12 .ARM.attributes 00000028  00000000  00000000  0000bf60  2**0
                  CONTENTS, READONLY
 13 .comment      00000033  00000000  00000000  0000bf88  2**0
                  CONTENTS, READONLY
 14 .debug_line   00000b87  00000000  00000000  0000bfbb  2**0
                  CONTENTS, READONLY, DEBUGGING, OCTETS
 15 .debug_info   0000301a  00000000  00000000  0000cb42  2**0
                  CONTENTS, READONLY, DEBUGGING, OCTETS
 16 .debug_abbrev 00000a7d  00000000  00000000  0000fb5c  2**0
                  CONTENTS, READONLY, DEBUGGING, OCTETS
 17 .debug_aranges 00000110  00000000  00000000  000105e0  2**3
                  CONTENTS, READONLY, DEBUGGING, OCTETS
 18 .debug_str    00000b29  00000000  00000000  000106f0  2**0
                  CONTENTS, READONLY, DEBUGGING, OCTETS
 19 .debug_loc    00000e22  00000000  00000000  00011219  2**0
                  CONTENTS, READONLY, DEBUGGING, OCTETS
 20 .debug_frame  00000158  00000000  00000000  0001203c  2**2
                  CONTENTS, READONLY, DEBUGGING, OCTETS
 21 .debug_ranges 00000080  00000000  00000000  00012194  2**0
                  CONTENTS, READONLY, DEBUGGING, OCTETS

/home/rituraj/CiPHER/esp_2022_lagori_codes/r1_7seg_disp/build/r1_7seg.elf:     file format elf32-littlearm


Disassembly of section .boot2:

10000000 <__boot2_start__>:
10000000:	4b32b500 	.word	0x4b32b500
10000004:	60582021 	.word	0x60582021
10000008:	21026898 	.word	0x21026898
1000000c:	60984388 	.word	0x60984388
10000010:	611860d8 	.word	0x611860d8
10000014:	4b2e6158 	.word	0x4b2e6158
10000018:	60992100 	.word	0x60992100
1000001c:	61592102 	.word	0x61592102
10000020:	22f02101 	.word	0x22f02101
10000024:	492b5099 	.word	0x492b5099
10000028:	21016019 	.word	0x21016019
1000002c:	20356099 	.word	0x20356099
10000030:	f844f000 	.word	0xf844f000
10000034:	42902202 	.word	0x42902202
10000038:	2106d014 	.word	0x2106d014
1000003c:	f0006619 	.word	0xf0006619
10000040:	6e19f834 	.word	0x6e19f834
10000044:	66192101 	.word	0x66192101
10000048:	66182000 	.word	0x66182000
1000004c:	f000661a 	.word	0xf000661a
10000050:	6e19f82c 	.word	0x6e19f82c
10000054:	6e196e19 	.word	0x6e196e19
10000058:	f0002005 	.word	0xf0002005
1000005c:	2101f82f 	.word	0x2101f82f
10000060:	d1f94208 	.word	0xd1f94208
10000064:	60992100 	.word	0x60992100
10000068:	6019491b 	.word	0x6019491b
1000006c:	60592100 	.word	0x60592100
10000070:	481b491a 	.word	0x481b491a
10000074:	21016001 	.word	0x21016001
10000078:	21eb6099 	.word	0x21eb6099
1000007c:	21a06619 	.word	0x21a06619
10000080:	f0006619 	.word	0xf0006619
10000084:	2100f812 	.word	0x2100f812
10000088:	49166099 	.word	0x49166099
1000008c:	60014814 	.word	0x60014814
10000090:	60992101 	.word	0x60992101
10000094:	2800bc01 	.word	0x2800bc01
10000098:	4700d000 	.word	0x4700d000
1000009c:	49134812 	.word	0x49134812
100000a0:	c8036008 	.word	0xc8036008
100000a4:	8808f380 	.word	0x8808f380
100000a8:	b5034708 	.word	0xb5034708
100000ac:	20046a99 	.word	0x20046a99
100000b0:	d0fb4201 	.word	0xd0fb4201
100000b4:	42012001 	.word	0x42012001
100000b8:	bd03d1f8 	.word	0xbd03d1f8
100000bc:	6618b502 	.word	0x6618b502
100000c0:	f7ff6618 	.word	0xf7ff6618
100000c4:	6e18fff2 	.word	0x6e18fff2
100000c8:	bd026e18 	.word	0xbd026e18
100000cc:	40020000 	.word	0x40020000
100000d0:	18000000 	.word	0x18000000
100000d4:	00070000 	.word	0x00070000
100000d8:	005f0300 	.word	0x005f0300
100000dc:	00002221 	.word	0x00002221
100000e0:	180000f4 	.word	0x180000f4
100000e4:	a0002022 	.word	0xa0002022
100000e8:	10000100 	.word	0x10000100
100000ec:	e000ed08 	.word	0xe000ed08
	...
100000fc:	7a4eb274 	.word	0x7a4eb274

Disassembly of section .text:

10000100 <__VECTOR_TABLE>:
10000100:	20042000 	.word	0x20042000
10000104:	100001f7 	.word	0x100001f7
10000108:	100001c3 	.word	0x100001c3
1000010c:	100001c5 	.word	0x100001c5
10000110:	100001c1 	.word	0x100001c1
10000114:	100001c1 	.word	0x100001c1
10000118:	100001c1 	.word	0x100001c1
1000011c:	100001c1 	.word	0x100001c1
10000120:	100001c1 	.word	0x100001c1
10000124:	100001c1 	.word	0x100001c1
10000128:	100001c1 	.word	0x100001c1
1000012c:	100001c7 	.word	0x100001c7
10000130:	100001c1 	.word	0x100001c1
10000134:	100001c1 	.word	0x100001c1
10000138:	100001c9 	.word	0x100001c9
1000013c:	100001cb 	.word	0x100001cb
10000140:	100001cd 	.word	0x100001cd
10000144:	100001cd 	.word	0x100001cd
10000148:	100001cd 	.word	0x100001cd
1000014c:	100001cd 	.word	0x100001cd
10000150:	100001cd 	.word	0x100001cd
10000154:	100001cd 	.word	0x100001cd
10000158:	100001cd 	.word	0x100001cd
1000015c:	100001cd 	.word	0x100001cd
10000160:	100001cd 	.word	0x100001cd
10000164:	100001cd 	.word	0x100001cd
10000168:	100001cd 	.word	0x100001cd
1000016c:	100001cd 	.word	0x100001cd
10000170:	100001cd 	.word	0x100001cd
10000174:	100001cd 	.word	0x100001cd
10000178:	100001cd 	.word	0x100001cd
1000017c:	100001cd 	.word	0x100001cd
10000180:	100001cd 	.word	0x100001cd
10000184:	100001cd 	.word	0x100001cd
10000188:	100001cd 	.word	0x100001cd
1000018c:	100001cd 	.word	0x100001cd
10000190:	100001cd 	.word	0x100001cd
10000194:	100001cd 	.word	0x100001cd
10000198:	100001cd 	.word	0x100001cd
1000019c:	100001cd 	.word	0x100001cd
100001a0:	100001cd 	.word	0x100001cd
100001a4:	100001cd 	.word	0x100001cd
100001a8:	100001cd 	.word	0x100001cd
100001ac:	100001cd 	.word	0x100001cd
100001b0:	100001cd 	.word	0x100001cd
100001b4:	100001cd 	.word	0x100001cd
100001b8:	100001cd 	.word	0x100001cd
100001bc:	100001cd 	.word	0x100001cd

100001c0 <isr_invalid>:
100001c0:	be00      	bkpt	0x0000

100001c2 <isr_nmi>:
100001c2:	be00      	bkpt	0x0000

100001c4 <isr_hardfault>:
100001c4:	be00      	bkpt	0x0000

100001c6 <isr_svcall>:
100001c6:	be00      	bkpt	0x0000

100001c8 <isr_pendsv>:
100001c8:	be00      	bkpt	0x0000

100001ca <isr_systick>:
100001ca:	be00      	bkpt	0x0000

100001cc <__unhandled_user_irq>:
100001cc:	f000 f84b 	bl	10000266 <__get_current_exception>
100001d0:	3810      	subs	r0, #16

100001d2 <unhandled_user_irq_num_in_r0>:
100001d2:	be00      	bkpt	0x0000

100001d4 <binary_info_header>:
100001d4:	7188ebf2 	.word	0x7188ebf2
100001d8:	10007e9c 	.word	0x10007e9c
100001dc:	10007ebc 	.word	0x10007ebc
100001e0:	10000234 	.word	0x10000234
100001e4:	e71aa390 	.word	0xe71aa390

100001e8 <_entry_point>:
100001e8:	2000      	movs	r0, #0
100001ea:	4921      	ldr	r1, [pc, #132]	; (10000270 <__get_current_exception+0xa>)
100001ec:	6008      	str	r0, [r1, #0]
100001ee:	c806      	ldmia	r0!, {r1, r2}
100001f0:	f381 8808 	msr	MSP, r1
100001f4:	4710      	bx	r2

100001f6 <_reset_handler>:
100001f6:	481f      	ldr	r0, [pc, #124]	; (10000274 <__get_current_exception+0xe>)
100001f8:	6800      	ldr	r0, [r0, #0]
100001fa:	2800      	cmp	r0, #0
100001fc:	d12f      	bne.n	1000025e <hold_non_core0_in_bootrom>
100001fe:	a40d      	add	r4, pc, #52	; (adr r4, 10000234 <data_cpy_table>)
10000200:	cc0e      	ldmia	r4!, {r1, r2, r3}
10000202:	2900      	cmp	r1, #0
10000204:	d002      	beq.n	1000020c <_reset_handler+0x16>
10000206:	f000 f812 	bl	1000022e <data_cpy>
1000020a:	e7f9      	b.n	10000200 <_reset_handler+0xa>
1000020c:	491a      	ldr	r1, [pc, #104]	; (10000278 <__get_current_exception+0x12>)
1000020e:	4a1b      	ldr	r2, [pc, #108]	; (1000027c <__get_current_exception+0x16>)
10000210:	2000      	movs	r0, #0
10000212:	e000      	b.n	10000216 <bss_fill_test>

10000214 <bss_fill_loop>:
10000214:	c101      	stmia	r1!, {r0}

10000216 <bss_fill_test>:
10000216:	4291      	cmp	r1, r2
10000218:	d1fc      	bne.n	10000214 <bss_fill_loop>

1000021a <platform_entry>:
1000021a:	4919      	ldr	r1, [pc, #100]	; (10000280 <__get_current_exception+0x1a>)
1000021c:	4788      	blx	r1
1000021e:	4919      	ldr	r1, [pc, #100]	; (10000284 <__get_current_exception+0x1e>)
10000220:	4788      	blx	r1
10000222:	4919      	ldr	r1, [pc, #100]	; (10000288 <__get_current_exception+0x22>)
10000224:	4788      	blx	r1
10000226:	be00      	bkpt	0x0000
10000228:	e7fd      	b.n	10000226 <platform_entry+0xc>

1000022a <data_cpy_loop>:
1000022a:	c901      	ldmia	r1!, {r0}
1000022c:	c201      	stmia	r2!, {r0}

1000022e <data_cpy>:
1000022e:	429a      	cmp	r2, r3
10000230:	d3fb      	bcc.n	1000022a <data_cpy_loop>
10000232:	4770      	bx	lr

10000234 <data_cpy_table>:
10000234:	10007ebc 	.word	0x10007ebc
10000238:	200000c0 	.word	0x200000c0
1000023c:	20001e98 	.word	0x20001e98
10000240:	10009c94 	.word	0x10009c94
10000244:	20040000 	.word	0x20040000
10000248:	20040000 	.word	0x20040000
1000024c:	10009c94 	.word	0x10009c94
10000250:	20041000 	.word	0x20041000
10000254:	20041000 	.word	0x20041000
10000258:	00000000 	.word	0x00000000
1000025c:	4770      	bx	lr

1000025e <hold_non_core0_in_bootrom>:
1000025e:	480b      	ldr	r0, [pc, #44]	; (1000028c <__get_current_exception+0x26>)
10000260:	f003 fcb0 	bl	10003bc4 <rom_func_lookup>
10000264:	4700      	bx	r0

10000266 <__get_current_exception>:
10000266:	f3ef 8005 	mrs	r0, IPSR
1000026a:	b2c0      	uxtb	r0, r0
1000026c:	4770      	bx	lr
1000026e:	0000      	.short	0x0000
10000270:	e000ed08 	.word	0xe000ed08
10000274:	d0000000 	.word	0xd0000000
10000278:	20001e98 	.word	0x20001e98
1000027c:	20002c38 	.word	0x20002c38
10000280:	10002085 	.word	0x10002085
10000284:	10000811 	.word	0x10000811
10000288:	10002175 	.word	0x10002175
1000028c:	00005657 	.word	0x00005657

10000290 <__bi_50>:
10000290:	50520006 5360b3ab 10007b60              ..RP..`S`{..

1000029c <__bi_38>:
1000029c:	50520006 02031c86 10007b70              ..RP....p{..

100002a8 <__bi_30>:
100002a8:	50520006 9da22254 10007b78              ..RPT"..x{..

100002b4 <__bi_22>:
100002b4:	50520005 68f465de 10009c94              ..RP.e.h....

100002c0 <_init>:
100002c0:	b5f8      	push	{r3, r4, r5, r6, r7, lr}
100002c2:	46c0      	nop			; (mov r8, r8)

100002c4 <deregister_tm_clones>:
100002c4:	4804      	ldr	r0, [pc, #16]	; (100002d8 <deregister_tm_clones+0x14>)
100002c6:	4b05      	ldr	r3, [pc, #20]	; (100002dc <deregister_tm_clones+0x18>)
100002c8:	b510      	push	{r4, lr}
100002ca:	4283      	cmp	r3, r0
100002cc:	d003      	beq.n	100002d6 <deregister_tm_clones+0x12>
100002ce:	4b04      	ldr	r3, [pc, #16]	; (100002e0 <deregister_tm_clones+0x1c>)
100002d0:	2b00      	cmp	r3, #0
100002d2:	d000      	beq.n	100002d6 <deregister_tm_clones+0x12>
100002d4:	4798      	blx	r3
100002d6:	bd10      	pop	{r4, pc}
100002d8:	20001e98 	.word	0x20001e98
100002dc:	20001e98 	.word	0x20001e98
100002e0:	00000000 	.word	0x00000000

100002e4 <register_tm_clones>:
100002e4:	4806      	ldr	r0, [pc, #24]	; (10000300 <register_tm_clones+0x1c>)
100002e6:	4907      	ldr	r1, [pc, #28]	; (10000304 <register_tm_clones+0x20>)
100002e8:	1a09      	subs	r1, r1, r0
100002ea:	108b      	asrs	r3, r1, #2
100002ec:	0fc9      	lsrs	r1, r1, #31
100002ee:	18c9      	adds	r1, r1, r3
100002f0:	b510      	push	{r4, lr}
100002f2:	1049      	asrs	r1, r1, #1
100002f4:	d003      	beq.n	100002fe <register_tm_clones+0x1a>
100002f6:	4b04      	ldr	r3, [pc, #16]	; (10000308 <register_tm_clones+0x24>)
100002f8:	2b00      	cmp	r3, #0
100002fa:	d000      	beq.n	100002fe <register_tm_clones+0x1a>
100002fc:	4798      	blx	r3
100002fe:	bd10      	pop	{r4, pc}
10000300:	20001e98 	.word	0x20001e98
10000304:	20001e98 	.word	0x20001e98
10000308:	00000000 	.word	0x00000000

1000030c <__do_global_dtors_aux>:
1000030c:	b510      	push	{r4, lr}
1000030e:	4c07      	ldr	r4, [pc, #28]	; (1000032c <__do_global_dtors_aux+0x20>)
10000310:	7823      	ldrb	r3, [r4, #0]
10000312:	2b00      	cmp	r3, #0
10000314:	d109      	bne.n	1000032a <__do_global_dtors_aux+0x1e>
10000316:	f7ff ffd5 	bl	100002c4 <deregister_tm_clones>
1000031a:	4b05      	ldr	r3, [pc, #20]	; (10000330 <__do_global_dtors_aux+0x24>)
1000031c:	2b00      	cmp	r3, #0
1000031e:	d002      	beq.n	10000326 <__do_global_dtors_aux+0x1a>
10000320:	4804      	ldr	r0, [pc, #16]	; (10000334 <__do_global_dtors_aux+0x28>)
10000322:	e000      	b.n	10000326 <__do_global_dtors_aux+0x1a>
10000324:	bf00      	nop
10000326:	2301      	movs	r3, #1
10000328:	7023      	strb	r3, [r4, #0]
1000032a:	bd10      	pop	{r4, pc}
1000032c:	200021a0 	.word	0x200021a0
10000330:	00000000 	.word	0x00000000
10000334:	10007880 	.word	0x10007880

10000338 <frame_dummy>:
10000338:	4b05      	ldr	r3, [pc, #20]	; (10000350 <frame_dummy+0x18>)
1000033a:	b510      	push	{r4, lr}
1000033c:	2b00      	cmp	r3, #0
1000033e:	d003      	beq.n	10000348 <frame_dummy+0x10>
10000340:	4904      	ldr	r1, [pc, #16]	; (10000354 <frame_dummy+0x1c>)
10000342:	4805      	ldr	r0, [pc, #20]	; (10000358 <frame_dummy+0x20>)
10000344:	e000      	b.n	10000348 <frame_dummy+0x10>
10000346:	bf00      	nop
10000348:	f7ff ffcc 	bl	100002e4 <register_tm_clones>
1000034c:	bd10      	pop	{r4, pc}
1000034e:	46c0      	nop			; (mov r8, r8)
10000350:	00000000 	.word	0x00000000
10000354:	200021a4 	.word	0x200021a4
10000358:	10007880 	.word	0x10007880

1000035c <encoder_callback>:
1000035c:	23d0      	movs	r3, #208	; 0xd0
1000035e:	2280      	movs	r2, #128	; 0x80
10000360:	b5f0      	push	{r4, r5, r6, r7, lr}
10000362:	46c6      	mov	lr, r8
10000364:	061b      	lsls	r3, r3, #24
10000366:	0492      	lsls	r2, r2, #18
10000368:	b500      	push	{lr}
1000036a:	2701      	movs	r7, #1
1000036c:	615a      	str	r2, [r3, #20]
1000036e:	685a      	ldr	r2, [r3, #4]
10000370:	685d      	ldr	r5, [r3, #4]
10000372:	685b      	ldr	r3, [r3, #4]
10000374:	4c2e      	ldr	r4, [pc, #184]	; (10000430 <encoder_callback+0xd4>)
10000376:	4698      	mov	r8, r3
10000378:	b08a      	sub	sp, #40	; 0x28
1000037a:	0c12      	lsrs	r2, r2, #16
1000037c:	0021      	movs	r1, r4
1000037e:	403a      	ands	r2, r7
10000380:	0006      	movs	r6, r0
10000382:	a801      	add	r0, sp, #4
10000384:	f003 fbea 	bl	10003b5c <__wrap_sprintf>
10000388:	0c6a      	lsrs	r2, r5, #17
1000038a:	0021      	movs	r1, r4
1000038c:	403a      	ands	r2, r7
1000038e:	a804      	add	r0, sp, #16
10000390:	f003 fbe4 	bl	10003b5c <__wrap_sprintf>
10000394:	4643      	mov	r3, r8
10000396:	0c9a      	lsrs	r2, r3, #18
10000398:	403a      	ands	r2, r7
1000039a:	0021      	movs	r1, r4
1000039c:	a807      	add	r0, sp, #28
1000039e:	f003 fbdd 	bl	10003b5c <__wrap_sprintf>
100003a2:	a801      	add	r0, sp, #4
100003a4:	f007 f920 	bl	100075e8 <strlen>
100003a8:	ab01      	add	r3, sp, #4
100003aa:	469c      	mov	ip, r3
100003ac:	a904      	add	r1, sp, #16
100003ae:	4460      	add	r0, ip
100003b0:	f007 f8ec 	bl	1000758c <stpcpy>
100003b4:	a907      	add	r1, sp, #28
100003b6:	f007 f90f 	bl	100075d8 <strcpy>
100003ba:	a801      	add	r0, sp, #4
100003bc:	f007 f8da 	bl	10007574 <atoi>
100003c0:	2303      	movs	r3, #3
100003c2:	4018      	ands	r0, r3
100003c4:	2e10      	cmp	r6, #16
100003c6:	d01b      	beq.n	10000400 <encoder_callback+0xa4>
100003c8:	2e11      	cmp	r6, #17
100003ca:	d106      	bne.n	100003da <encoder_callback+0x7e>
100003cc:	4b19      	ldr	r3, [pc, #100]	; (10000434 <encoder_callback+0xd8>)
100003ce:	781a      	ldrb	r2, [r3, #0]
100003d0:	2a00      	cmp	r2, #0
100003d2:	d106      	bne.n	100003e2 <encoder_callback+0x86>
100003d4:	2801      	cmp	r0, #1
100003d6:	d104      	bne.n	100003e2 <encoder_callback+0x86>
100003d8:	7018      	strb	r0, [r3, #0]
100003da:	b00a      	add	sp, #40	; 0x28
100003dc:	bc80      	pop	{r7}
100003de:	46b8      	mov	r8, r7
100003e0:	bdf0      	pop	{r4, r5, r6, r7, pc}
100003e2:	4a15      	ldr	r2, [pc, #84]	; (10000438 <encoder_callback+0xdc>)
100003e4:	7811      	ldrb	r1, [r2, #0]
100003e6:	2900      	cmp	r1, #0
100003e8:	d0f7      	beq.n	100003da <encoder_callback+0x7e>
100003ea:	2800      	cmp	r0, #0
100003ec:	d1f5      	bne.n	100003da <encoder_callback+0x7e>
100003ee:	7010      	strb	r0, [r2, #0]
100003f0:	4a12      	ldr	r2, [pc, #72]	; (1000043c <encoder_callback+0xe0>)
100003f2:	7018      	strb	r0, [r3, #0]
100003f4:	6813      	ldr	r3, [r2, #0]
100003f6:	3b01      	subs	r3, #1
100003f8:	6013      	str	r3, [r2, #0]
100003fa:	4a11      	ldr	r2, [pc, #68]	; (10000440 <encoder_callback+0xe4>)
100003fc:	6013      	str	r3, [r2, #0]
100003fe:	e7ec      	b.n	100003da <encoder_callback+0x7e>
10000400:	4b0d      	ldr	r3, [pc, #52]	; (10000438 <encoder_callback+0xdc>)
10000402:	781a      	ldrb	r2, [r3, #0]
10000404:	2a00      	cmp	r2, #0
10000406:	d103      	bne.n	10000410 <encoder_callback+0xb4>
10000408:	2802      	cmp	r0, #2
1000040a:	d101      	bne.n	10000410 <encoder_callback+0xb4>
1000040c:	701f      	strb	r7, [r3, #0]
1000040e:	e7e4      	b.n	100003da <encoder_callback+0x7e>
10000410:	4a08      	ldr	r2, [pc, #32]	; (10000434 <encoder_callback+0xd8>)
10000412:	7811      	ldrb	r1, [r2, #0]
10000414:	2900      	cmp	r1, #0
10000416:	d0e0      	beq.n	100003da <encoder_callback+0x7e>
10000418:	2800      	cmp	r0, #0
1000041a:	d1de      	bne.n	100003da <encoder_callback+0x7e>
1000041c:	7010      	strb	r0, [r2, #0]
1000041e:	4a07      	ldr	r2, [pc, #28]	; (1000043c <encoder_callback+0xe0>)
10000420:	7018      	strb	r0, [r3, #0]
10000422:	6813      	ldr	r3, [r2, #0]
10000424:	3301      	adds	r3, #1
10000426:	6013      	str	r3, [r2, #0]
10000428:	4a05      	ldr	r2, [pc, #20]	; (10000440 <encoder_callback+0xe4>)
1000042a:	6013      	str	r3, [r2, #0]
1000042c:	e7d5      	b.n	100003da <encoder_callback+0x7e>
1000042e:	46c0      	nop			; (mov r8, r8)
10000430:	10007880 	.word	0x10007880
10000434:	20002c31 	.word	0x20002c31
10000438:	20002c33 	.word	0x20002c33
1000043c:	20002758 	.word	0x20002758
10000440:	20002620 	.word	0x20002620

10000444 <setup>:
10000444:	b5f8      	push	{r3, r4, r5, r6, r7, lr}
10000446:	46de      	mov	lr, fp
10000448:	4657      	mov	r7, sl
1000044a:	464e      	mov	r6, r9
1000044c:	4645      	mov	r5, r8
1000044e:	2000      	movs	r0, #0
10000450:	b5e0      	push	{r5, r6, r7, lr}
10000452:	24d0      	movs	r4, #208	; 0xd0
10000454:	f000 fbca 	bl	10000bec <gpio_init>
10000458:	2301      	movs	r3, #1
1000045a:	0624      	lsls	r4, r4, #24
1000045c:	2001      	movs	r0, #1
1000045e:	6263      	str	r3, [r4, #36]	; 0x24
10000460:	469b      	mov	fp, r3
10000462:	f000 fbc3 	bl	10000bec <gpio_init>
10000466:	2302      	movs	r3, #2
10000468:	2002      	movs	r0, #2
1000046a:	6263      	str	r3, [r4, #36]	; 0x24
1000046c:	469a      	mov	sl, r3
1000046e:	f000 fbbd 	bl	10000bec <gpio_init>
10000472:	2304      	movs	r3, #4
10000474:	2003      	movs	r0, #3
10000476:	6263      	str	r3, [r4, #36]	; 0x24
10000478:	4699      	mov	r9, r3
1000047a:	f000 fbb7 	bl	10000bec <gpio_init>
1000047e:	2308      	movs	r3, #8
10000480:	2004      	movs	r0, #4
10000482:	6263      	str	r3, [r4, #36]	; 0x24
10000484:	4698      	mov	r8, r3
10000486:	f000 fbb1 	bl	10000bec <gpio_init>
1000048a:	2310      	movs	r3, #16
1000048c:	2005      	movs	r0, #5
1000048e:	6263      	str	r3, [r4, #36]	; 0x24
10000490:	f000 fbac 	bl	10000bec <gpio_init>
10000494:	2220      	movs	r2, #32
10000496:	2006      	movs	r0, #6
10000498:	6262      	str	r2, [r4, #36]	; 0x24
1000049a:	f000 fba7 	bl	10000bec <gpio_init>
1000049e:	2140      	movs	r1, #64	; 0x40
100004a0:	2007      	movs	r0, #7
100004a2:	6261      	str	r1, [r4, #36]	; 0x24
100004a4:	f000 fba2 	bl	10000bec <gpio_init>
100004a8:	2580      	movs	r5, #128	; 0x80
100004aa:	2080      	movs	r0, #128	; 0x80
100004ac:	2680      	movs	r6, #128	; 0x80
100004ae:	2780      	movs	r7, #128	; 0x80
100004b0:	6260      	str	r0, [r4, #36]	; 0x24
100004b2:	006d      	lsls	r5, r5, #1
100004b4:	3878      	subs	r0, #120	; 0x78
100004b6:	f000 fb99 	bl	10000bec <gpio_init>
100004ba:	00b6      	lsls	r6, r6, #2
100004bc:	2009      	movs	r0, #9
100004be:	6265      	str	r5, [r4, #36]	; 0x24
100004c0:	f000 fb94 	bl	10000bec <gpio_init>
100004c4:	00ff      	lsls	r7, r7, #3
100004c6:	200a      	movs	r0, #10
100004c8:	6266      	str	r6, [r4, #36]	; 0x24
100004ca:	f000 fb8f 	bl	10000bec <gpio_init>
100004ce:	6267      	str	r7, [r4, #36]	; 0x24
100004d0:	2780      	movs	r7, #128	; 0x80
100004d2:	2680      	movs	r6, #128	; 0x80
100004d4:	2580      	movs	r5, #128	; 0x80
100004d6:	013f      	lsls	r7, r7, #4
100004d8:	200b      	movs	r0, #11
100004da:	f000 fb87 	bl	10000bec <gpio_init>
100004de:	0176      	lsls	r6, r6, #5
100004e0:	6267      	str	r7, [r4, #36]	; 0x24
100004e2:	200c      	movs	r0, #12
100004e4:	f000 fb82 	bl	10000bec <gpio_init>
100004e8:	01ad      	lsls	r5, r5, #6
100004ea:	6266      	str	r6, [r4, #36]	; 0x24
100004ec:	200d      	movs	r0, #13
100004ee:	f000 fb7d 	bl	10000bec <gpio_init>
100004f2:	6265      	str	r5, [r4, #36]	; 0x24
100004f4:	2012      	movs	r0, #18
100004f6:	f000 fb79 	bl	10000bec <gpio_init>
100004fa:	2380      	movs	r3, #128	; 0x80
100004fc:	02db      	lsls	r3, r3, #11
100004fe:	2200      	movs	r2, #0
10000500:	2100      	movs	r1, #0
10000502:	62a3      	str	r3, [r4, #40]	; 0x28
10000504:	2012      	movs	r0, #18
10000506:	f000 fad7 	bl	10000ab8 <gpio_set_pulls>
1000050a:	2010      	movs	r0, #16
1000050c:	f000 fb6e 	bl	10000bec <gpio_init>
10000510:	2380      	movs	r3, #128	; 0x80
10000512:	025b      	lsls	r3, r3, #9
10000514:	2200      	movs	r2, #0
10000516:	2100      	movs	r1, #0
10000518:	62a3      	str	r3, [r4, #40]	; 0x28
1000051a:	2010      	movs	r0, #16
1000051c:	f000 facc 	bl	10000ab8 <gpio_set_pulls>
10000520:	2011      	movs	r0, #17
10000522:	f000 fb63 	bl	10000bec <gpio_init>
10000526:	2380      	movs	r3, #128	; 0x80
10000528:	029b      	lsls	r3, r3, #10
1000052a:	2200      	movs	r2, #0
1000052c:	2100      	movs	r1, #0
1000052e:	62a3      	str	r3, [r4, #40]	; 0x28
10000530:	2011      	movs	r0, #17
10000532:	f000 fac1 	bl	10000ab8 <gpio_set_pulls>
10000536:	200f      	movs	r0, #15
10000538:	f000 fb58 	bl	10000bec <gpio_init>
1000053c:	2380      	movs	r3, #128	; 0x80
1000053e:	021b      	lsls	r3, r3, #8
10000540:	2200      	movs	r2, #0
10000542:	2101      	movs	r1, #1
10000544:	200f      	movs	r0, #15
10000546:	62a3      	str	r3, [r4, #40]	; 0x28
10000548:	f000 fab6 	bl	10000ab8 <gpio_set_pulls>
1000054c:	465a      	mov	r2, fp
1000054e:	6162      	str	r2, [r4, #20]
10000550:	4652      	mov	r2, sl
10000552:	6162      	str	r2, [r4, #20]
10000554:	464a      	mov	r2, r9
10000556:	2310      	movs	r3, #16
10000558:	6162      	str	r2, [r4, #20]
1000055a:	4642      	mov	r2, r8
1000055c:	2140      	movs	r1, #64	; 0x40
1000055e:	2080      	movs	r0, #128	; 0x80
10000560:	6162      	str	r2, [r4, #20]
10000562:	6163      	str	r3, [r4, #20]
10000564:	3218      	adds	r2, #24
10000566:	33f0      	adds	r3, #240	; 0xf0
10000568:	6162      	str	r2, [r4, #20]
1000056a:	6161      	str	r1, [r4, #20]
1000056c:	6160      	str	r0, [r4, #20]
1000056e:	6163      	str	r3, [r4, #20]
10000570:	3301      	adds	r3, #1
10000572:	33ff      	adds	r3, #255	; 0xff
10000574:	6163      	str	r3, [r4, #20]
10000576:	2380      	movs	r3, #128	; 0x80
10000578:	00db      	lsls	r3, r3, #3
1000057a:	6163      	str	r3, [r4, #20]
1000057c:	6167      	str	r7, [r4, #20]
1000057e:	6166      	str	r6, [r4, #20]
10000580:	6165      	str	r5, [r4, #20]
10000582:	bcf0      	pop	{r4, r5, r6, r7}
10000584:	46bb      	mov	fp, r7
10000586:	46b2      	mov	sl, r6
10000588:	46a9      	mov	r9, r5
1000058a:	46a0      	mov	r8, r4
1000058c:	bdf8      	pop	{r3, r4, r5, r6, r7, pc}
1000058e:	46c0      	nop			; (mov r8, r8)

10000590 <num_write>:
10000590:	00c3      	lsls	r3, r0, #3
10000592:	4a9e      	ldr	r2, [pc, #632]	; (1000080c <num_write+0x27c>)
10000594:	1a19      	subs	r1, r3, r0
10000596:	00c9      	lsls	r1, r1, #3
10000598:	5851      	ldr	r1, [r2, r1]
1000059a:	b510      	push	{r4, lr}
1000059c:	2900      	cmp	r1, #0
1000059e:	d000      	beq.n	100005a2 <num_write+0x12>
100005a0:	e099      	b.n	100006d6 <num_write+0x146>
100005a2:	21d0      	movs	r1, #208	; 0xd0
100005a4:	2401      	movs	r4, #1
100005a6:	0609      	lsls	r1, r1, #24
100005a8:	618c      	str	r4, [r1, #24]
100005aa:	1a19      	subs	r1, r3, r0
100005ac:	00c9      	lsls	r1, r1, #3
100005ae:	1851      	adds	r1, r2, r1
100005b0:	6849      	ldr	r1, [r1, #4]
100005b2:	2900      	cmp	r1, #0
100005b4:	d000      	beq.n	100005b8 <num_write+0x28>
100005b6:	e099      	b.n	100006ec <num_write+0x15c>
100005b8:	21d0      	movs	r1, #208	; 0xd0
100005ba:	2402      	movs	r4, #2
100005bc:	0609      	lsls	r1, r1, #24
100005be:	618c      	str	r4, [r1, #24]
100005c0:	1a19      	subs	r1, r3, r0
100005c2:	00c9      	lsls	r1, r1, #3
100005c4:	1851      	adds	r1, r2, r1
100005c6:	6889      	ldr	r1, [r1, #8]
100005c8:	2900      	cmp	r1, #0
100005ca:	d000      	beq.n	100005ce <num_write+0x3e>
100005cc:	e099      	b.n	10000702 <num_write+0x172>
100005ce:	21d0      	movs	r1, #208	; 0xd0
100005d0:	2404      	movs	r4, #4
100005d2:	0609      	lsls	r1, r1, #24
100005d4:	618c      	str	r4, [r1, #24]
100005d6:	1a19      	subs	r1, r3, r0
100005d8:	00c9      	lsls	r1, r1, #3
100005da:	1851      	adds	r1, r2, r1
100005dc:	68c9      	ldr	r1, [r1, #12]
100005de:	2900      	cmp	r1, #0
100005e0:	d000      	beq.n	100005e4 <num_write+0x54>
100005e2:	e099      	b.n	10000718 <num_write+0x188>
100005e4:	21d0      	movs	r1, #208	; 0xd0
100005e6:	2408      	movs	r4, #8
100005e8:	0609      	lsls	r1, r1, #24
100005ea:	618c      	str	r4, [r1, #24]
100005ec:	1a19      	subs	r1, r3, r0
100005ee:	00c9      	lsls	r1, r1, #3
100005f0:	1851      	adds	r1, r2, r1
100005f2:	6909      	ldr	r1, [r1, #16]
100005f4:	2900      	cmp	r1, #0
100005f6:	d000      	beq.n	100005fa <num_write+0x6a>
100005f8:	e099      	b.n	1000072e <num_write+0x19e>
100005fa:	21d0      	movs	r1, #208	; 0xd0
100005fc:	2410      	movs	r4, #16
100005fe:	0609      	lsls	r1, r1, #24
10000600:	618c      	str	r4, [r1, #24]
10000602:	1a19      	subs	r1, r3, r0
10000604:	00c9      	lsls	r1, r1, #3
10000606:	1851      	adds	r1, r2, r1
10000608:	6949      	ldr	r1, [r1, #20]
1000060a:	2900      	cmp	r1, #0
1000060c:	d000      	beq.n	10000610 <num_write+0x80>
1000060e:	e099      	b.n	10000744 <num_write+0x1b4>
10000610:	21d0      	movs	r1, #208	; 0xd0
10000612:	2420      	movs	r4, #32
10000614:	0609      	lsls	r1, r1, #24
10000616:	618c      	str	r4, [r1, #24]
10000618:	1a19      	subs	r1, r3, r0
1000061a:	00c9      	lsls	r1, r1, #3
1000061c:	1851      	adds	r1, r2, r1
1000061e:	6989      	ldr	r1, [r1, #24]
10000620:	2900      	cmp	r1, #0
10000622:	d100      	bne.n	10000626 <num_write+0x96>
10000624:	e099      	b.n	1000075a <num_write+0x1ca>
10000626:	21d0      	movs	r1, #208	; 0xd0
10000628:	2440      	movs	r4, #64	; 0x40
1000062a:	0609      	lsls	r1, r1, #24
1000062c:	614c      	str	r4, [r1, #20]
1000062e:	1a19      	subs	r1, r3, r0
10000630:	00c9      	lsls	r1, r1, #3
10000632:	1851      	adds	r1, r2, r1
10000634:	69c9      	ldr	r1, [r1, #28]
10000636:	2900      	cmp	r1, #0
10000638:	d000      	beq.n	1000063c <num_write+0xac>
1000063a:	e099      	b.n	10000770 <num_write+0x1e0>
1000063c:	21d0      	movs	r1, #208	; 0xd0
1000063e:	2480      	movs	r4, #128	; 0x80
10000640:	0609      	lsls	r1, r1, #24
10000642:	618c      	str	r4, [r1, #24]
10000644:	1a19      	subs	r1, r3, r0
10000646:	00c9      	lsls	r1, r1, #3
10000648:	1851      	adds	r1, r2, r1
1000064a:	6a09      	ldr	r1, [r1, #32]
1000064c:	2900      	cmp	r1, #0
1000064e:	d000      	beq.n	10000652 <num_write+0xc2>
10000650:	e099      	b.n	10000786 <num_write+0x1f6>
10000652:	21d0      	movs	r1, #208	; 0xd0
10000654:	2480      	movs	r4, #128	; 0x80
10000656:	0609      	lsls	r1, r1, #24
10000658:	0064      	lsls	r4, r4, #1
1000065a:	618c      	str	r4, [r1, #24]
1000065c:	1a19      	subs	r1, r3, r0
1000065e:	00c9      	lsls	r1, r1, #3
10000660:	1851      	adds	r1, r2, r1
10000662:	6a49      	ldr	r1, [r1, #36]	; 0x24
10000664:	2900      	cmp	r1, #0
10000666:	d000      	beq.n	1000066a <num_write+0xda>
10000668:	e099      	b.n	1000079e <num_write+0x20e>
1000066a:	21d0      	movs	r1, #208	; 0xd0
1000066c:	2480      	movs	r4, #128	; 0x80
1000066e:	0609      	lsls	r1, r1, #24
10000670:	00a4      	lsls	r4, r4, #2
10000672:	618c      	str	r4, [r1, #24]
10000674:	1a19      	subs	r1, r3, r0
10000676:	00c9      	lsls	r1, r1, #3
10000678:	1851      	adds	r1, r2, r1
1000067a:	6a89      	ldr	r1, [r1, #40]	; 0x28
1000067c:	2900      	cmp	r1, #0
1000067e:	d000      	beq.n	10000682 <num_write+0xf2>
10000680:	e099      	b.n	100007b6 <num_write+0x226>
10000682:	21d0      	movs	r1, #208	; 0xd0
10000684:	2480      	movs	r4, #128	; 0x80
10000686:	0609      	lsls	r1, r1, #24
10000688:	00e4      	lsls	r4, r4, #3
1000068a:	618c      	str	r4, [r1, #24]
1000068c:	1a19      	subs	r1, r3, r0
1000068e:	00c9      	lsls	r1, r1, #3
10000690:	1851      	adds	r1, r2, r1
10000692:	6ac9      	ldr	r1, [r1, #44]	; 0x2c
10000694:	2900      	cmp	r1, #0
10000696:	d000      	beq.n	1000069a <num_write+0x10a>
10000698:	e099      	b.n	100007ce <num_write+0x23e>
1000069a:	21d0      	movs	r1, #208	; 0xd0
1000069c:	2480      	movs	r4, #128	; 0x80
1000069e:	0609      	lsls	r1, r1, #24
100006a0:	0124      	lsls	r4, r4, #4
100006a2:	618c      	str	r4, [r1, #24]
100006a4:	1a19      	subs	r1, r3, r0
100006a6:	00c9      	lsls	r1, r1, #3
100006a8:	1851      	adds	r1, r2, r1
100006aa:	6b09      	ldr	r1, [r1, #48]	; 0x30
100006ac:	2900      	cmp	r1, #0
100006ae:	d000      	beq.n	100006b2 <num_write+0x122>
100006b0:	e099      	b.n	100007e6 <num_write+0x256>
100006b2:	21d0      	movs	r1, #208	; 0xd0
100006b4:	2480      	movs	r4, #128	; 0x80
100006b6:	1a1b      	subs	r3, r3, r0
100006b8:	00db      	lsls	r3, r3, #3
100006ba:	18d3      	adds	r3, r2, r3
100006bc:	6b5b      	ldr	r3, [r3, #52]	; 0x34
100006be:	0609      	lsls	r1, r1, #24
100006c0:	0164      	lsls	r4, r4, #5
100006c2:	618c      	str	r4, [r1, #24]
100006c4:	2b00      	cmp	r3, #0
100006c6:	d100      	bne.n	100006ca <num_write+0x13a>
100006c8:	e099      	b.n	100007fe <num_write+0x26e>
100006ca:	23d0      	movs	r3, #208	; 0xd0
100006cc:	2280      	movs	r2, #128	; 0x80
100006ce:	061b      	lsls	r3, r3, #24
100006d0:	0192      	lsls	r2, r2, #6
100006d2:	615a      	str	r2, [r3, #20]
100006d4:	bd10      	pop	{r4, pc}
100006d6:	21d0      	movs	r1, #208	; 0xd0
100006d8:	2401      	movs	r4, #1
100006da:	0609      	lsls	r1, r1, #24
100006dc:	614c      	str	r4, [r1, #20]
100006de:	1a19      	subs	r1, r3, r0
100006e0:	00c9      	lsls	r1, r1, #3
100006e2:	1851      	adds	r1, r2, r1
100006e4:	6849      	ldr	r1, [r1, #4]
100006e6:	2900      	cmp	r1, #0
100006e8:	d100      	bne.n	100006ec <num_write+0x15c>
100006ea:	e765      	b.n	100005b8 <num_write+0x28>
100006ec:	21d0      	movs	r1, #208	; 0xd0
100006ee:	2402      	movs	r4, #2
100006f0:	0609      	lsls	r1, r1, #24
100006f2:	614c      	str	r4, [r1, #20]
100006f4:	1a19      	subs	r1, r3, r0
100006f6:	00c9      	lsls	r1, r1, #3
100006f8:	1851      	adds	r1, r2, r1
100006fa:	6889      	ldr	r1, [r1, #8]
100006fc:	2900      	cmp	r1, #0
100006fe:	d100      	bne.n	10000702 <num_write+0x172>
10000700:	e765      	b.n	100005ce <num_write+0x3e>
10000702:	21d0      	movs	r1, #208	; 0xd0
10000704:	2404      	movs	r4, #4
10000706:	0609      	lsls	r1, r1, #24
10000708:	614c      	str	r4, [r1, #20]
1000070a:	1a19      	subs	r1, r3, r0
1000070c:	00c9      	lsls	r1, r1, #3
1000070e:	1851      	adds	r1, r2, r1
10000710:	68c9      	ldr	r1, [r1, #12]
10000712:	2900      	cmp	r1, #0
10000714:	d100      	bne.n	10000718 <num_write+0x188>
10000716:	e765      	b.n	100005e4 <num_write+0x54>
10000718:	21d0      	movs	r1, #208	; 0xd0
1000071a:	2408      	movs	r4, #8
1000071c:	0609      	lsls	r1, r1, #24
1000071e:	614c      	str	r4, [r1, #20]
10000720:	1a19      	subs	r1, r3, r0
10000722:	00c9      	lsls	r1, r1, #3
10000724:	1851      	adds	r1, r2, r1
10000726:	6909      	ldr	r1, [r1, #16]
10000728:	2900      	cmp	r1, #0
1000072a:	d100      	bne.n	1000072e <num_write+0x19e>
1000072c:	e765      	b.n	100005fa <num_write+0x6a>
1000072e:	21d0      	movs	r1, #208	; 0xd0
10000730:	2410      	movs	r4, #16
10000732:	0609      	lsls	r1, r1, #24
10000734:	614c      	str	r4, [r1, #20]
10000736:	1a19      	subs	r1, r3, r0
10000738:	00c9      	lsls	r1, r1, #3
1000073a:	1851      	adds	r1, r2, r1
1000073c:	6949      	ldr	r1, [r1, #20]
1000073e:	2900      	cmp	r1, #0
10000740:	d100      	bne.n	10000744 <num_write+0x1b4>
10000742:	e765      	b.n	10000610 <num_write+0x80>
10000744:	21d0      	movs	r1, #208	; 0xd0
10000746:	2420      	movs	r4, #32
10000748:	0609      	lsls	r1, r1, #24
1000074a:	614c      	str	r4, [r1, #20]
1000074c:	1a19      	subs	r1, r3, r0
1000074e:	00c9      	lsls	r1, r1, #3
10000750:	1851      	adds	r1, r2, r1
10000752:	6989      	ldr	r1, [r1, #24]
10000754:	2900      	cmp	r1, #0
10000756:	d000      	beq.n	1000075a <num_write+0x1ca>
10000758:	e765      	b.n	10000626 <num_write+0x96>
1000075a:	21d0      	movs	r1, #208	; 0xd0
1000075c:	2440      	movs	r4, #64	; 0x40
1000075e:	0609      	lsls	r1, r1, #24
10000760:	618c      	str	r4, [r1, #24]
10000762:	1a19      	subs	r1, r3, r0
10000764:	00c9      	lsls	r1, r1, #3
10000766:	1851      	adds	r1, r2, r1
10000768:	69c9      	ldr	r1, [r1, #28]
1000076a:	2900      	cmp	r1, #0
1000076c:	d100      	bne.n	10000770 <num_write+0x1e0>
1000076e:	e765      	b.n	1000063c <num_write+0xac>
10000770:	21d0      	movs	r1, #208	; 0xd0
10000772:	2480      	movs	r4, #128	; 0x80
10000774:	0609      	lsls	r1, r1, #24
10000776:	614c      	str	r4, [r1, #20]
10000778:	1a19      	subs	r1, r3, r0
1000077a:	00c9      	lsls	r1, r1, #3
1000077c:	1851      	adds	r1, r2, r1
1000077e:	6a09      	ldr	r1, [r1, #32]
10000780:	2900      	cmp	r1, #0
10000782:	d100      	bne.n	10000786 <num_write+0x1f6>
10000784:	e765      	b.n	10000652 <num_write+0xc2>
10000786:	21d0      	movs	r1, #208	; 0xd0
10000788:	2480      	movs	r4, #128	; 0x80
1000078a:	0609      	lsls	r1, r1, #24
1000078c:	0064      	lsls	r4, r4, #1
1000078e:	614c      	str	r4, [r1, #20]
10000790:	1a19      	subs	r1, r3, r0
10000792:	00c9      	lsls	r1, r1, #3
10000794:	1851      	adds	r1, r2, r1
10000796:	6a49      	ldr	r1, [r1, #36]	; 0x24
10000798:	2900      	cmp	r1, #0
1000079a:	d100      	bne.n	1000079e <num_write+0x20e>
1000079c:	e765      	b.n	1000066a <num_write+0xda>
1000079e:	21d0      	movs	r1, #208	; 0xd0
100007a0:	2480      	movs	r4, #128	; 0x80
100007a2:	0609      	lsls	r1, r1, #24
100007a4:	00a4      	lsls	r4, r4, #2
100007a6:	614c      	str	r4, [r1, #20]
100007a8:	1a19      	subs	r1, r3, r0
100007aa:	00c9      	lsls	r1, r1, #3
100007ac:	1851      	adds	r1, r2, r1
100007ae:	6a89      	ldr	r1, [r1, #40]	; 0x28
100007b0:	2900      	cmp	r1, #0
100007b2:	d100      	bne.n	100007b6 <num_write+0x226>
100007b4:	e765      	b.n	10000682 <num_write+0xf2>
100007b6:	21d0      	movs	r1, #208	; 0xd0
100007b8:	2480      	movs	r4, #128	; 0x80
100007ba:	0609      	lsls	r1, r1, #24
100007bc:	00e4      	lsls	r4, r4, #3
100007be:	614c      	str	r4, [r1, #20]
100007c0:	1a19      	subs	r1, r3, r0
100007c2:	00c9      	lsls	r1, r1, #3
100007c4:	1851      	adds	r1, r2, r1
100007c6:	6ac9      	ldr	r1, [r1, #44]	; 0x2c
100007c8:	2900      	cmp	r1, #0
100007ca:	d100      	bne.n	100007ce <num_write+0x23e>
100007cc:	e765      	b.n	1000069a <num_write+0x10a>
100007ce:	21d0      	movs	r1, #208	; 0xd0
100007d0:	2480      	movs	r4, #128	; 0x80
100007d2:	0609      	lsls	r1, r1, #24
100007d4:	0124      	lsls	r4, r4, #4
100007d6:	614c      	str	r4, [r1, #20]
100007d8:	1a19      	subs	r1, r3, r0
100007da:	00c9      	lsls	r1, r1, #3
100007dc:	1851      	adds	r1, r2, r1
100007de:	6b09      	ldr	r1, [r1, #48]	; 0x30
100007e0:	2900      	cmp	r1, #0
100007e2:	d100      	bne.n	100007e6 <num_write+0x256>
100007e4:	e765      	b.n	100006b2 <num_write+0x122>
100007e6:	21d0      	movs	r1, #208	; 0xd0
100007e8:	2480      	movs	r4, #128	; 0x80
100007ea:	1a1b      	subs	r3, r3, r0
100007ec:	00db      	lsls	r3, r3, #3
100007ee:	18d3      	adds	r3, r2, r3
100007f0:	6b5b      	ldr	r3, [r3, #52]	; 0x34
100007f2:	0609      	lsls	r1, r1, #24
100007f4:	0164      	lsls	r4, r4, #5
100007f6:	614c      	str	r4, [r1, #20]
100007f8:	2b00      	cmp	r3, #0
100007fa:	d000      	beq.n	100007fe <num_write+0x26e>
100007fc:	e765      	b.n	100006ca <num_write+0x13a>
100007fe:	23d0      	movs	r3, #208	; 0xd0
10000800:	2280      	movs	r2, #128	; 0x80
10000802:	061b      	lsls	r3, r3, #24
10000804:	0192      	lsls	r2, r2, #6
10000806:	619a      	str	r2, [r3, #24]
10000808:	e764      	b.n	100006d4 <num_write+0x144>
1000080a:	46c0      	nop			; (mov r8, r8)
1000080c:	2000038c 	.word	0x2000038c

10000810 <main>:
10000810:	b510      	push	{r4, lr}
10000812:	f004 f9e1 	bl	10004bd8 <stdio_init_all>
10000816:	f7ff fe15 	bl	10000444 <setup>
1000081a:	4b11      	ldr	r3, [pc, #68]	; (10000860 <main+0x50>)
1000081c:	2201      	movs	r2, #1
1000081e:	2104      	movs	r1, #4
10000820:	2012      	movs	r0, #18
10000822:	f000 f98b 	bl	10000b3c <gpio_set_irq_enabled_with_callback>
10000826:	2201      	movs	r2, #1
10000828:	2104      	movs	r1, #4
1000082a:	2010      	movs	r0, #16
1000082c:	f000 f95c 	bl	10000ae8 <gpio_set_irq_enabled>
10000830:	2201      	movs	r2, #1
10000832:	2104      	movs	r1, #4
10000834:	2011      	movs	r0, #17
10000836:	f000 f957 	bl	10000ae8 <gpio_set_irq_enabled>
1000083a:	23d0      	movs	r3, #208	; 0xd0
1000083c:	061b      	lsls	r3, r3, #24
1000083e:	685b      	ldr	r3, [r3, #4]
10000840:	4a08      	ldr	r2, [pc, #32]	; (10000864 <main+0x54>)
10000842:	041b      	lsls	r3, r3, #16
10000844:	0fd9      	lsrs	r1, r3, #31
10000846:	2b00      	cmp	r3, #0
10000848:	db04      	blt.n	10000854 <main+0x44>
1000084a:	4b07      	ldr	r3, [pc, #28]	; (10000868 <main+0x58>)
1000084c:	681b      	ldr	r3, [r3, #0]
1000084e:	6013      	str	r3, [r2, #0]
10000850:	4b06      	ldr	r3, [pc, #24]	; (1000086c <main+0x5c>)
10000852:	6019      	str	r1, [r3, #0]
10000854:	6810      	ldr	r0, [r2, #0]
10000856:	f7ff fe9b 	bl	10000590 <num_write>
1000085a:	2000      	movs	r0, #0
1000085c:	bd10      	pop	{r4, pc}
1000085e:	46c0      	nop			; (mov r8, r8)
10000860:	1000035d 	.word	0x1000035d
10000864:	20002620 	.word	0x20002620
10000868:	20000388 	.word	0x20000388
1000086c:	20002758 	.word	0x20002758

10000870 <gpio_default_irq_handler>:
10000870:	23d0      	movs	r3, #208	; 0xd0
10000872:	061b      	lsls	r3, r3, #24
10000874:	681b      	ldr	r3, [r3, #0]
10000876:	b5f0      	push	{r4, r5, r6, r7, lr}
10000878:	009a      	lsls	r2, r3, #2
1000087a:	4645      	mov	r5, r8
1000087c:	4690      	mov	r8, r2
1000087e:	4641      	mov	r1, r8
10000880:	4a89      	ldr	r2, [pc, #548]	; (10000aa8 <gpio_default_irq_handler+0x238>)
10000882:	46de      	mov	lr, fp
10000884:	5852      	ldr	r2, [r2, r1]
10000886:	4657      	mov	r7, sl
10000888:	4693      	mov	fp, r2
1000088a:	1e5a      	subs	r2, r3, #1
1000088c:	4193      	sbcs	r3, r2
1000088e:	2230      	movs	r2, #48	; 0x30
10000890:	464e      	mov	r6, r9
10000892:	425b      	negs	r3, r3
10000894:	401a      	ands	r2, r3
10000896:	0013      	movs	r3, r2
10000898:	4a84      	ldr	r2, [pc, #528]	; (10000aac <gpio_default_irq_handler+0x23c>)
1000089a:	b5e0      	push	{r5, r6, r7, lr}
1000089c:	4694      	mov	ip, r2
1000089e:	b083      	sub	sp, #12
100008a0:	4463      	add	r3, ip
100008a2:	9301      	str	r3, [sp, #4]
100008a4:	4b82      	ldr	r3, [pc, #520]	; (10000ab0 <gpio_default_irq_handler+0x240>)
100008a6:	2608      	movs	r6, #8
100008a8:	469a      	mov	sl, r3
100008aa:	0035      	movs	r5, r6
100008ac:	3d08      	subs	r5, #8
100008ae:	08ea      	lsrs	r2, r5, #3
100008b0:	0013      	movs	r3, r2
100008b2:	9901      	ldr	r1, [sp, #4]
100008b4:	3308      	adds	r3, #8
100008b6:	009b      	lsls	r3, r3, #2
100008b8:	585c      	ldr	r4, [r3, r1]
100008ba:	2c00      	cmp	r4, #0
100008bc:	d023      	beq.n	10000906 <gpio_default_irq_handler+0x96>
100008be:	465b      	mov	r3, fp
100008c0:	2b00      	cmp	r3, #0
100008c2:	d02a      	beq.n	1000091a <gpio_default_irq_handler+0xaa>
100008c4:	2301      	movs	r3, #1
100008c6:	270f      	movs	r7, #15
100008c8:	4699      	mov	r9, r3
100008ca:	0039      	movs	r1, r7
100008cc:	4021      	ands	r1, r4
100008ce:	4227      	tst	r7, r4
100008d0:	d013      	beq.n	100008fa <gpio_default_irq_handler+0x8a>
100008d2:	464b      	mov	r3, r9
100008d4:	4652      	mov	r2, sl
100008d6:	4640      	mov	r0, r8
100008d8:	40ab      	lsls	r3, r5
100008da:	5812      	ldr	r2, [r2, r0]
100008dc:	421a      	tst	r2, r3
100008de:	d10c      	bne.n	100008fa <gpio_default_irq_handler+0x8a>
100008e0:	2207      	movs	r2, #7
100008e2:	0008      	movs	r0, r1
100008e4:	402a      	ands	r2, r5
100008e6:	0092      	lsls	r2, r2, #2
100008e8:	4090      	lsls	r0, r2
100008ea:	0002      	movs	r2, r0
100008ec:	08eb      	lsrs	r3, r5, #3
100008ee:	4871      	ldr	r0, [pc, #452]	; (10000ab4 <gpio_default_irq_handler+0x244>)
100008f0:	333c      	adds	r3, #60	; 0x3c
100008f2:	009b      	lsls	r3, r3, #2
100008f4:	501a      	str	r2, [r3, r0]
100008f6:	0028      	movs	r0, r5
100008f8:	47d8      	blx	fp
100008fa:	0924      	lsrs	r4, r4, #4
100008fc:	3501      	adds	r5, #1
100008fe:	2c00      	cmp	r4, #0
10000900:	d001      	beq.n	10000906 <gpio_default_irq_handler+0x96>
10000902:	42b5      	cmp	r5, r6
10000904:	d3e1      	bcc.n	100008ca <gpio_default_irq_handler+0x5a>
10000906:	3608      	adds	r6, #8
10000908:	2e28      	cmp	r6, #40	; 0x28
1000090a:	d1ce      	bne.n	100008aa <gpio_default_irq_handler+0x3a>
1000090c:	b003      	add	sp, #12
1000090e:	bcf0      	pop	{r4, r5, r6, r7}
10000910:	46bb      	mov	fp, r7
10000912:	46b2      	mov	sl, r6
10000914:	46a9      	mov	r9, r5
10000916:	46a0      	mov	r8, r4
10000918:	bdf0      	pop	{r4, r5, r6, r7, pc}
1000091a:	230f      	movs	r3, #15
1000091c:	0019      	movs	r1, r3
1000091e:	4021      	ands	r1, r4
10000920:	4223      	tst	r3, r4
10000922:	d007      	beq.n	10000934 <gpio_default_irq_handler+0xc4>
10000924:	4647      	mov	r7, r8
10000926:	3b0e      	subs	r3, #14
10000928:	40ab      	lsls	r3, r5
1000092a:	4861      	ldr	r0, [pc, #388]	; (10000ab0 <gpio_default_irq_handler+0x240>)
1000092c:	59c0      	ldr	r0, [r0, r7]
1000092e:	4218      	tst	r0, r3
10000930:	d100      	bne.n	10000934 <gpio_default_irq_handler+0xc4>
10000932:	e08d      	b.n	10000a50 <gpio_default_irq_handler+0x1e0>
10000934:	0923      	lsrs	r3, r4, #4
10000936:	1ff1      	subs	r1, r6, #7
10000938:	2b00      	cmp	r3, #0
1000093a:	d0e4      	beq.n	10000906 <gpio_default_irq_handler+0x96>
1000093c:	220f      	movs	r2, #15
1000093e:	0010      	movs	r0, r2
10000940:	4018      	ands	r0, r3
10000942:	421a      	tst	r2, r3
10000944:	d00f      	beq.n	10000966 <gpio_default_irq_handler+0xf6>
10000946:	2301      	movs	r3, #1
10000948:	4645      	mov	r5, r8
1000094a:	408b      	lsls	r3, r1
1000094c:	4a58      	ldr	r2, [pc, #352]	; (10000ab0 <gpio_default_irq_handler+0x240>)
1000094e:	5952      	ldr	r2, [r2, r5]
10000950:	421a      	tst	r2, r3
10000952:	d108      	bne.n	10000966 <gpio_default_irq_handler+0xf6>
10000954:	2207      	movs	r2, #7
10000956:	08cb      	lsrs	r3, r1, #3
10000958:	4011      	ands	r1, r2
1000095a:	0089      	lsls	r1, r1, #2
1000095c:	4088      	lsls	r0, r1
1000095e:	4a55      	ldr	r2, [pc, #340]	; (10000ab4 <gpio_default_irq_handler+0x244>)
10000960:	333c      	adds	r3, #60	; 0x3c
10000962:	009b      	lsls	r3, r3, #2
10000964:	5098      	str	r0, [r3, r2]
10000966:	0a23      	lsrs	r3, r4, #8
10000968:	1fb1      	subs	r1, r6, #6
1000096a:	2b00      	cmp	r3, #0
1000096c:	d0cb      	beq.n	10000906 <gpio_default_irq_handler+0x96>
1000096e:	220f      	movs	r2, #15
10000970:	0010      	movs	r0, r2
10000972:	4018      	ands	r0, r3
10000974:	421a      	tst	r2, r3
10000976:	d00f      	beq.n	10000998 <gpio_default_irq_handler+0x128>
10000978:	2301      	movs	r3, #1
1000097a:	4645      	mov	r5, r8
1000097c:	408b      	lsls	r3, r1
1000097e:	4a4c      	ldr	r2, [pc, #304]	; (10000ab0 <gpio_default_irq_handler+0x240>)
10000980:	5952      	ldr	r2, [r2, r5]
10000982:	421a      	tst	r2, r3
10000984:	d108      	bne.n	10000998 <gpio_default_irq_handler+0x128>
10000986:	2207      	movs	r2, #7
10000988:	08cb      	lsrs	r3, r1, #3
1000098a:	4011      	ands	r1, r2
1000098c:	0089      	lsls	r1, r1, #2
1000098e:	4088      	lsls	r0, r1
10000990:	4a48      	ldr	r2, [pc, #288]	; (10000ab4 <gpio_default_irq_handler+0x244>)
10000992:	333c      	adds	r3, #60	; 0x3c
10000994:	009b      	lsls	r3, r3, #2
10000996:	5098      	str	r0, [r3, r2]
10000998:	0b23      	lsrs	r3, r4, #12
1000099a:	1f71      	subs	r1, r6, #5
1000099c:	2b00      	cmp	r3, #0
1000099e:	d0b2      	beq.n	10000906 <gpio_default_irq_handler+0x96>
100009a0:	220f      	movs	r2, #15
100009a2:	0010      	movs	r0, r2
100009a4:	4018      	ands	r0, r3
100009a6:	421a      	tst	r2, r3
100009a8:	d141      	bne.n	10000a2e <gpio_default_irq_handler+0x1be>
100009aa:	0c23      	lsrs	r3, r4, #16
100009ac:	1f31      	subs	r1, r6, #4
100009ae:	2b00      	cmp	r3, #0
100009b0:	d0a9      	beq.n	10000906 <gpio_default_irq_handler+0x96>
100009b2:	220f      	movs	r2, #15
100009b4:	0010      	movs	r0, r2
100009b6:	4018      	ands	r0, r3
100009b8:	421a      	tst	r2, r3
100009ba:	d152      	bne.n	10000a62 <gpio_default_irq_handler+0x1f2>
100009bc:	0d23      	lsrs	r3, r4, #20
100009be:	1ef1      	subs	r1, r6, #3
100009c0:	2b00      	cmp	r3, #0
100009c2:	d0a0      	beq.n	10000906 <gpio_default_irq_handler+0x96>
100009c4:	220f      	movs	r2, #15
100009c6:	0010      	movs	r0, r2
100009c8:	4018      	ands	r0, r3
100009ca:	421a      	tst	r2, r3
100009cc:	d15a      	bne.n	10000a84 <gpio_default_irq_handler+0x214>
100009ce:	0e23      	lsrs	r3, r4, #24
100009d0:	1eb1      	subs	r1, r6, #2
100009d2:	2b00      	cmp	r3, #0
100009d4:	d097      	beq.n	10000906 <gpio_default_irq_handler+0x96>
100009d6:	220f      	movs	r2, #15
100009d8:	0010      	movs	r0, r2
100009da:	4018      	ands	r0, r3
100009dc:	421a      	tst	r2, r3
100009de:	d00f      	beq.n	10000a00 <gpio_default_irq_handler+0x190>
100009e0:	2301      	movs	r3, #1
100009e2:	4645      	mov	r5, r8
100009e4:	408b      	lsls	r3, r1
100009e6:	4a32      	ldr	r2, [pc, #200]	; (10000ab0 <gpio_default_irq_handler+0x240>)
100009e8:	5952      	ldr	r2, [r2, r5]
100009ea:	421a      	tst	r2, r3
100009ec:	d108      	bne.n	10000a00 <gpio_default_irq_handler+0x190>
100009ee:	2207      	movs	r2, #7
100009f0:	08cb      	lsrs	r3, r1, #3
100009f2:	4011      	ands	r1, r2
100009f4:	0089      	lsls	r1, r1, #2
100009f6:	4088      	lsls	r0, r1
100009f8:	4a2e      	ldr	r2, [pc, #184]	; (10000ab4 <gpio_default_irq_handler+0x244>)
100009fa:	333c      	adds	r3, #60	; 0x3c
100009fc:	009b      	lsls	r3, r3, #2
100009fe:	5098      	str	r0, [r3, r2]
10000a00:	0f24      	lsrs	r4, r4, #28
10000a02:	1e72      	subs	r2, r6, #1
10000a04:	2c00      	cmp	r4, #0
10000a06:	d100      	bne.n	10000a0a <gpio_default_irq_handler+0x19a>
10000a08:	e77d      	b.n	10000906 <gpio_default_irq_handler+0x96>
10000a0a:	2301      	movs	r3, #1
10000a0c:	4651      	mov	r1, sl
10000a0e:	4640      	mov	r0, r8
10000a10:	4093      	lsls	r3, r2
10000a12:	5809      	ldr	r1, [r1, r0]
10000a14:	4219      	tst	r1, r3
10000a16:	d000      	beq.n	10000a1a <gpio_default_irq_handler+0x1aa>
10000a18:	e775      	b.n	10000906 <gpio_default_irq_handler+0x96>
10000a1a:	2107      	movs	r1, #7
10000a1c:	08d3      	lsrs	r3, r2, #3
10000a1e:	400a      	ands	r2, r1
10000a20:	0092      	lsls	r2, r2, #2
10000a22:	4094      	lsls	r4, r2
10000a24:	333c      	adds	r3, #60	; 0x3c
10000a26:	4a23      	ldr	r2, [pc, #140]	; (10000ab4 <gpio_default_irq_handler+0x244>)
10000a28:	009b      	lsls	r3, r3, #2
10000a2a:	509c      	str	r4, [r3, r2]
10000a2c:	e76b      	b.n	10000906 <gpio_default_irq_handler+0x96>
10000a2e:	2301      	movs	r3, #1
10000a30:	4645      	mov	r5, r8
10000a32:	408b      	lsls	r3, r1
10000a34:	4a1e      	ldr	r2, [pc, #120]	; (10000ab0 <gpio_default_irq_handler+0x240>)
10000a36:	5952      	ldr	r2, [r2, r5]
10000a38:	421a      	tst	r2, r3
10000a3a:	d1b6      	bne.n	100009aa <gpio_default_irq_handler+0x13a>
10000a3c:	2207      	movs	r2, #7
10000a3e:	08cb      	lsrs	r3, r1, #3
10000a40:	4011      	ands	r1, r2
10000a42:	0089      	lsls	r1, r1, #2
10000a44:	4088      	lsls	r0, r1
10000a46:	4a1b      	ldr	r2, [pc, #108]	; (10000ab4 <gpio_default_irq_handler+0x244>)
10000a48:	333c      	adds	r3, #60	; 0x3c
10000a4a:	009b      	lsls	r3, r3, #2
10000a4c:	5098      	str	r0, [r3, r2]
10000a4e:	e7ac      	b.n	100009aa <gpio_default_irq_handler+0x13a>
10000a50:	2307      	movs	r3, #7
10000a52:	401d      	ands	r5, r3
10000a54:	00ad      	lsls	r5, r5, #2
10000a56:	40a9      	lsls	r1, r5
10000a58:	4b16      	ldr	r3, [pc, #88]	; (10000ab4 <gpio_default_irq_handler+0x244>)
10000a5a:	323c      	adds	r2, #60	; 0x3c
10000a5c:	0092      	lsls	r2, r2, #2
10000a5e:	50d1      	str	r1, [r2, r3]
10000a60:	e768      	b.n	10000934 <gpio_default_irq_handler+0xc4>
10000a62:	2301      	movs	r3, #1
10000a64:	4645      	mov	r5, r8
10000a66:	408b      	lsls	r3, r1
10000a68:	4a11      	ldr	r2, [pc, #68]	; (10000ab0 <gpio_default_irq_handler+0x240>)
10000a6a:	5952      	ldr	r2, [r2, r5]
10000a6c:	421a      	tst	r2, r3
10000a6e:	d1a5      	bne.n	100009bc <gpio_default_irq_handler+0x14c>
10000a70:	2207      	movs	r2, #7
10000a72:	08cb      	lsrs	r3, r1, #3
10000a74:	4011      	ands	r1, r2
10000a76:	0089      	lsls	r1, r1, #2
10000a78:	4088      	lsls	r0, r1
10000a7a:	4a0e      	ldr	r2, [pc, #56]	; (10000ab4 <gpio_default_irq_handler+0x244>)
10000a7c:	333c      	adds	r3, #60	; 0x3c
10000a7e:	009b      	lsls	r3, r3, #2
10000a80:	5098      	str	r0, [r3, r2]
10000a82:	e79b      	b.n	100009bc <gpio_default_irq_handler+0x14c>
10000a84:	2301      	movs	r3, #1
10000a86:	4645      	mov	r5, r8
10000a88:	408b      	lsls	r3, r1
10000a8a:	4a09      	ldr	r2, [pc, #36]	; (10000ab0 <gpio_default_irq_handler+0x240>)
10000a8c:	5952      	ldr	r2, [r2, r5]
10000a8e:	421a      	tst	r2, r3
10000a90:	d19d      	bne.n	100009ce <gpio_default_irq_handler+0x15e>
10000a92:	2207      	movs	r2, #7
10000a94:	08cb      	lsrs	r3, r1, #3
10000a96:	4011      	ands	r1, r2
10000a98:	0089      	lsls	r1, r1, #2
10000a9a:	4088      	lsls	r0, r1
10000a9c:	4a05      	ldr	r2, [pc, #20]	; (10000ab4 <gpio_default_irq_handler+0x244>)
10000a9e:	333c      	adds	r3, #60	; 0x3c
10000aa0:	009b      	lsls	r3, r3, #2
10000aa2:	5098      	str	r0, [r3, r2]
10000aa4:	e793      	b.n	100009ce <gpio_default_irq_handler+0x15e>
10000aa6:	46c0      	nop			; (mov r8, r8)
10000aa8:	20002724 	.word	0x20002724
10000aac:	40014100 	.word	0x40014100
10000ab0:	20002be8 	.word	0x20002be8
10000ab4:	40014000 	.word	0x40014000

10000ab8 <gpio_set_pulls>:
10000ab8:	4b0a      	ldr	r3, [pc, #40]	; (10000ae4 <gpio_set_pulls+0x2c>)
10000aba:	0080      	lsls	r0, r0, #2
10000abc:	469c      	mov	ip, r3
10000abe:	2304      	movs	r3, #4
10000ac0:	4460      	add	r0, ip
10000ac2:	2900      	cmp	r1, #0
10000ac4:	d001      	beq.n	10000aca <gpio_set_pulls+0x12>
10000ac6:	230c      	movs	r3, #12
10000ac8:	2108      	movs	r1, #8
10000aca:	2a00      	cmp	r2, #0
10000acc:	d100      	bne.n	10000ad0 <gpio_set_pulls+0x18>
10000ace:	000b      	movs	r3, r1
10000ad0:	6802      	ldr	r2, [r0, #0]
10000ad2:	4053      	eors	r3, r2
10000ad4:	220c      	movs	r2, #12
10000ad6:	401a      	ands	r2, r3
10000ad8:	2380      	movs	r3, #128	; 0x80
10000ada:	015b      	lsls	r3, r3, #5
10000adc:	4318      	orrs	r0, r3
10000ade:	6002      	str	r2, [r0, #0]
10000ae0:	4770      	bx	lr
10000ae2:	46c0      	nop			; (mov r8, r8)
10000ae4:	4001c004 	.word	0x4001c004

10000ae8 <gpio_set_irq_enabled>:
10000ae8:	23d0      	movs	r3, #208	; 0xd0
10000aea:	061b      	lsls	r3, r3, #24
10000aec:	681b      	ldr	r3, [r3, #0]
10000aee:	b530      	push	{r4, r5, lr}
10000af0:	0005      	movs	r5, r0
10000af2:	1e58      	subs	r0, r3, #1
10000af4:	4183      	sbcs	r3, r0
10000af6:	480f      	ldr	r0, [pc, #60]	; (10000b34 <gpio_set_irq_enabled+0x4c>)
10000af8:	425c      	negs	r4, r3
10000afa:	4684      	mov	ip, r0
10000afc:	2007      	movs	r0, #7
10000afe:	2330      	movs	r3, #48	; 0x30
10000b00:	4028      	ands	r0, r5
10000b02:	4023      	ands	r3, r4
10000b04:	0080      	lsls	r0, r0, #2
10000b06:	08ec      	lsrs	r4, r5, #3
10000b08:	4081      	lsls	r1, r0
10000b0a:	0020      	movs	r0, r4
10000b0c:	4d0a      	ldr	r5, [pc, #40]	; (10000b38 <gpio_set_irq_enabled+0x50>)
10000b0e:	303c      	adds	r0, #60	; 0x3c
10000b10:	4463      	add	r3, ip
10000b12:	0080      	lsls	r0, r0, #2
10000b14:	00a4      	lsls	r4, r4, #2
10000b16:	5141      	str	r1, [r0, r5]
10000b18:	191b      	adds	r3, r3, r4
10000b1a:	2a00      	cmp	r2, #0
10000b1c:	d004      	beq.n	10000b28 <gpio_set_irq_enabled+0x40>
10000b1e:	2280      	movs	r2, #128	; 0x80
10000b20:	0192      	lsls	r2, r2, #6
10000b22:	4313      	orrs	r3, r2
10000b24:	6019      	str	r1, [r3, #0]
10000b26:	bd30      	pop	{r4, r5, pc}
10000b28:	22c0      	movs	r2, #192	; 0xc0
10000b2a:	0192      	lsls	r2, r2, #6
10000b2c:	4313      	orrs	r3, r2
10000b2e:	6019      	str	r1, [r3, #0]
10000b30:	e7f9      	b.n	10000b26 <gpio_set_irq_enabled+0x3e>
10000b32:	46c0      	nop			; (mov r8, r8)
10000b34:	40014100 	.word	0x40014100
10000b38:	40014000 	.word	0x40014000

10000b3c <gpio_set_irq_enabled_with_callback>:
10000b3c:	b5f8      	push	{r3, r4, r5, r6, r7, lr}
10000b3e:	001e      	movs	r6, r3
10000b40:	23d0      	movs	r3, #208	; 0xd0
10000b42:	061b      	lsls	r3, r3, #24
10000b44:	681c      	ldr	r4, [r3, #0]
10000b46:	0007      	movs	r7, r0
10000b48:	1e63      	subs	r3, r4, #1
10000b4a:	419c      	sbcs	r4, r3
10000b4c:	2330      	movs	r3, #48	; 0x30
10000b4e:	4264      	negs	r4, r4
10000b50:	401c      	ands	r4, r3
10000b52:	4b22      	ldr	r3, [pc, #136]	; (10000bdc <gpio_set_irq_enabled_with_callback+0xa0>)
10000b54:	0015      	movs	r5, r2
10000b56:	469c      	mov	ip, r3
10000b58:	08c3      	lsrs	r3, r0, #3
10000b5a:	2007      	movs	r0, #7
10000b5c:	001a      	movs	r2, r3
10000b5e:	4038      	ands	r0, r7
10000b60:	0080      	lsls	r0, r0, #2
10000b62:	4081      	lsls	r1, r0
10000b64:	323c      	adds	r2, #60	; 0x3c
10000b66:	481e      	ldr	r0, [pc, #120]	; (10000be0 <gpio_set_irq_enabled_with_callback+0xa4>)
10000b68:	4464      	add	r4, ip
10000b6a:	0092      	lsls	r2, r2, #2
10000b6c:	009b      	lsls	r3, r3, #2
10000b6e:	5011      	str	r1, [r2, r0]
10000b70:	18e4      	adds	r4, r4, r3
10000b72:	2d00      	cmp	r5, #0
10000b74:	d011      	beq.n	10000b9a <gpio_set_irq_enabled_with_callback+0x5e>
10000b76:	2380      	movs	r3, #128	; 0x80
10000b78:	019b      	lsls	r3, r3, #6
10000b7a:	431c      	orrs	r4, r3
10000b7c:	23d0      	movs	r3, #208	; 0xd0
10000b7e:	6021      	str	r1, [r4, #0]
10000b80:	061b      	lsls	r3, r3, #24
10000b82:	681c      	ldr	r4, [r3, #0]
10000b84:	4f17      	ldr	r7, [pc, #92]	; (10000be4 <gpio_set_irq_enabled_with_callback+0xa8>)
10000b86:	00a4      	lsls	r4, r4, #2
10000b88:	593b      	ldr	r3, [r7, r4]
10000b8a:	2b00      	cmp	r3, #0
10000b8c:	d011      	beq.n	10000bb2 <gpio_set_irq_enabled_with_callback+0x76>
10000b8e:	2e00      	cmp	r6, #0
10000b90:	d01e      	beq.n	10000bd0 <gpio_set_irq_enabled_with_callback+0x94>
10000b92:	513e      	str	r6, [r7, r4]
10000b94:	2d00      	cmp	r5, #0
10000b96:	d116      	bne.n	10000bc6 <gpio_set_irq_enabled_with_callback+0x8a>
10000b98:	bdf8      	pop	{r3, r4, r5, r6, r7, pc}
10000b9a:	23c0      	movs	r3, #192	; 0xc0
10000b9c:	019b      	lsls	r3, r3, #6
10000b9e:	431c      	orrs	r4, r3
10000ba0:	23d0      	movs	r3, #208	; 0xd0
10000ba2:	6021      	str	r1, [r4, #0]
10000ba4:	061b      	lsls	r3, r3, #24
10000ba6:	681c      	ldr	r4, [r3, #0]
10000ba8:	4f0e      	ldr	r7, [pc, #56]	; (10000be4 <gpio_set_irq_enabled_with_callback+0xa8>)
10000baa:	00a4      	lsls	r4, r4, #2
10000bac:	593b      	ldr	r3, [r7, r4]
10000bae:	2b00      	cmp	r3, #0
10000bb0:	d1ed      	bne.n	10000b8e <gpio_set_irq_enabled_with_callback+0x52>
10000bb2:	2e00      	cmp	r6, #0
10000bb4:	d0ee      	beq.n	10000b94 <gpio_set_irq_enabled_with_callback+0x58>
10000bb6:	2200      	movs	r2, #0
10000bb8:	200d      	movs	r0, #13
10000bba:	490b      	ldr	r1, [pc, #44]	; (10000be8 <gpio_set_irq_enabled_with_callback+0xac>)
10000bbc:	513e      	str	r6, [r7, r4]
10000bbe:	f000 f937 	bl	10000e30 <irq_add_shared_handler>
10000bc2:	2d00      	cmp	r5, #0
10000bc4:	d0e8      	beq.n	10000b98 <gpio_set_irq_enabled_with_callback+0x5c>
10000bc6:	2101      	movs	r1, #1
10000bc8:	200d      	movs	r0, #13
10000bca:	f000 f8cf 	bl	10000d6c <irq_set_enabled>
10000bce:	e7e3      	b.n	10000b98 <gpio_set_irq_enabled_with_callback+0x5c>
10000bd0:	200d      	movs	r0, #13
10000bd2:	4905      	ldr	r1, [pc, #20]	; (10000be8 <gpio_set_irq_enabled_with_callback+0xac>)
10000bd4:	f000 fa1e 	bl	10001014 <irq_remove_handler>
10000bd8:	e7db      	b.n	10000b92 <gpio_set_irq_enabled_with_callback+0x56>
10000bda:	46c0      	nop			; (mov r8, r8)
10000bdc:	40014100 	.word	0x40014100
10000be0:	40014000 	.word	0x40014000
10000be4:	20002724 	.word	0x20002724
10000be8:	10000871 	.word	0x10000871

10000bec <gpio_init>:
10000bec:	2301      	movs	r3, #1
10000bee:	22d0      	movs	r2, #208	; 0xd0
10000bf0:	4083      	lsls	r3, r0
10000bf2:	0612      	lsls	r2, r2, #24
10000bf4:	6293      	str	r3, [r2, #40]	; 0x28
10000bf6:	6193      	str	r3, [r2, #24]
10000bf8:	4a09      	ldr	r2, [pc, #36]	; (10000c20 <gpio_init+0x34>)
10000bfa:	0083      	lsls	r3, r0, #2
10000bfc:	4694      	mov	ip, r2
10000bfe:	2240      	movs	r2, #64	; 0x40
10000c00:	4463      	add	r3, ip
10000c02:	6819      	ldr	r1, [r3, #0]
10000c04:	00c0      	lsls	r0, r0, #3
10000c06:	404a      	eors	r2, r1
10000c08:	21c0      	movs	r1, #192	; 0xc0
10000c0a:	4011      	ands	r1, r2
10000c0c:	2280      	movs	r2, #128	; 0x80
10000c0e:	0152      	lsls	r2, r2, #5
10000c10:	4313      	orrs	r3, r2
10000c12:	6019      	str	r1, [r3, #0]
10000c14:	4b03      	ldr	r3, [pc, #12]	; (10000c24 <gpio_init+0x38>)
10000c16:	469c      	mov	ip, r3
10000c18:	2305      	movs	r3, #5
10000c1a:	4460      	add	r0, ip
10000c1c:	6043      	str	r3, [r0, #4]
10000c1e:	4770      	bx	lr
10000c20:	4001c004 	.word	0x4001c004
10000c24:	40014000 	.word	0x40014000

10000c28 <hw_claim_or_assert>:
10000c28:	b570      	push	{r4, r5, r6, lr}
10000c2a:	f3ef 8c10 	mrs	ip, PRIMASK
10000c2e:	b672      	cpsid	i
10000c30:	4d0d      	ldr	r5, [pc, #52]	; (10000c68 <hw_claim_or_assert+0x40>)
10000c32:	682b      	ldr	r3, [r5, #0]
10000c34:	2b00      	cmp	r3, #0
10000c36:	d0fc      	beq.n	10000c32 <hw_claim_or_assert+0xa>
10000c38:	f3bf 8f5f 	dmb	sy
10000c3c:	2407      	movs	r4, #7
10000c3e:	08cb      	lsrs	r3, r1, #3
10000c40:	18c6      	adds	r6, r0, r3
10000c42:	5cc0      	ldrb	r0, [r0, r3]
10000c44:	2301      	movs	r3, #1
10000c46:	400c      	ands	r4, r1
10000c48:	40a3      	lsls	r3, r4
10000c4a:	001c      	movs	r4, r3
10000c4c:	4004      	ands	r4, r0
10000c4e:	4203      	tst	r3, r0
10000c50:	d107      	bne.n	10000c62 <hw_claim_or_assert+0x3a>
10000c52:	4303      	orrs	r3, r0
10000c54:	7033      	strb	r3, [r6, #0]
10000c56:	f3bf 8f5f 	dmb	sy
10000c5a:	602c      	str	r4, [r5, #0]
10000c5c:	f38c 8810 	msr	PRIMASK, ip
10000c60:	bd70      	pop	{r4, r5, r6, pc}
10000c62:	0010      	movs	r0, r2
10000c64:	f001 fa88 	bl	10002178 <panic>
10000c68:	d000012c 	.word	0xd000012c

10000c6c <hw_claim_unused_from_range>:
10000c6c:	b5f8      	push	{r3, r4, r5, r6, r7, lr}
10000c6e:	4647      	mov	r7, r8
10000c70:	46ce      	mov	lr, r9
10000c72:	4688      	mov	r8, r1
10000c74:	b580      	push	{r7, lr}
10000c76:	f3ef 8c10 	mrs	ip, PRIMASK
10000c7a:	b672      	cpsid	i
10000c7c:	4d21      	ldr	r5, [pc, #132]	; (10000d04 <hw_claim_unused_from_range+0x98>)
10000c7e:	682c      	ldr	r4, [r5, #0]
10000c80:	2c00      	cmp	r4, #0
10000c82:	d0fc      	beq.n	10000c7e <hw_claim_unused_from_range+0x12>
10000c84:	f3bf 8f5f 	dmb	sy
10000c88:	429a      	cmp	r2, r3
10000c8a:	d82c      	bhi.n	10000ce6 <hw_claim_unused_from_range+0x7a>
10000c8c:	08d4      	lsrs	r4, r2, #3
10000c8e:	2707      	movs	r7, #7
10000c90:	5d05      	ldrb	r5, [r0, r4]
10000c92:	1906      	adds	r6, r0, r4
10000c94:	2401      	movs	r4, #1
10000c96:	4017      	ands	r7, r2
10000c98:	40bc      	lsls	r4, r7
10000c9a:	422c      	tst	r4, r5
10000c9c:	d01f      	beq.n	10000cde <hw_claim_unused_from_range+0x72>
10000c9e:	2107      	movs	r1, #7
10000ca0:	2701      	movs	r7, #1
10000ca2:	4689      	mov	r9, r1
10000ca4:	e009      	b.n	10000cba <hw_claim_unused_from_range+0x4e>
10000ca6:	08d4      	lsrs	r4, r2, #3
10000ca8:	5d05      	ldrb	r5, [r0, r4]
10000caa:	1906      	adds	r6, r0, r4
10000cac:	464c      	mov	r4, r9
10000cae:	0039      	movs	r1, r7
10000cb0:	4014      	ands	r4, r2
10000cb2:	40a1      	lsls	r1, r4
10000cb4:	000c      	movs	r4, r1
10000cb6:	4229      	tst	r1, r5
10000cb8:	d011      	beq.n	10000cde <hw_claim_unused_from_range+0x72>
10000cba:	3201      	adds	r2, #1
10000cbc:	4293      	cmp	r3, r2
10000cbe:	d2f2      	bcs.n	10000ca6 <hw_claim_unused_from_range+0x3a>
10000cc0:	2001      	movs	r0, #1
10000cc2:	4240      	negs	r0, r0
10000cc4:	f3bf 8f5f 	dmb	sy
10000cc8:	2200      	movs	r2, #0
10000cca:	4b0e      	ldr	r3, [pc, #56]	; (10000d04 <hw_claim_unused_from_range+0x98>)
10000ccc:	601a      	str	r2, [r3, #0]
10000cce:	f38c 8810 	msr	PRIMASK, ip
10000cd2:	2800      	cmp	r0, #0
10000cd4:	db0f      	blt.n	10000cf6 <hw_claim_unused_from_range+0x8a>
10000cd6:	bcc0      	pop	{r6, r7}
10000cd8:	46b9      	mov	r9, r7
10000cda:	46b0      	mov	r8, r6
10000cdc:	bdf8      	pop	{r3, r4, r5, r6, r7, pc}
10000cde:	432c      	orrs	r4, r5
10000ce0:	0010      	movs	r0, r2
10000ce2:	7034      	strb	r4, [r6, #0]
10000ce4:	e7ee      	b.n	10000cc4 <hw_claim_unused_from_range+0x58>
10000ce6:	f3bf 8f5f 	dmb	sy
10000cea:	2300      	movs	r3, #0
10000cec:	602b      	str	r3, [r5, #0]
10000cee:	f38c 8810 	msr	PRIMASK, ip
10000cf2:	2001      	movs	r0, #1
10000cf4:	4240      	negs	r0, r0
10000cf6:	4643      	mov	r3, r8
10000cf8:	2b00      	cmp	r3, #0
10000cfa:	d0ec      	beq.n	10000cd6 <hw_claim_unused_from_range+0x6a>
10000cfc:	9808      	ldr	r0, [sp, #32]
10000cfe:	f001 fa3b 	bl	10002178 <panic>
10000d02:	46c0      	nop			; (mov r8, r8)
10000d04:	d000012c 	.word	0xd000012c

10000d08 <running_on_fpga>:
10000d08:	4b02      	ldr	r3, [pc, #8]	; (10000d14 <running_on_fpga+0xc>)
10000d0a:	6818      	ldr	r0, [r3, #0]
10000d0c:	0780      	lsls	r0, r0, #30
10000d0e:	0fc0      	lsrs	r0, r0, #31
10000d10:	4770      	bx	lr
10000d12:	46c0      	nop			; (mov r8, r8)
10000d14:	4006c000 	.word	0x4006c000

10000d18 <spin_locks_reset>:
10000d18:	2100      	movs	r1, #0
10000d1a:	4b04      	ldr	r3, [pc, #16]	; (10000d2c <spin_locks_reset+0x14>)
10000d1c:	4a04      	ldr	r2, [pc, #16]	; (10000d30 <spin_locks_reset+0x18>)
10000d1e:	f3bf 8f5f 	dmb	sy
10000d22:	c302      	stmia	r3!, {r1}
10000d24:	4293      	cmp	r3, r2
10000d26:	d1fa      	bne.n	10000d1e <spin_locks_reset+0x6>
10000d28:	4770      	bx	lr
10000d2a:	46c0      	nop			; (mov r8, r8)
10000d2c:	d0000100 	.word	0xd0000100
10000d30:	d0000180 	.word	0xd0000180

10000d34 <next_striped_spin_lock_num>:
10000d34:	4a04      	ldr	r2, [pc, #16]	; (10000d48 <next_striped_spin_lock_num+0x14>)
10000d36:	7810      	ldrb	r0, [r2, #0]
10000d38:	1c43      	adds	r3, r0, #1
10000d3a:	b2db      	uxtb	r3, r3
10000d3c:	2b17      	cmp	r3, #23
10000d3e:	d900      	bls.n	10000d42 <next_striped_spin_lock_num+0xe>
10000d40:	2310      	movs	r3, #16
10000d42:	7013      	strb	r3, [r2, #0]
10000d44:	4770      	bx	lr
10000d46:	46c0      	nop			; (mov r8, r8)
10000d48:	2000196c 	.word	0x2000196c

10000d4c <spin_lock_claim_unused>:
10000d4c:	b500      	push	{lr}
10000d4e:	4b05      	ldr	r3, [pc, #20]	; (10000d64 <spin_lock_claim_unused+0x18>)
10000d50:	b083      	sub	sp, #12
10000d52:	0001      	movs	r1, r0
10000d54:	9300      	str	r3, [sp, #0]
10000d56:	2218      	movs	r2, #24
10000d58:	231f      	movs	r3, #31
10000d5a:	4803      	ldr	r0, [pc, #12]	; (10000d68 <spin_lock_claim_unused+0x1c>)
10000d5c:	f7ff ff86 	bl	10000c6c <hw_claim_unused_from_range>
10000d60:	b003      	add	sp, #12
10000d62:	bd00      	pop	{pc}
10000d64:	10007884 	.word	0x10007884
10000d68:	2000272c 	.word	0x2000272c

10000d6c <irq_set_enabled>:
10000d6c:	2301      	movs	r3, #1
10000d6e:	4083      	lsls	r3, r0
10000d70:	2900      	cmp	r1, #0
10000d72:	d004      	beq.n	10000d7e <irq_set_enabled+0x12>
10000d74:	4a03      	ldr	r2, [pc, #12]	; (10000d84 <irq_set_enabled+0x18>)
10000d76:	6013      	str	r3, [r2, #0]
10000d78:	4a03      	ldr	r2, [pc, #12]	; (10000d88 <irq_set_enabled+0x1c>)
10000d7a:	6013      	str	r3, [r2, #0]
10000d7c:	4770      	bx	lr
10000d7e:	4a03      	ldr	r2, [pc, #12]	; (10000d8c <irq_set_enabled+0x20>)
10000d80:	6013      	str	r3, [r2, #0]
10000d82:	e7fb      	b.n	10000d7c <irq_set_enabled+0x10>
10000d84:	e000e280 	.word	0xe000e280
10000d88:	e000e100 	.word	0xe000e100
10000d8c:	e000e180 	.word	0xe000e180

10000d90 <irq_set_pending>:
10000d90:	2301      	movs	r3, #1
10000d92:	4083      	lsls	r3, r0
10000d94:	4a01      	ldr	r2, [pc, #4]	; (10000d9c <irq_set_pending+0xc>)
10000d96:	6013      	str	r3, [r2, #0]
10000d98:	4770      	bx	lr
10000d9a:	46c0      	nop			; (mov r8, r8)
10000d9c:	e000e200 	.word	0xe000e200

10000da0 <irq_has_shared_handler>:
10000da0:	4b08      	ldr	r3, [pc, #32]	; (10000dc4 <irq_has_shared_handler+0x24>)
10000da2:	3010      	adds	r0, #16
10000da4:	689b      	ldr	r3, [r3, #8]
10000da6:	0080      	lsls	r0, r0, #2
10000da8:	58c3      	ldr	r3, [r0, r3]
10000daa:	2b00      	cmp	r3, #0
10000dac:	d007      	beq.n	10000dbe <irq_has_shared_handler+0x1e>
10000dae:	4a06      	ldr	r2, [pc, #24]	; (10000dc8 <irq_has_shared_handler+0x28>)
10000db0:	2000      	movs	r0, #0
10000db2:	1a9b      	subs	r3, r3, r2
10000db4:	222f      	movs	r2, #47	; 0x2f
10000db6:	429a      	cmp	r2, r3
10000db8:	4140      	adcs	r0, r0
10000dba:	b2c0      	uxtb	r0, r0
10000dbc:	4770      	bx	lr
10000dbe:	2000      	movs	r0, #0
10000dc0:	e7fc      	b.n	10000dbc <irq_has_shared_handler+0x1c>
10000dc2:	46c0      	nop			; (mov r8, r8)
10000dc4:	e000ed00 	.word	0xe000ed00
10000dc8:	20001970 	.word	0x20001970

10000dcc <irq_get_vtable_handler>:
10000dcc:	4b02      	ldr	r3, [pc, #8]	; (10000dd8 <irq_get_vtable_handler+0xc>)
10000dce:	3010      	adds	r0, #16
10000dd0:	689b      	ldr	r3, [r3, #8]
10000dd2:	0080      	lsls	r0, r0, #2
10000dd4:	58c0      	ldr	r0, [r0, r3]
10000dd6:	4770      	bx	lr
10000dd8:	e000ed00 	.word	0xe000ed00

10000ddc <irq_set_exclusive_handler>:
10000ddc:	b570      	push	{r4, r5, r6, lr}
10000dde:	000d      	movs	r5, r1
10000de0:	f3ef 8610 	mrs	r6, PRIMASK
10000de4:	b672      	cpsid	i
10000de6:	4a0f      	ldr	r2, [pc, #60]	; (10000e24 <irq_set_exclusive_handler+0x48>)
10000de8:	6813      	ldr	r3, [r2, #0]
10000dea:	2b00      	cmp	r3, #0
10000dec:	d0fc      	beq.n	10000de8 <irq_set_exclusive_handler+0xc>
10000dee:	f3bf 8f5f 	dmb	sy
10000df2:	4b0d      	ldr	r3, [pc, #52]	; (10000e28 <irq_set_exclusive_handler+0x4c>)
10000df4:	3010      	adds	r0, #16
10000df6:	689b      	ldr	r3, [r3, #8]
10000df8:	0084      	lsls	r4, r0, #2
10000dfa:	591b      	ldr	r3, [r3, r4]
10000dfc:	4a0b      	ldr	r2, [pc, #44]	; (10000e2c <irq_set_exclusive_handler+0x50>)
10000dfe:	4293      	cmp	r3, r2
10000e00:	d003      	beq.n	10000e0a <irq_set_exclusive_handler+0x2e>
10000e02:	429d      	cmp	r5, r3
10000e04:	d001      	beq.n	10000e0a <irq_set_exclusive_handler+0x2e>
10000e06:	f001 f9cf 	bl	100021a8 <hard_assertion_failure>
10000e0a:	4b07      	ldr	r3, [pc, #28]	; (10000e28 <irq_set_exclusive_handler+0x4c>)
10000e0c:	689b      	ldr	r3, [r3, #8]
10000e0e:	511d      	str	r5, [r3, r4]
10000e10:	f3bf 8f5f 	dmb	sy
10000e14:	f3bf 8f5f 	dmb	sy
10000e18:	2200      	movs	r2, #0
10000e1a:	4b02      	ldr	r3, [pc, #8]	; (10000e24 <irq_set_exclusive_handler+0x48>)
10000e1c:	601a      	str	r2, [r3, #0]
10000e1e:	f386 8810 	msr	PRIMASK, r6
10000e22:	bd70      	pop	{r4, r5, r6, pc}
10000e24:	d0000124 	.word	0xd0000124
10000e28:	e000ed00 	.word	0xe000ed00
10000e2c:	100001cd 	.word	0x100001cd

10000e30 <irq_add_shared_handler>:
10000e30:	b5f0      	push	{r4, r5, r6, r7, lr}
10000e32:	4657      	mov	r7, sl
10000e34:	464e      	mov	r6, r9
10000e36:	46de      	mov	lr, fp
10000e38:	4645      	mov	r5, r8
10000e3a:	b5e0      	push	{r5, r6, r7, lr}
10000e3c:	b085      	sub	sp, #20
10000e3e:	0006      	movs	r6, r0
10000e40:	9102      	str	r1, [sp, #8]
10000e42:	0017      	movs	r7, r2
10000e44:	f3ef 8b10 	mrs	fp, PRIMASK
10000e48:	b672      	cpsid	i
10000e4a:	4a67      	ldr	r2, [pc, #412]	; (10000fe8 <irq_add_shared_handler+0x1b8>)
10000e4c:	6813      	ldr	r3, [r2, #0]
10000e4e:	2b00      	cmp	r3, #0
10000e50:	d0fc      	beq.n	10000e4c <irq_add_shared_handler+0x1c>
10000e52:	f3bf 8f5f 	dmb	sy
10000e56:	2500      	movs	r5, #0
10000e58:	4b64      	ldr	r3, [pc, #400]	; (10000fec <irq_add_shared_handler+0x1bc>)
10000e5a:	575d      	ldrsb	r5, [r3, r5]
10000e5c:	469a      	mov	sl, r3
10000e5e:	2d00      	cmp	r5, #0
10000e60:	da00      	bge.n	10000e64 <irq_add_shared_handler+0x34>
10000e62:	e0a5      	b.n	10000fb0 <irq_add_shared_handler+0x180>
10000e64:	006b      	lsls	r3, r5, #1
10000e66:	4c62      	ldr	r4, [pc, #392]	; (10000ff0 <irq_add_shared_handler+0x1c0>)
10000e68:	9303      	str	r3, [sp, #12]
10000e6a:	195b      	adds	r3, r3, r5
10000e6c:	009b      	lsls	r3, r3, #2
10000e6e:	4698      	mov	r8, r3
10000e70:	46a1      	mov	r9, r4
10000e72:	44c1      	add	r9, r8
10000e74:	464b      	mov	r3, r9
10000e76:	4652      	mov	r2, sl
10000e78:	799b      	ldrb	r3, [r3, #6]
10000e7a:	3610      	adds	r6, #16
10000e7c:	7013      	strb	r3, [r2, #0]
10000e7e:	4b5d      	ldr	r3, [pc, #372]	; (10000ff4 <irq_add_shared_handler+0x1c4>)
10000e80:	00b2      	lsls	r2, r6, #2
10000e82:	689b      	ldr	r3, [r3, #8]
10000e84:	9201      	str	r2, [sp, #4]
10000e86:	5899      	ldr	r1, [r3, r2]
10000e88:	1b0b      	subs	r3, r1, r4
10000e8a:	2b2f      	cmp	r3, #47	; 0x2f
10000e8c:	d934      	bls.n	10000ef8 <irq_add_shared_handler+0xc8>
10000e8e:	4b5a      	ldr	r3, [pc, #360]	; (10000ff8 <irq_add_shared_handler+0x1c8>)
10000e90:	4299      	cmp	r1, r3
10000e92:	d000      	beq.n	10000e96 <irq_add_shared_handler+0x66>
10000e94:	e0a5      	b.n	10000fe2 <irq_add_shared_handler+0x1b2>
10000e96:	9b03      	ldr	r3, [sp, #12]
10000e98:	4a58      	ldr	r2, [pc, #352]	; (10000ffc <irq_add_shared_handler+0x1cc>)
10000e9a:	469c      	mov	ip, r3
10000e9c:	4b58      	ldr	r3, [pc, #352]	; (10001000 <irq_add_shared_handler+0x1d0>)
10000e9e:	4465      	add	r5, ip
10000ea0:	00ad      	lsls	r5, r5, #2
10000ea2:	5363      	strh	r3, [r4, r5]
10000ea4:	4643      	mov	r3, r8
10000ea6:	3302      	adds	r3, #2
10000ea8:	1965      	adds	r5, r4, r5
10000eaa:	18e4      	adds	r4, r4, r3
10000eac:	4b55      	ldr	r3, [pc, #340]	; (10001004 <irq_add_shared_handler+0x1d4>)
10000eae:	2101      	movs	r1, #1
10000eb0:	3b04      	subs	r3, #4
10000eb2:	1b1b      	subs	r3, r3, r4
10000eb4:	051b      	lsls	r3, r3, #20
10000eb6:	0d5b      	lsrs	r3, r3, #21
10000eb8:	4313      	orrs	r3, r2
10000eba:	806b      	strh	r3, [r5, #2]
10000ebc:	4b52      	ldr	r3, [pc, #328]	; (10001008 <irq_add_shared_handler+0x1d8>)
10000ebe:	71ef      	strb	r7, [r5, #7]
10000ec0:	80ab      	strh	r3, [r5, #4]
10000ec2:	23ff      	movs	r3, #255	; 0xff
10000ec4:	71ab      	strb	r3, [r5, #6]
10000ec6:	9b02      	ldr	r3, [sp, #8]
10000ec8:	60ab      	str	r3, [r5, #8]
10000eca:	464b      	mov	r3, r9
10000ecc:	430b      	orrs	r3, r1
10000ece:	0019      	movs	r1, r3
10000ed0:	4b48      	ldr	r3, [pc, #288]	; (10000ff4 <irq_add_shared_handler+0x1c4>)
10000ed2:	9a01      	ldr	r2, [sp, #4]
10000ed4:	689b      	ldr	r3, [r3, #8]
10000ed6:	5099      	str	r1, [r3, r2]
10000ed8:	f3bf 8f5f 	dmb	sy
10000edc:	f3bf 8f5f 	dmb	sy
10000ee0:	2200      	movs	r2, #0
10000ee2:	4b41      	ldr	r3, [pc, #260]	; (10000fe8 <irq_add_shared_handler+0x1b8>)
10000ee4:	601a      	str	r2, [r3, #0]
10000ee6:	f38b 8810 	msr	PRIMASK, fp
10000eea:	b005      	add	sp, #20
10000eec:	bcf0      	pop	{r4, r5, r6, r7}
10000eee:	46bb      	mov	fp, r7
10000ef0:	46b2      	mov	sl, r6
10000ef2:	46a9      	mov	r9, r5
10000ef4:	46a0      	mov	r8, r4
10000ef6:	bdf0      	pop	{r4, r5, r6, r7, pc}
10000ef8:	2001      	movs	r0, #1
10000efa:	000a      	movs	r2, r1
10000efc:	4382      	bics	r2, r0
10000efe:	79d3      	ldrb	r3, [r2, #7]
10000f00:	42bb      	cmp	r3, r7
10000f02:	d82f      	bhi.n	10000f64 <irq_add_shared_handler+0x134>
10000f04:	4645      	mov	r5, r8
10000f06:	464e      	mov	r6, r9
10000f08:	0013      	movs	r3, r2
10000f0a:	4940      	ldr	r1, [pc, #256]	; (1000100c <irq_add_shared_handler+0x1dc>)
10000f0c:	1b1b      	subs	r3, r3, r4
10000f0e:	415b      	adcs	r3, r3
10000f10:	4359      	muls	r1, r3
10000f12:	0d09      	lsrs	r1, r1, #20
10000f14:	4b3a      	ldr	r3, [pc, #232]	; (10001000 <irq_add_shared_handler+0x1d0>)
10000f16:	5363      	strh	r3, [r4, r5]
10000f18:	4b3a      	ldr	r3, [pc, #232]	; (10001004 <irq_add_shared_handler+0x1d4>)
10000f1a:	3502      	adds	r5, #2
10000f1c:	1965      	adds	r5, r4, r5
10000f1e:	3b04      	subs	r3, #4
10000f20:	1b5b      	subs	r3, r3, r5
10000f22:	051b      	lsls	r3, r3, #20
10000f24:	4d35      	ldr	r5, [pc, #212]	; (10000ffc <irq_add_shared_handler+0x1cc>)
10000f26:	0d5b      	lsrs	r3, r3, #21
10000f28:	432b      	orrs	r3, r5
10000f2a:	8073      	strh	r3, [r6, #2]
10000f2c:	2604      	movs	r6, #4
10000f2e:	46b4      	mov	ip, r6
10000f30:	44e0      	add	r8, ip
10000f32:	4444      	add	r4, r8
10000f34:	1f13      	subs	r3, r2, #4
10000f36:	1b1b      	subs	r3, r3, r4
10000f38:	464c      	mov	r4, r9
10000f3a:	71a1      	strb	r1, [r4, #6]
10000f3c:	9902      	ldr	r1, [sp, #8]
10000f3e:	051b      	lsls	r3, r3, #20
10000f40:	60a1      	str	r1, [r4, #8]
10000f42:	4649      	mov	r1, r9
10000f44:	0d5b      	lsrs	r3, r3, #21
10000f46:	432b      	orrs	r3, r5
10000f48:	80a3      	strh	r3, [r4, #4]
10000f4a:	4b31      	ldr	r3, [pc, #196]	; (10001010 <irq_add_shared_handler+0x1e0>)
10000f4c:	71e7      	strb	r7, [r4, #7]
10000f4e:	4301      	orrs	r1, r0
10000f50:	6013      	str	r3, [r2, #0]
10000f52:	e7bd      	b.n	10000ed0 <irq_add_shared_handler+0xa0>
10000f54:	0058      	lsls	r0, r3, #1
10000f56:	18c0      	adds	r0, r0, r3
10000f58:	0080      	lsls	r0, r0, #2
10000f5a:	1820      	adds	r0, r4, r0
10000f5c:	79c6      	ldrb	r6, [r0, #7]
10000f5e:	42be      	cmp	r6, r7
10000f60:	d92c      	bls.n	10000fbc <irq_add_shared_handler+0x18c>
10000f62:	0002      	movs	r2, r0
10000f64:	2306      	movs	r3, #6
10000f66:	56d3      	ldrsb	r3, [r2, r3]
10000f68:	2b00      	cmp	r3, #0
10000f6a:	daf3      	bge.n	10000f54 <irq_add_shared_handler+0x124>
10000f6c:	1d10      	adds	r0, r2, #4
10000f6e:	4682      	mov	sl, r0
10000f70:	20bd      	movs	r0, #189	; 0xbd
10000f72:	0200      	lsls	r0, r0, #8
10000f74:	4680      	mov	r8, r0
10000f76:	2604      	movs	r6, #4
10000f78:	4276      	negs	r6, r6
10000f7a:	46b4      	mov	ip, r6
10000f7c:	44e1      	add	r9, ip
10000f7e:	4650      	mov	r0, sl
10000f80:	464e      	mov	r6, r9
10000f82:	1a36      	subs	r6, r6, r0
10000f84:	0530      	lsls	r0, r6, #20
10000f86:	0d40      	lsrs	r0, r0, #21
10000f88:	4682      	mov	sl, r0
10000f8a:	4656      	mov	r6, sl
10000f8c:	481b      	ldr	r0, [pc, #108]	; (10000ffc <irq_add_shared_handler+0x1cc>)
10000f8e:	7195      	strb	r5, [r2, #6]
10000f90:	4306      	orrs	r6, r0
10000f92:	8096      	strh	r6, [r2, #4]
10000f94:	9a03      	ldr	r2, [sp, #12]
10000f96:	4694      	mov	ip, r2
10000f98:	4465      	add	r5, ip
10000f9a:	4a1d      	ldr	r2, [pc, #116]	; (10001010 <irq_add_shared_handler+0x1e0>)
10000f9c:	00ad      	lsls	r5, r5, #2
10000f9e:	1964      	adds	r4, r4, r5
10000fa0:	6022      	str	r2, [r4, #0]
10000fa2:	4642      	mov	r2, r8
10000fa4:	71a3      	strb	r3, [r4, #6]
10000fa6:	9b02      	ldr	r3, [sp, #8]
10000fa8:	80a2      	strh	r2, [r4, #4]
10000faa:	71e7      	strb	r7, [r4, #7]
10000fac:	60a3      	str	r3, [r4, #8]
10000fae:	e78f      	b.n	10000ed0 <irq_add_shared_handler+0xa0>
10000fb0:	f001 f8fa 	bl	100021a8 <hard_assertion_failure>
10000fb4:	2500      	movs	r5, #0
10000fb6:	4653      	mov	r3, sl
10000fb8:	575d      	ldrsb	r5, [r3, r5]
10000fba:	e753      	b.n	10000e64 <irq_add_shared_handler+0x34>
10000fbc:	1d10      	adds	r0, r2, #4
10000fbe:	4682      	mov	sl, r0
10000fc0:	8890      	ldrh	r0, [r2, #4]
10000fc2:	0540      	lsls	r0, r0, #21
10000fc4:	1500      	asrs	r0, r0, #20
10000fc6:	4684      	mov	ip, r0
10000fc8:	4640      	mov	r0, r8
10000fca:	44d4      	add	ip, sl
10000fcc:	4666      	mov	r6, ip
10000fce:	3004      	adds	r0, #4
10000fd0:	1820      	adds	r0, r4, r0
10000fd2:	1a30      	subs	r0, r6, r0
10000fd4:	26e0      	movs	r6, #224	; 0xe0
10000fd6:	0500      	lsls	r0, r0, #20
10000fd8:	0d40      	lsrs	r0, r0, #21
10000fda:	0236      	lsls	r6, r6, #8
10000fdc:	4330      	orrs	r0, r6
10000fde:	4680      	mov	r8, r0
10000fe0:	e7c9      	b.n	10000f76 <irq_add_shared_handler+0x146>
10000fe2:	f001 f8e1 	bl	100021a8 <hard_assertion_failure>
10000fe6:	e756      	b.n	10000e96 <irq_add_shared_handler+0x66>
10000fe8:	d0000124 	.word	0xd0000124
10000fec:	20002c34 	.word	0x20002c34
10000ff0:	20001970 	.word	0x20001970
10000ff4:	e000ed00 	.word	0xe000ed00
10000ff8:	100001cd 	.word	0x100001cd
10000ffc:	ffffe000 	.word	0xffffe000
10001000:	ffffa100 	.word	0xffffa100
10001004:	200019a0 	.word	0x200019a0
10001008:	ffffbd00 	.word	0xffffbd00
1000100c:	0000aaaa 	.word	0x0000aaaa
10001010:	47804801 	.word	0x47804801

10001014 <irq_remove_handler>:
10001014:	b5f0      	push	{r4, r5, r6, r7, lr}
10001016:	46de      	mov	lr, fp
10001018:	4657      	mov	r7, sl
1000101a:	464e      	mov	r6, r9
1000101c:	4645      	mov	r5, r8
1000101e:	b5e0      	push	{r5, r6, r7, lr}
10001020:	000c      	movs	r4, r1
10001022:	b083      	sub	sp, #12
10001024:	f3ef 8a10 	mrs	sl, PRIMASK
10001028:	b672      	cpsid	i
1000102a:	4a5a      	ldr	r2, [pc, #360]	; (10001194 <irq_remove_handler+0x180>)
1000102c:	6813      	ldr	r3, [r2, #0]
1000102e:	2b00      	cmp	r3, #0
10001030:	d0fc      	beq.n	1000102c <irq_remove_handler+0x18>
10001032:	f3bf 8f5f 	dmb	sy
10001036:	2210      	movs	r2, #16
10001038:	4691      	mov	r9, r2
1000103a:	4481      	add	r9, r0
1000103c:	464a      	mov	r2, r9
1000103e:	4b56      	ldr	r3, [pc, #344]	; (10001198 <irq_remove_handler+0x184>)
10001040:	0096      	lsls	r6, r2, #2
10001042:	689b      	ldr	r3, [r3, #8]
10001044:	599d      	ldr	r5, [r3, r6]
10001046:	4b55      	ldr	r3, [pc, #340]	; (1000119c <irq_remove_handler+0x188>)
10001048:	4698      	mov	r8, r3
1000104a:	429d      	cmp	r5, r3
1000104c:	d005      	beq.n	1000105a <irq_remove_handler+0x46>
1000104e:	42a5      	cmp	r5, r4
10001050:	d016      	beq.n	10001080 <irq_remove_handler+0x6c>
10001052:	4f53      	ldr	r7, [pc, #332]	; (100011a0 <irq_remove_handler+0x18c>)
10001054:	1beb      	subs	r3, r5, r7
10001056:	2b2f      	cmp	r3, #47	; 0x2f
10001058:	d914      	bls.n	10001084 <irq_remove_handler+0x70>
1000105a:	4b4f      	ldr	r3, [pc, #316]	; (10001198 <irq_remove_handler+0x184>)
1000105c:	689b      	ldr	r3, [r3, #8]
1000105e:	519d      	str	r5, [r3, r6]
10001060:	f3bf 8f5f 	dmb	sy
10001064:	f3bf 8f5f 	dmb	sy
10001068:	2200      	movs	r2, #0
1000106a:	4b4a      	ldr	r3, [pc, #296]	; (10001194 <irq_remove_handler+0x180>)
1000106c:	601a      	str	r2, [r3, #0]
1000106e:	f38a 8810 	msr	PRIMASK, sl
10001072:	b003      	add	sp, #12
10001074:	bcf0      	pop	{r4, r5, r6, r7}
10001076:	46bb      	mov	fp, r7
10001078:	46b2      	mov	sl, r6
1000107a:	46a9      	mov	r9, r5
1000107c:	46a0      	mov	r8, r4
1000107e:	bdf0      	pop	{r4, r5, r6, r7, pc}
10001080:	001d      	movs	r5, r3
10001082:	e7ea      	b.n	1000105a <irq_remove_handler+0x46>
10001084:	2301      	movs	r3, #1
10001086:	4083      	lsls	r3, r0
10001088:	469b      	mov	fp, r3
1000108a:	465a      	mov	r2, fp
1000108c:	4b45      	ldr	r3, [pc, #276]	; (100011a4 <irq_remove_handler+0x190>)
1000108e:	681b      	ldr	r3, [r3, #0]
10001090:	401a      	ands	r2, r3
10001092:	9200      	str	r2, [sp, #0]
10001094:	465a      	mov	r2, fp
10001096:	4b44      	ldr	r3, [pc, #272]	; (100011a8 <irq_remove_handler+0x194>)
10001098:	601a      	str	r2, [r3, #0]
1000109a:	f3bf 8f5f 	dmb	sy
1000109e:	f7ff f8e2 	bl	10000266 <__get_current_exception>
100010a2:	9001      	str	r0, [sp, #4]
100010a4:	2800      	cmp	r0, #0
100010a6:	d003      	beq.n	100010b0 <irq_remove_handler+0x9c>
100010a8:	4581      	cmp	r9, r0
100010aa:	d001      	beq.n	100010b0 <irq_remove_handler+0x9c>
100010ac:	f001 f87c 	bl	100021a8 <hard_assertion_failure>
100010b0:	2301      	movs	r3, #1
100010b2:	002a      	movs	r2, r5
100010b4:	439a      	bics	r2, r3
100010b6:	6893      	ldr	r3, [r2, #8]
100010b8:	429c      	cmp	r4, r3
100010ba:	d108      	bne.n	100010ce <irq_remove_handler+0xba>
100010bc:	e05f      	b.n	1000117e <irq_remove_handler+0x16a>
100010be:	004b      	lsls	r3, r1, #1
100010c0:	185b      	adds	r3, r3, r1
100010c2:	009b      	lsls	r3, r3, #2
100010c4:	18fb      	adds	r3, r7, r3
100010c6:	6899      	ldr	r1, [r3, #8]
100010c8:	42a1      	cmp	r1, r4
100010ca:	d011      	beq.n	100010f0 <irq_remove_handler+0xdc>
100010cc:	001a      	movs	r2, r3
100010ce:	2106      	movs	r1, #6
100010d0:	5651      	ldrsb	r1, [r2, r1]
100010d2:	2900      	cmp	r1, #0
100010d4:	daf3      	bge.n	100010be <irq_remove_handler+0xaa>
100010d6:	9b00      	ldr	r3, [sp, #0]
100010d8:	2b00      	cmp	r3, #0
100010da:	d005      	beq.n	100010e8 <irq_remove_handler+0xd4>
100010dc:	465a      	mov	r2, fp
100010de:	4b33      	ldr	r3, [pc, #204]	; (100011ac <irq_remove_handler+0x198>)
100010e0:	601a      	str	r2, [r3, #0]
100010e2:	4b30      	ldr	r3, [pc, #192]	; (100011a4 <irq_remove_handler+0x190>)
100010e4:	601a      	str	r2, [r3, #0]
100010e6:	e7b8      	b.n	1000105a <irq_remove_handler+0x46>
100010e8:	465a      	mov	r2, fp
100010ea:	4b2f      	ldr	r3, [pc, #188]	; (100011a8 <irq_remove_handler+0x194>)
100010ec:	601a      	str	r2, [r3, #0]
100010ee:	e7b4      	b.n	1000105a <irq_remove_handler+0x46>
100010f0:	2106      	movs	r1, #6
100010f2:	5659      	ldrsb	r1, [r3, r1]
100010f4:	2900      	cmp	r1, #0
100010f6:	db21      	blt.n	1000113c <irq_remove_handler+0x128>
100010f8:	004a      	lsls	r2, r1, #1
100010fa:	1850      	adds	r0, r2, r1
100010fc:	0080      	lsls	r0, r0, #2
100010fe:	183c      	adds	r4, r7, r0
10001100:	4680      	mov	r8, r0
10001102:	68a0      	ldr	r0, [r4, #8]
10001104:	6098      	str	r0, [r3, #8]
10001106:	79e0      	ldrb	r0, [r4, #7]
10001108:	71d8      	strb	r0, [r3, #7]
1000110a:	2006      	movs	r0, #6
1000110c:	5620      	ldrsb	r0, [r4, r0]
1000110e:	7198      	strb	r0, [r3, #6]
10001110:	2800      	cmp	r0, #0
10001112:	db24      	blt.n	1000115e <irq_remove_handler+0x14a>
10001114:	88a4      	ldrh	r4, [r4, #4]
10001116:	1af8      	subs	r0, r7, r3
10001118:	0564      	lsls	r4, r4, #21
1000111a:	1524      	asrs	r4, r4, #20
1000111c:	4444      	add	r4, r8
1000111e:	1900      	adds	r0, r0, r4
10001120:	24e0      	movs	r4, #224	; 0xe0
10001122:	0500      	lsls	r0, r0, #20
10001124:	0d40      	lsrs	r0, r0, #21
10001126:	0224      	lsls	r4, r4, #8
10001128:	4320      	orrs	r0, r4
1000112a:	8098      	strh	r0, [r3, #4]
1000112c:	1852      	adds	r2, r2, r1
1000112e:	4b20      	ldr	r3, [pc, #128]	; (100011b0 <irq_remove_handler+0x19c>)
10001130:	0092      	lsls	r2, r2, #2
10001132:	18bf      	adds	r7, r7, r2
10001134:	781a      	ldrb	r2, [r3, #0]
10001136:	7019      	strb	r1, [r3, #0]
10001138:	71ba      	strb	r2, [r7, #6]
1000113a:	e7cc      	b.n	100010d6 <irq_remove_handler+0xc2>
1000113c:	9901      	ldr	r1, [sp, #4]
1000113e:	2900      	cmp	r1, #0
10001140:	d110      	bne.n	10001164 <irq_remove_handler+0x150>
10001142:	31ff      	adds	r1, #255	; 0xff
10001144:	7191      	strb	r1, [r2, #6]
10001146:	491b      	ldr	r1, [pc, #108]	; (100011b4 <irq_remove_handler+0x1a0>)
10001148:	8091      	strh	r1, [r2, #4]
1000114a:	4919      	ldr	r1, [pc, #100]	; (100011b0 <irq_remove_handler+0x19c>)
1000114c:	780a      	ldrb	r2, [r1, #0]
1000114e:	719a      	strb	r2, [r3, #6]
10001150:	4a19      	ldr	r2, [pc, #100]	; (100011b8 <irq_remove_handler+0x1a4>)
10001152:	1bdb      	subs	r3, r3, r7
10001154:	415b      	adcs	r3, r3
10001156:	435a      	muls	r2, r3
10001158:	0d12      	lsrs	r2, r2, #20
1000115a:	700a      	strb	r2, [r1, #0]
1000115c:	e7bb      	b.n	100010d6 <irq_remove_handler+0xc2>
1000115e:	20bd      	movs	r0, #189	; 0xbd
10001160:	0200      	lsls	r0, r0, #8
10001162:	e7e2      	b.n	1000112a <irq_remove_handler+0x116>
10001164:	4a15      	ldr	r2, [pc, #84]	; (100011bc <irq_remove_handler+0x1a8>)
10001166:	4916      	ldr	r1, [pc, #88]	; (100011c0 <irq_remove_handler+0x1ac>)
10001168:	1ad2      	subs	r2, r2, r3
1000116a:	3a08      	subs	r2, #8
1000116c:	0250      	lsls	r0, r2, #9
1000116e:	0d40      	lsrs	r0, r0, #21
10001170:	4301      	orrs	r1, r0
10001172:	8099      	strh	r1, [r3, #4]
10001174:	4913      	ldr	r1, [pc, #76]	; (100011c4 <irq_remove_handler+0x1b0>)
10001176:	0852      	lsrs	r2, r2, #1
10001178:	430a      	orrs	r2, r1
1000117a:	80da      	strh	r2, [r3, #6]
1000117c:	e7ab      	b.n	100010d6 <irq_remove_handler+0xc2>
1000117e:	2106      	movs	r1, #6
10001180:	5651      	ldrsb	r1, [r2, r1]
10001182:	0013      	movs	r3, r2
10001184:	2900      	cmp	r1, #0
10001186:	dab7      	bge.n	100010f8 <irq_remove_handler+0xe4>
10001188:	9a01      	ldr	r2, [sp, #4]
1000118a:	2a00      	cmp	r2, #0
1000118c:	d1ea      	bne.n	10001164 <irq_remove_handler+0x150>
1000118e:	4645      	mov	r5, r8
10001190:	e7db      	b.n	1000114a <irq_remove_handler+0x136>
10001192:	46c0      	nop			; (mov r8, r8)
10001194:	d0000124 	.word	0xd0000124
10001198:	e000ed00 	.word	0xe000ed00
1000119c:	100001cd 	.word	0x100001cd
100011a0:	20001970 	.word	0x20001970
100011a4:	e000e100 	.word	0xe000e100
100011a8:	e000e180 	.word	0xe000e180
100011ac:	e000e280 	.word	0xe000e280
100011b0:	20002c34 	.word	0x20002c34
100011b4:	ffffbd00 	.word	0xffffbd00
100011b8:	0000aaaa 	.word	0x0000aaaa
100011bc:	200019aa 	.word	0x200019aa
100011c0:	fffff000 	.word	0xfffff000
100011c4:	fffff800 	.word	0xfffff800

100011c8 <irq_add_tail_to_free_list>:
100011c8:	b5f8      	push	{r3, r4, r5, r6, r7, lr}
100011ca:	2501      	movs	r5, #1
100011cc:	0004      	movs	r4, r0
100011ce:	4305      	orrs	r5, r0
100011d0:	f7ff f849 	bl	10000266 <__get_current_exception>
100011d4:	f3ef 8c10 	mrs	ip, PRIMASK
100011d8:	b672      	cpsid	i
100011da:	4a21      	ldr	r2, [pc, #132]	; (10001260 <irq_add_tail_to_free_list+0x98>)
100011dc:	6813      	ldr	r3, [r2, #0]
100011de:	2b00      	cmp	r3, #0
100011e0:	d0fc      	beq.n	100011dc <irq_add_tail_to_free_list+0x14>
100011e2:	f3bf 8f5f 	dmb	sy
100011e6:	4e1f      	ldr	r6, [pc, #124]	; (10001264 <irq_add_tail_to_free_list+0x9c>)
100011e8:	0021      	movs	r1, r4
100011ea:	68b7      	ldr	r7, [r6, #8]
100011ec:	4a1e      	ldr	r2, [pc, #120]	; (10001268 <irq_add_tail_to_free_list+0xa0>)
100011ee:	4b1f      	ldr	r3, [pc, #124]	; (1000126c <irq_add_tail_to_free_list+0xa4>)
100011f0:	1a89      	subs	r1, r1, r2
100011f2:	4149      	adcs	r1, r1
100011f4:	434b      	muls	r3, r1
100011f6:	0d1b      	lsrs	r3, r3, #20
100011f8:	b259      	sxtb	r1, r3
100011fa:	0083      	lsls	r3, r0, #2
100011fc:	58f8      	ldr	r0, [r7, r3]
100011fe:	42a8      	cmp	r0, r5
10001200:	d01c      	beq.n	1000123c <irq_add_tail_to_free_list+0x74>
10001202:	2306      	movs	r3, #6
10001204:	56d3      	ldrsb	r3, [r2, r3]
10001206:	428b      	cmp	r3, r1
10001208:	d01c      	beq.n	10001244 <irq_add_tail_to_free_list+0x7c>
1000120a:	2312      	movs	r3, #18
1000120c:	56d3      	ldrsb	r3, [r2, r3]
1000120e:	428b      	cmp	r3, r1
10001210:	d022      	beq.n	10001258 <irq_add_tail_to_free_list+0x90>
10001212:	231e      	movs	r3, #30
10001214:	56d3      	ldrsb	r3, [r2, r3]
10001216:	428b      	cmp	r3, r1
10001218:	d020      	beq.n	1000125c <irq_add_tail_to_free_list+0x94>
1000121a:	232a      	movs	r3, #42	; 0x2a
1000121c:	56d3      	ldrsb	r3, [r2, r3]
1000121e:	2003      	movs	r0, #3
10001220:	428b      	cmp	r3, r1
10001222:	d010      	beq.n	10001246 <irq_add_tail_to_free_list+0x7e>
10001224:	4b12      	ldr	r3, [pc, #72]	; (10001270 <irq_add_tail_to_free_list+0xa8>)
10001226:	781a      	ldrb	r2, [r3, #0]
10001228:	7019      	strb	r1, [r3, #0]
1000122a:	71a2      	strb	r2, [r4, #6]
1000122c:	f3bf 8f5f 	dmb	sy
10001230:	2200      	movs	r2, #0
10001232:	4b0b      	ldr	r3, [pc, #44]	; (10001260 <irq_add_tail_to_free_list+0x98>)
10001234:	601a      	str	r2, [r3, #0]
10001236:	f38c 8810 	msr	PRIMASK, ip
1000123a:	bdf8      	pop	{r3, r4, r5, r6, r7, pc}
1000123c:	68b2      	ldr	r2, [r6, #8]
1000123e:	480d      	ldr	r0, [pc, #52]	; (10001274 <irq_add_tail_to_free_list+0xac>)
10001240:	50d0      	str	r0, [r2, r3]
10001242:	e7ef      	b.n	10001224 <irq_add_tail_to_free_list+0x5c>
10001244:	2000      	movs	r0, #0
10001246:	0043      	lsls	r3, r0, #1
10001248:	181b      	adds	r3, r3, r0
1000124a:	009b      	lsls	r3, r3, #2
1000124c:	18d2      	adds	r2, r2, r3
1000124e:	23ff      	movs	r3, #255	; 0xff
10001250:	7193      	strb	r3, [r2, #6]
10001252:	4b09      	ldr	r3, [pc, #36]	; (10001278 <irq_add_tail_to_free_list+0xb0>)
10001254:	8093      	strh	r3, [r2, #4]
10001256:	e7e5      	b.n	10001224 <irq_add_tail_to_free_list+0x5c>
10001258:	2001      	movs	r0, #1
1000125a:	e7f4      	b.n	10001246 <irq_add_tail_to_free_list+0x7e>
1000125c:	2002      	movs	r0, #2
1000125e:	e7f2      	b.n	10001246 <irq_add_tail_to_free_list+0x7e>
10001260:	d0000124 	.word	0xd0000124
10001264:	e000ed00 	.word	0xe000ed00
10001268:	20001970 	.word	0x20001970
1000126c:	0000aaaa 	.word	0x0000aaaa
10001270:	20002c34 	.word	0x20002c34
10001274:	100001cd 	.word	0x100001cd
10001278:	ffffbd00 	.word	0xffffbd00

1000127c <irq_init_priorities>:
1000127c:	4b05      	ldr	r3, [pc, #20]	; (10001294 <irq_init_priorities+0x18>)
1000127e:	4a06      	ldr	r2, [pc, #24]	; (10001298 <irq_init_priorities+0x1c>)
10001280:	6013      	str	r3, [r2, #0]
10001282:	4a06      	ldr	r2, [pc, #24]	; (1000129c <irq_init_priorities+0x20>)
10001284:	6013      	str	r3, [r2, #0]
10001286:	6053      	str	r3, [r2, #4]
10001288:	6093      	str	r3, [r2, #8]
1000128a:	60d3      	str	r3, [r2, #12]
1000128c:	6113      	str	r3, [r2, #16]
1000128e:	6153      	str	r3, [r2, #20]
10001290:	6193      	str	r3, [r2, #24]
10001292:	4770      	bx	lr
10001294:	80808080 	.word	0x80808080
10001298:	e000e400 	.word	0xe000e400
1000129c:	e000e404 	.word	0xe000e404

100012a0 <user_irq_claim_unused>:
100012a0:	23d0      	movs	r3, #208	; 0xd0
100012a2:	b500      	push	{lr}
100012a4:	061b      	lsls	r3, r3, #24
100012a6:	681b      	ldr	r3, [r3, #0]
100012a8:	0001      	movs	r1, r0
100012aa:	4807      	ldr	r0, [pc, #28]	; (100012c8 <user_irq_claim_unused+0x28>)
100012ac:	b083      	sub	sp, #12
100012ae:	18c0      	adds	r0, r0, r3
100012b0:	4b06      	ldr	r3, [pc, #24]	; (100012cc <user_irq_claim_unused+0x2c>)
100012b2:	2200      	movs	r2, #0
100012b4:	9300      	str	r3, [sp, #0]
100012b6:	2305      	movs	r3, #5
100012b8:	f7ff fcd8 	bl	10000c6c <hw_claim_unused_from_range>
100012bc:	2800      	cmp	r0, #0
100012be:	db01      	blt.n	100012c4 <user_irq_claim_unused+0x24>
100012c0:	231f      	movs	r3, #31
100012c2:	1a18      	subs	r0, r3, r0
100012c4:	b003      	add	sp, #12
100012c6:	bd00      	pop	{pc}
100012c8:	20002c2c 	.word	0x20002c2c
100012cc:	100078a0 	.word	0x100078a0

100012d0 <lock_init>:
100012d0:	4b02      	ldr	r3, [pc, #8]	; (100012dc <lock_init+0xc>)
100012d2:	469c      	mov	ip, r3
100012d4:	4461      	add	r1, ip
100012d6:	0089      	lsls	r1, r1, #2
100012d8:	6001      	str	r1, [r0, #0]
100012da:	4770      	bx	lr
100012dc:	34000040 	.word	0x34000040

100012e0 <timer_pool_entry_comparator>:
100012e0:	6883      	ldr	r3, [r0, #8]
100012e2:	480b      	ldr	r0, [pc, #44]	; (10001310 <timer_pool_entry_comparator+0x30>)
100012e4:	b510      	push	{r4, lr}
100012e6:	4684      	mov	ip, r0
100012e8:	4461      	add	r1, ip
100012ea:	4462      	add	r2, ip
100012ec:	0109      	lsls	r1, r1, #4
100012ee:	0112      	lsls	r2, r2, #4
100012f0:	189a      	adds	r2, r3, r2
100012f2:	1859      	adds	r1, r3, r1
100012f4:	6854      	ldr	r4, [r2, #4]
100012f6:	684b      	ldr	r3, [r1, #4]
100012f8:	2001      	movs	r0, #1
100012fa:	429c      	cmp	r4, r3
100012fc:	d801      	bhi.n	10001302 <timer_pool_entry_comparator+0x22>
100012fe:	d002      	beq.n	10001306 <timer_pool_entry_comparator+0x26>
10001300:	2000      	movs	r0, #0
10001302:	b2c0      	uxtb	r0, r0
10001304:	bd10      	pop	{r4, pc}
10001306:	6812      	ldr	r2, [r2, #0]
10001308:	680b      	ldr	r3, [r1, #0]
1000130a:	429a      	cmp	r2, r3
1000130c:	d8f9      	bhi.n	10001302 <timer_pool_entry_comparator+0x22>
1000130e:	e7f7      	b.n	10001300 <timer_pool_entry_comparator+0x20>
10001310:	0fffffff 	.word	0x0fffffff

10001314 <sleep_until_callback>:
10001314:	4b0a      	ldr	r3, [pc, #40]	; (10001340 <sleep_until_callback+0x2c>)
10001316:	6819      	ldr	r1, [r3, #0]
10001318:	f3ef 8010 	mrs	r0, PRIMASK
1000131c:	b672      	cpsid	i
1000131e:	680a      	ldr	r2, [r1, #0]
10001320:	2a00      	cmp	r2, #0
10001322:	d0fc      	beq.n	1000131e <sleep_until_callback+0xa>
10001324:	f3bf 8f5f 	dmb	sy
10001328:	681b      	ldr	r3, [r3, #0]
1000132a:	f3bf 8f5f 	dmb	sy
1000132e:	2200      	movs	r2, #0
10001330:	601a      	str	r2, [r3, #0]
10001332:	f380 8810 	msr	PRIMASK, r0
10001336:	bf40      	sev
10001338:	2000      	movs	r0, #0
1000133a:	2100      	movs	r1, #0
1000133c:	4770      	bx	lr
1000133e:	46c0      	nop			; (mov r8, r8)
10001340:	20002bfc 	.word	0x20002bfc

10001344 <add_alarm_under_lock.isra.0>:
10001344:	b5f8      	push	{r3, r4, r5, r6, r7, lr}
10001346:	4657      	mov	r7, sl
10001348:	464e      	mov	r6, r9
1000134a:	4645      	mov	r5, r8
1000134c:	46de      	mov	lr, fp
1000134e:	b5e0      	push	{r5, r6, r7, lr}
10001350:	4699      	mov	r9, r3
10001352:	ab0c      	add	r3, sp, #48	; 0x30
10001354:	781c      	ldrb	r4, [r3, #0]
10001356:	ab0d      	add	r3, sp, #52	; 0x34
10001358:	781b      	ldrb	r3, [r3, #0]
1000135a:	0006      	movs	r6, r0
1000135c:	4690      	mov	r8, r2
1000135e:	469a      	mov	sl, r3
10001360:	6807      	ldr	r7, [r0, #0]
10001362:	2c00      	cmp	r4, #0
10001364:	d111      	bne.n	1000138a <add_alarm_under_lock.isra.0+0x46>
10001366:	7bbc      	ldrb	r4, [r7, #14]
10001368:	2c00      	cmp	r4, #0
1000136a:	d042      	beq.n	100013f2 <add_alarm_under_lock.isra.0+0xae>
1000136c:	0065      	lsls	r5, r4, #1
1000136e:	683b      	ldr	r3, [r7, #0]
10001370:	192d      	adds	r5, r5, r4
10001372:	3d03      	subs	r5, #3
10001374:	1959      	adds	r1, r3, r5
10001376:	784b      	ldrb	r3, [r1, #1]
10001378:	73bb      	strb	r3, [r7, #14]
1000137a:	2b00      	cmp	r3, #0
1000137c:	d100      	bne.n	10001380 <add_alarm_under_lock.isra.0+0x3c>
1000137e:	73fb      	strb	r3, [r7, #15]
10001380:	2300      	movs	r3, #0
10001382:	708b      	strb	r3, [r1, #2]
10001384:	704b      	strb	r3, [r1, #1]
10001386:	700b      	strb	r3, [r1, #0]
10001388:	e004      	b.n	10001394 <add_alarm_under_lock.isra.0+0x50>
1000138a:	0065      	lsls	r5, r4, #1
1000138c:	683b      	ldr	r3, [r7, #0]
1000138e:	192d      	adds	r5, r5, r4
10001390:	3d03      	subs	r5, #3
10001392:	1959      	adds	r1, r3, r5
10001394:	68b2      	ldr	r2, [r6, #8]
10001396:	4b2a      	ldr	r3, [pc, #168]	; (10001440 <add_alarm_under_lock.isra.0+0xfc>)
10001398:	4694      	mov	ip, r2
1000139a:	4642      	mov	r2, r8
1000139c:	18e3      	adds	r3, r4, r3
1000139e:	011b      	lsls	r3, r3, #4
100013a0:	4463      	add	r3, ip
100013a2:	601a      	str	r2, [r3, #0]
100013a4:	464a      	mov	r2, r9
100013a6:	605a      	str	r2, [r3, #4]
100013a8:	9a0a      	ldr	r2, [sp, #40]	; 0x28
100013aa:	609a      	str	r2, [r3, #8]
100013ac:	9a0b      	ldr	r2, [sp, #44]	; 0x2c
100013ae:	60da      	str	r2, [r3, #12]
100013b0:	2300      	movs	r3, #0
100013b2:	708b      	strb	r3, [r1, #2]
100013b4:	704b      	strb	r3, [r1, #1]
100013b6:	700b      	strb	r3, [r1, #0]
100013b8:	7b7b      	ldrb	r3, [r7, #13]
100013ba:	469b      	mov	fp, r3
100013bc:	2b00      	cmp	r3, #0
100013be:	d02b      	beq.n	10001418 <add_alarm_under_lock.isra.0+0xd4>
100013c0:	0022      	movs	r2, r4
100013c2:	4659      	mov	r1, fp
100013c4:	68b8      	ldr	r0, [r7, #8]
100013c6:	687b      	ldr	r3, [r7, #4]
100013c8:	4798      	blx	r3
100013ca:	683a      	ldr	r2, [r7, #0]
100013cc:	2800      	cmp	r0, #0
100013ce:	d016      	beq.n	100013fe <add_alarm_under_lock.isra.0+0xba>
100013d0:	465b      	mov	r3, fp
100013d2:	4658      	mov	r0, fp
100013d4:	005b      	lsls	r3, r3, #1
100013d6:	445b      	add	r3, fp
100013d8:	1955      	adds	r5, r2, r5
100013da:	3b03      	subs	r3, #3
100013dc:	70a8      	strb	r0, [r5, #2]
100013de:	18d1      	adds	r1, r2, r3
100013e0:	5cd3      	ldrb	r3, [r2, r3]
100013e2:	2b00      	cmp	r3, #0
100013e4:	d000      	beq.n	100013e8 <add_alarm_under_lock.isra.0+0xa4>
100013e6:	706b      	strb	r3, [r5, #1]
100013e8:	465b      	mov	r3, fp
100013ea:	700c      	strb	r4, [r1, #0]
100013ec:	737b      	strb	r3, [r7, #13]
100013ee:	45a3      	cmp	fp, r4
100013f0:	d013      	beq.n	1000141a <add_alarm_under_lock.isra.0+0xd6>
100013f2:	bcf0      	pop	{r4, r5, r6, r7}
100013f4:	46bb      	mov	fp, r7
100013f6:	46b2      	mov	sl, r6
100013f8:	46a9      	mov	r9, r5
100013fa:	46a0      	mov	r8, r4
100013fc:	bdf8      	pop	{r3, r4, r5, r6, r7, pc}
100013fe:	465b      	mov	r3, fp
10001400:	005b      	lsls	r3, r3, #1
10001402:	445b      	add	r3, fp
10001404:	3b03      	subs	r3, #3
10001406:	18d3      	adds	r3, r2, r3
10001408:	709c      	strb	r4, [r3, #2]
1000140a:	1951      	adds	r1, r2, r5
1000140c:	5d52      	ldrb	r2, [r2, r5]
1000140e:	2a00      	cmp	r2, #0
10001410:	d000      	beq.n	10001414 <add_alarm_under_lock.isra.0+0xd0>
10001412:	705a      	strb	r2, [r3, #1]
10001414:	465b      	mov	r3, fp
10001416:	700b      	strb	r3, [r1, #0]
10001418:	737c      	strb	r4, [r7, #13]
1000141a:	4642      	mov	r2, r8
1000141c:	464b      	mov	r3, r9
1000141e:	7d30      	ldrb	r0, [r6, #20]
10001420:	f000 fba4 	bl	10001b6c <hardware_alarm_set_target>
10001424:	1e05      	subs	r5, r0, #0
10001426:	d006      	beq.n	10001436 <add_alarm_under_lock.isra.0+0xf2>
10001428:	4653      	mov	r3, sl
1000142a:	2b00      	cmp	r3, #0
1000142c:	d103      	bne.n	10001436 <add_alarm_under_lock.isra.0+0xf2>
1000142e:	0021      	movs	r1, r4
10001430:	6830      	ldr	r0, [r6, #0]
10001432:	f000 fdbd 	bl	10001fb0 <ph_remove_and_free_node>
10001436:	9b0e      	ldr	r3, [sp, #56]	; 0x38
10001438:	2b00      	cmp	r3, #0
1000143a:	d0da      	beq.n	100013f2 <add_alarm_under_lock.isra.0+0xae>
1000143c:	701d      	strb	r5, [r3, #0]
1000143e:	e7d8      	b.n	100013f2 <add_alarm_under_lock.isra.0+0xae>
10001440:	0fffffff 	.word	0x0fffffff

10001444 <alarm_pool_alarm_callback>:
10001444:	b5f0      	push	{r4, r5, r6, r7, lr}
10001446:	46de      	mov	lr, fp
10001448:	464e      	mov	r6, r9
1000144a:	4657      	mov	r7, sl
1000144c:	4645      	mov	r5, r8
1000144e:	2300      	movs	r3, #0
10001450:	b5e0      	push	{r5, r6, r7, lr}
10001452:	b08d      	sub	sp, #52	; 0x34
10001454:	930a      	str	r3, [sp, #40]	; 0x28
10001456:	4b6b      	ldr	r3, [pc, #428]	; (10001604 <alarm_pool_alarm_callback+0x1c0>)
10001458:	0082      	lsls	r2, r0, #2
1000145a:	58d3      	ldr	r3, [r2, r3]
1000145c:	900b      	str	r0, [sp, #44]	; 0x2c
1000145e:	4699      	mov	r9, r3
10001460:	2300      	movs	r3, #0
10001462:	469b      	mov	fp, r3
10001464:	464b      	mov	r3, r9
10001466:	9307      	str	r3, [sp, #28]
10001468:	f000 fb30 	bl	10001acc <time_us_64>
1000146c:	9c07      	ldr	r4, [sp, #28]
1000146e:	0006      	movs	r6, r0
10001470:	000f      	movs	r7, r1
10001472:	6862      	ldr	r2, [r4, #4]
10001474:	f3ef 8510 	mrs	r5, PRIMASK
10001478:	b672      	cpsid	i
1000147a:	6813      	ldr	r3, [r2, #0]
1000147c:	2b00      	cmp	r3, #0
1000147e:	d0fc      	beq.n	1000147a <alarm_pool_alarm_callback+0x36>
10001480:	0022      	movs	r2, r4
10001482:	9407      	str	r4, [sp, #28]
10001484:	f3bf 8f5f 	dmb	sy
10001488:	6824      	ldr	r4, [r4, #0]
1000148a:	7b63      	ldrb	r3, [r4, #13]
1000148c:	4699      	mov	r9, r3
1000148e:	2b00      	cmp	r3, #0
10001490:	d067      	beq.n	10001562 <alarm_pool_alarm_callback+0x11e>
10001492:	6892      	ldr	r2, [r2, #8]
10001494:	4b5c      	ldr	r3, [pc, #368]	; (10001608 <alarm_pool_alarm_callback+0x1c4>)
10001496:	4690      	mov	r8, r2
10001498:	444b      	add	r3, r9
1000149a:	011b      	lsls	r3, r3, #4
1000149c:	4498      	add	r8, r3
1000149e:	4643      	mov	r3, r8
100014a0:	681a      	ldr	r2, [r3, #0]
100014a2:	685b      	ldr	r3, [r3, #4]
100014a4:	0010      	movs	r0, r2
100014a6:	0019      	movs	r1, r3
100014a8:	1b80      	subs	r0, r0, r6
100014aa:	41b9      	sbcs	r1, r7
100014ac:	2900      	cmp	r1, #0
100014ae:	dd5f      	ble.n	10001570 <alarm_pool_alarm_callback+0x12c>
100014b0:	980b      	ldr	r0, [sp, #44]	; 0x2c
100014b2:	f000 fb5b 	bl	10001b6c <hardware_alarm_set_target>
100014b6:	2300      	movs	r3, #0
100014b8:	2600      	movs	r6, #0
100014ba:	4698      	mov	r8, r3
100014bc:	2700      	movs	r7, #0
100014be:	469a      	mov	sl, r3
100014c0:	9c07      	ldr	r4, [sp, #28]
100014c2:	6863      	ldr	r3, [r4, #4]
100014c4:	f3bf 8f5f 	dmb	sy
100014c8:	465a      	mov	r2, fp
100014ca:	601a      	str	r2, [r3, #0]
100014cc:	f385 8810 	msr	PRIMASK, r5
100014d0:	4653      	mov	r3, sl
100014d2:	2b00      	cmp	r3, #0
100014d4:	d108      	bne.n	100014e8 <alarm_pool_alarm_callback+0xa4>
100014d6:	2800      	cmp	r0, #0
100014d8:	d1c6      	bne.n	10001468 <alarm_pool_alarm_callback+0x24>
100014da:	b00d      	add	sp, #52	; 0x34
100014dc:	bcf0      	pop	{r4, r5, r6, r7}
100014de:	46bb      	mov	fp, r7
100014e0:	46b2      	mov	sl, r6
100014e2:	46a9      	mov	r9, r5
100014e4:	46a0      	mov	r8, r4
100014e6:	bdf0      	pop	{r4, r5, r6, r7, pc}
100014e8:	9b0a      	ldr	r3, [sp, #40]	; 0x28
100014ea:	4641      	mov	r1, r8
100014ec:	0218      	lsls	r0, r3, #8
100014ee:	464b      	mov	r3, r9
100014f0:	4318      	orrs	r0, r3
100014f2:	47d0      	blx	sl
100014f4:	9008      	str	r0, [sp, #32]
100014f6:	9109      	str	r1, [sp, #36]	; 0x24
100014f8:	6862      	ldr	r2, [r4, #4]
100014fa:	f3ef 8510 	mrs	r5, PRIMASK
100014fe:	b672      	cpsid	i
10001500:	6813      	ldr	r3, [r2, #0]
10001502:	2b00      	cmp	r3, #0
10001504:	d0fc      	beq.n	10001500 <alarm_pool_alarm_callback+0xbc>
10001506:	9407      	str	r4, [sp, #28]
10001508:	f3bf 8f5f 	dmb	sy
1000150c:	9908      	ldr	r1, [sp, #32]
1000150e:	9a09      	ldr	r2, [sp, #36]	; 0x24
10001510:	2a00      	cmp	r2, #0
10001512:	db48      	blt.n	100015a6 <alarm_pool_alarm_callback+0x162>
10001514:	4311      	orrs	r1, r2
10001516:	d003      	beq.n	10001520 <alarm_pool_alarm_callback+0xdc>
10001518:	9b07      	ldr	r3, [sp, #28]
1000151a:	691b      	ldr	r3, [r3, #16]
1000151c:	2b00      	cmp	r3, #0
1000151e:	d15d      	bne.n	100015dc <alarm_pool_alarm_callback+0x198>
10001520:	9b07      	ldr	r3, [sp, #28]
10001522:	681b      	ldr	r3, [r3, #0]
10001524:	7bd9      	ldrb	r1, [r3, #15]
10001526:	2900      	cmp	r1, #0
10001528:	d007      	beq.n	1000153a <alarm_pool_alarm_callback+0xf6>
1000152a:	004a      	lsls	r2, r1, #1
1000152c:	1852      	adds	r2, r2, r1
1000152e:	6819      	ldr	r1, [r3, #0]
10001530:	468c      	mov	ip, r1
10001532:	4649      	mov	r1, r9
10001534:	4462      	add	r2, ip
10001536:	3a03      	subs	r2, #3
10001538:	7051      	strb	r1, [r2, #1]
1000153a:	464a      	mov	r2, r9
1000153c:	73da      	strb	r2, [r3, #15]
1000153e:	464b      	mov	r3, r9
10001540:	9a07      	ldr	r2, [sp, #28]
10001542:	3b01      	subs	r3, #1
10001544:	68d1      	ldr	r1, [r2, #12]
10001546:	5cca      	ldrb	r2, [r1, r3]
10001548:	3201      	adds	r2, #1
1000154a:	54ca      	strb	r2, [r1, r3]
1000154c:	465b      	mov	r3, fp
1000154e:	9a07      	ldr	r2, [sp, #28]
10001550:	6113      	str	r3, [r2, #16]
10001552:	6853      	ldr	r3, [r2, #4]
10001554:	f3bf 8f5f 	dmb	sy
10001558:	465a      	mov	r2, fp
1000155a:	601a      	str	r2, [r3, #0]
1000155c:	f385 8810 	msr	PRIMASK, r5
10001560:	e782      	b.n	10001468 <alarm_pool_alarm_callback+0x24>
10001562:	2300      	movs	r3, #0
10001564:	2600      	movs	r6, #0
10001566:	4698      	mov	r8, r3
10001568:	2700      	movs	r7, #0
1000156a:	469a      	mov	sl, r3
1000156c:	2000      	movs	r0, #0
1000156e:	e7a7      	b.n	100014c0 <alarm_pool_alarm_callback+0x7c>
10001570:	2900      	cmp	r1, #0
10001572:	d101      	bne.n	10001578 <alarm_pool_alarm_callback+0x134>
10001574:	2800      	cmp	r0, #0
10001576:	d19b      	bne.n	100014b0 <alarm_pool_alarm_callback+0x6c>
10001578:	2100      	movs	r1, #0
1000157a:	0020      	movs	r0, r4
1000157c:	f000 fc9a 	bl	10001eb4 <ph_remove_head>
10001580:	4643      	mov	r3, r8
10001582:	681e      	ldr	r6, [r3, #0]
10001584:	685f      	ldr	r7, [r3, #4]
10001586:	689b      	ldr	r3, [r3, #8]
10001588:	9a07      	ldr	r2, [sp, #28]
1000158a:	469a      	mov	sl, r3
1000158c:	4643      	mov	r3, r8
1000158e:	68db      	ldr	r3, [r3, #12]
10001590:	4698      	mov	r8, r3
10001592:	68d3      	ldr	r3, [r2, #12]
10001594:	444b      	add	r3, r9
10001596:	3b01      	subs	r3, #1
10001598:	781b      	ldrb	r3, [r3, #0]
1000159a:	930a      	str	r3, [sp, #40]	; 0x28
1000159c:	021b      	lsls	r3, r3, #8
1000159e:	4303      	orrs	r3, r0
100015a0:	6113      	str	r3, [r2, #16]
100015a2:	2000      	movs	r0, #0
100015a4:	e78c      	b.n	100014c0 <alarm_pool_alarm_callback+0x7c>
100015a6:	6923      	ldr	r3, [r4, #16]
100015a8:	2b00      	cmp	r3, #0
100015aa:	d0b9      	beq.n	10001520 <alarm_pool_alarm_callback+0xdc>
100015ac:	0033      	movs	r3, r6
100015ae:	003c      	movs	r4, r7
100015b0:	1a5b      	subs	r3, r3, r1
100015b2:	4194      	sbcs	r4, r2
100015b4:	001a      	movs	r2, r3
100015b6:	0023      	movs	r3, r4
100015b8:	42a7      	cmp	r7, r4
100015ba:	d819      	bhi.n	100015f0 <alarm_pool_alarm_callback+0x1ac>
100015bc:	429f      	cmp	r7, r3
100015be:	d01b      	beq.n	100015f8 <alarm_pool_alarm_callback+0x1b4>
100015c0:	4659      	mov	r1, fp
100015c2:	9104      	str	r1, [sp, #16]
100015c4:	2101      	movs	r1, #1
100015c6:	9103      	str	r1, [sp, #12]
100015c8:	4649      	mov	r1, r9
100015ca:	9102      	str	r1, [sp, #8]
100015cc:	4641      	mov	r1, r8
100015ce:	9101      	str	r1, [sp, #4]
100015d0:	4651      	mov	r1, sl
100015d2:	9807      	ldr	r0, [sp, #28]
100015d4:	9100      	str	r1, [sp, #0]
100015d6:	f7ff feb5 	bl	10001344 <add_alarm_under_lock.isra.0>
100015da:	e7b7      	b.n	1000154c <alarm_pool_alarm_callback+0x108>
100015dc:	f000 fa76 	bl	10001acc <time_us_64>
100015e0:	9a08      	ldr	r2, [sp, #32]
100015e2:	9b09      	ldr	r3, [sp, #36]	; 0x24
100015e4:	0006      	movs	r6, r0
100015e6:	000f      	movs	r7, r1
100015e8:	1992      	adds	r2, r2, r6
100015ea:	417b      	adcs	r3, r7
100015ec:	4299      	cmp	r1, r3
100015ee:	d9e5      	bls.n	100015bc <alarm_pool_alarm_callback+0x178>
100015f0:	2201      	movs	r2, #1
100015f2:	4252      	negs	r2, r2
100015f4:	17d3      	asrs	r3, r2, #31
100015f6:	e7e3      	b.n	100015c0 <alarm_pool_alarm_callback+0x17c>
100015f8:	4296      	cmp	r6, r2
100015fa:	d9e1      	bls.n	100015c0 <alarm_pool_alarm_callback+0x17c>
100015fc:	2201      	movs	r2, #1
100015fe:	4252      	negs	r2, r2
10001600:	17d3      	asrs	r3, r2, #31
10001602:	e7dd      	b.n	100015c0 <alarm_pool_alarm_callback+0x17c>
10001604:	20002bd8 	.word	0x20002bd8
10001608:	0fffffff 	.word	0x0fffffff

1000160c <alarm_pool_add_alarm_at.constprop.0>:
1000160c:	b5f8      	push	{r3, r4, r5, r6, r7, lr}
1000160e:	4657      	mov	r7, sl
10001610:	464e      	mov	r6, r9
10001612:	4645      	mov	r5, r8
10001614:	46de      	mov	lr, fp
10001616:	b5e0      	push	{r5, r6, r7, lr}
10001618:	4d40      	ldr	r5, [pc, #256]	; (1000171c <alarm_pool_add_alarm_at.constprop.0+0x110>)
1000161a:	4681      	mov	r9, r0
1000161c:	468a      	mov	sl, r1
1000161e:	686a      	ldr	r2, [r5, #4]
10001620:	f3ef 8810 	mrs	r8, PRIMASK
10001624:	b672      	cpsid	i
10001626:	6813      	ldr	r3, [r2, #0]
10001628:	2b00      	cmp	r3, #0
1000162a:	d0fc      	beq.n	10001626 <alarm_pool_add_alarm_at.constprop.0+0x1a>
1000162c:	f3bf 8f5f 	dmb	sy
10001630:	682e      	ldr	r6, [r5, #0]
10001632:	7bb4      	ldrb	r4, [r6, #14]
10001634:	2c00      	cmp	r4, #0
10001636:	d039      	beq.n	100016ac <alarm_pool_add_alarm_at.constprop.0+0xa0>
10001638:	0067      	lsls	r7, r4, #1
1000163a:	6833      	ldr	r3, [r6, #0]
1000163c:	193f      	adds	r7, r7, r4
1000163e:	3f03      	subs	r7, #3
10001640:	19db      	adds	r3, r3, r7
10001642:	785a      	ldrb	r2, [r3, #1]
10001644:	73b2      	strb	r2, [r6, #14]
10001646:	2a00      	cmp	r2, #0
10001648:	d100      	bne.n	1000164c <alarm_pool_add_alarm_at.constprop.0+0x40>
1000164a:	73f2      	strb	r2, [r6, #15]
1000164c:	68a9      	ldr	r1, [r5, #8]
1000164e:	4a34      	ldr	r2, [pc, #208]	; (10001720 <alarm_pool_add_alarm_at.constprop.0+0x114>)
10001650:	468c      	mov	ip, r1
10001652:	4649      	mov	r1, r9
10001654:	18a2      	adds	r2, r4, r2
10001656:	0112      	lsls	r2, r2, #4
10001658:	4462      	add	r2, ip
1000165a:	6011      	str	r1, [r2, #0]
1000165c:	4651      	mov	r1, sl
1000165e:	6051      	str	r1, [r2, #4]
10001660:	4930      	ldr	r1, [pc, #192]	; (10001724 <alarm_pool_add_alarm_at.constprop.0+0x118>)
10001662:	6091      	str	r1, [r2, #8]
10001664:	2100      	movs	r1, #0
10001666:	60d1      	str	r1, [r2, #12]
10001668:	7099      	strb	r1, [r3, #2]
1000166a:	7059      	strb	r1, [r3, #1]
1000166c:	7019      	strb	r1, [r3, #0]
1000166e:	7b73      	ldrb	r3, [r6, #13]
10001670:	469b      	mov	fp, r3
10001672:	2b00      	cmp	r3, #0
10001674:	d035      	beq.n	100016e2 <alarm_pool_add_alarm_at.constprop.0+0xd6>
10001676:	0022      	movs	r2, r4
10001678:	0019      	movs	r1, r3
1000167a:	68b0      	ldr	r0, [r6, #8]
1000167c:	6873      	ldr	r3, [r6, #4]
1000167e:	4798      	blx	r3
10001680:	6832      	ldr	r2, [r6, #0]
10001682:	2800      	cmp	r0, #0
10001684:	d020      	beq.n	100016c8 <alarm_pool_add_alarm_at.constprop.0+0xbc>
10001686:	465b      	mov	r3, fp
10001688:	4658      	mov	r0, fp
1000168a:	005b      	lsls	r3, r3, #1
1000168c:	445b      	add	r3, fp
1000168e:	19d7      	adds	r7, r2, r7
10001690:	3b03      	subs	r3, #3
10001692:	70b8      	strb	r0, [r7, #2]
10001694:	18d1      	adds	r1, r2, r3
10001696:	5cd3      	ldrb	r3, [r2, r3]
10001698:	2b00      	cmp	r3, #0
1000169a:	d000      	beq.n	1000169e <alarm_pool_add_alarm_at.constprop.0+0x92>
1000169c:	707b      	strb	r3, [r7, #1]
1000169e:	465b      	mov	r3, fp
100016a0:	700c      	strb	r4, [r1, #0]
100016a2:	7373      	strb	r3, [r6, #13]
100016a4:	455c      	cmp	r4, fp
100016a6:	d01d      	beq.n	100016e4 <alarm_pool_add_alarm_at.constprop.0+0xd8>
100016a8:	2600      	movs	r6, #0
100016aa:	e026      	b.n	100016fa <alarm_pool_add_alarm_at.constprop.0+0xee>
100016ac:	686b      	ldr	r3, [r5, #4]
100016ae:	f3bf 8f5f 	dmb	sy
100016b2:	601c      	str	r4, [r3, #0]
100016b4:	f388 8810 	msr	PRIMASK, r8
100016b8:	2001      	movs	r0, #1
100016ba:	4240      	negs	r0, r0
100016bc:	bcf0      	pop	{r4, r5, r6, r7}
100016be:	46bb      	mov	fp, r7
100016c0:	46b2      	mov	sl, r6
100016c2:	46a9      	mov	r9, r5
100016c4:	46a0      	mov	r8, r4
100016c6:	bdf8      	pop	{r3, r4, r5, r6, r7, pc}
100016c8:	465b      	mov	r3, fp
100016ca:	005b      	lsls	r3, r3, #1
100016cc:	445b      	add	r3, fp
100016ce:	3b03      	subs	r3, #3
100016d0:	18d3      	adds	r3, r2, r3
100016d2:	709c      	strb	r4, [r3, #2]
100016d4:	19d1      	adds	r1, r2, r7
100016d6:	5dd2      	ldrb	r2, [r2, r7]
100016d8:	2a00      	cmp	r2, #0
100016da:	d000      	beq.n	100016de <alarm_pool_add_alarm_at.constprop.0+0xd2>
100016dc:	705a      	strb	r2, [r3, #1]
100016de:	465b      	mov	r3, fp
100016e0:	700b      	strb	r3, [r1, #0]
100016e2:	7374      	strb	r4, [r6, #13]
100016e4:	464a      	mov	r2, r9
100016e6:	4653      	mov	r3, sl
100016e8:	7d28      	ldrb	r0, [r5, #20]
100016ea:	f000 fa3f 	bl	10001b6c <hardware_alarm_set_target>
100016ee:	1e06      	subs	r6, r0, #0
100016f0:	d0da      	beq.n	100016a8 <alarm_pool_add_alarm_at.constprop.0+0x9c>
100016f2:	0021      	movs	r1, r4
100016f4:	6828      	ldr	r0, [r5, #0]
100016f6:	f000 fc5b 	bl	10001fb0 <ph_remove_and_free_node>
100016fa:	68eb      	ldr	r3, [r5, #12]
100016fc:	191b      	adds	r3, r3, r4
100016fe:	3b01      	subs	r3, #1
10001700:	7819      	ldrb	r1, [r3, #0]
10001702:	686b      	ldr	r3, [r5, #4]
10001704:	f3bf 8f5f 	dmb	sy
10001708:	2200      	movs	r2, #0
1000170a:	601a      	str	r2, [r3, #0]
1000170c:	f388 8810 	msr	PRIMASK, r8
10001710:	2000      	movs	r0, #0
10001712:	2e00      	cmp	r6, #0
10001714:	d1d2      	bne.n	100016bc <alarm_pool_add_alarm_at.constprop.0+0xb0>
10001716:	0208      	lsls	r0, r1, #8
10001718:	4320      	orrs	r0, r4
1000171a:	e7cf      	b.n	100016bc <alarm_pool_add_alarm_at.constprop.0+0xb0>
1000171c:	200019b8 	.word	0x200019b8
10001720:	0fffffff 	.word	0x0fffffff
10001724:	10001315 	.word	0x10001315

10001728 <alarm_pool_init_default>:
10001728:	b510      	push	{r4, lr}
1000172a:	4c12      	ldr	r4, [pc, #72]	; (10001774 <alarm_pool_init_default+0x4c>)
1000172c:	6863      	ldr	r3, [r4, #4]
1000172e:	2b00      	cmp	r3, #0
10001730:	d004      	beq.n	1000173c <alarm_pool_init_default+0x14>
10001732:	210a      	movs	r1, #10
10001734:	4810      	ldr	r0, [pc, #64]	; (10001778 <alarm_pool_init_default+0x50>)
10001736:	f7ff fdcb 	bl	100012d0 <lock_init>
1000173a:	bd10      	pop	{r4, pc}
1000173c:	0023      	movs	r3, r4
1000173e:	4a0f      	ldr	r2, [pc, #60]	; (1000177c <alarm_pool_init_default+0x54>)
10001740:	2110      	movs	r1, #16
10001742:	6820      	ldr	r0, [r4, #0]
10001744:	f000 fad4 	bl	10001cf0 <ph_post_alloc_init>
10001748:	2003      	movs	r0, #3
1000174a:	f000 f9b3 	bl	10001ab4 <hardware_alarm_claim>
1000174e:	2003      	movs	r0, #3
10001750:	f000 fa7c 	bl	10001c4c <hardware_alarm_cancel>
10001754:	2003      	movs	r0, #3
10001756:	490a      	ldr	r1, [pc, #40]	; (10001780 <alarm_pool_init_default+0x58>)
10001758:	f000 f9c2 	bl	10001ae0 <hardware_alarm_set_callback>
1000175c:	f7ff faea 	bl	10000d34 <next_striped_spin_lock_num>
10001760:	4b08      	ldr	r3, [pc, #32]	; (10001784 <alarm_pool_init_default+0x5c>)
10001762:	469c      	mov	ip, r3
10001764:	2303      	movs	r3, #3
10001766:	4460      	add	r0, ip
10001768:	7523      	strb	r3, [r4, #20]
1000176a:	4b07      	ldr	r3, [pc, #28]	; (10001788 <alarm_pool_init_default+0x60>)
1000176c:	0080      	lsls	r0, r0, #2
1000176e:	6060      	str	r0, [r4, #4]
10001770:	60dc      	str	r4, [r3, #12]
10001772:	e7de      	b.n	10001732 <alarm_pool_init_default+0xa>
10001774:	200019b8 	.word	0x200019b8
10001778:	20002bfc 	.word	0x20002bfc
1000177c:	100012e1 	.word	0x100012e1
10001780:	10001445 	.word	0x10001445
10001784:	34000040 	.word	0x34000040
10001788:	20002bd8 	.word	0x20002bd8

1000178c <alarm_pool_get_default>:
1000178c:	4800      	ldr	r0, [pc, #0]	; (10001790 <alarm_pool_get_default+0x4>)
1000178e:	4770      	bx	lr
10001790:	200019b8 	.word	0x200019b8

10001794 <alarm_pool_add_alarm_at>:
10001794:	b5f0      	push	{r4, r5, r6, r7, lr}
10001796:	4657      	mov	r7, sl
10001798:	464e      	mov	r6, r9
1000179a:	4645      	mov	r5, r8
1000179c:	46de      	mov	lr, fp
1000179e:	b5e0      	push	{r5, r6, r7, lr}
100017a0:	b085      	sub	sp, #20
100017a2:	9301      	str	r3, [sp, #4]
100017a4:	ab10      	add	r3, sp, #64	; 0x40
100017a6:	781b      	ldrb	r3, [r3, #0]
100017a8:	0006      	movs	r6, r0
100017aa:	9303      	str	r3, [sp, #12]
100017ac:	2300      	movs	r3, #0
100017ae:	469a      	mov	sl, r3
100017b0:	4698      	mov	r8, r3
100017b2:	9200      	str	r2, [sp, #0]
100017b4:	6872      	ldr	r2, [r6, #4]
100017b6:	f3ef 8910 	mrs	r9, PRIMASK
100017ba:	b672      	cpsid	i
100017bc:	6813      	ldr	r3, [r2, #0]
100017be:	2b00      	cmp	r3, #0
100017c0:	d0fc      	beq.n	100017bc <alarm_pool_add_alarm_at+0x28>
100017c2:	f3bf 8f5f 	dmb	sy
100017c6:	6835      	ldr	r5, [r6, #0]
100017c8:	7bac      	ldrb	r4, [r5, #14]
100017ca:	2c00      	cmp	r4, #0
100017cc:	d049      	beq.n	10001862 <alarm_pool_add_alarm_at+0xce>
100017ce:	0067      	lsls	r7, r4, #1
100017d0:	682b      	ldr	r3, [r5, #0]
100017d2:	193f      	adds	r7, r7, r4
100017d4:	3f03      	subs	r7, #3
100017d6:	19db      	adds	r3, r3, r7
100017d8:	785a      	ldrb	r2, [r3, #1]
100017da:	73aa      	strb	r2, [r5, #14]
100017dc:	2a00      	cmp	r2, #0
100017de:	d100      	bne.n	100017e2 <alarm_pool_add_alarm_at+0x4e>
100017e0:	73ea      	strb	r2, [r5, #15]
100017e2:	68b1      	ldr	r1, [r6, #8]
100017e4:	4a4f      	ldr	r2, [pc, #316]	; (10001924 <alarm_pool_add_alarm_at+0x190>)
100017e6:	468c      	mov	ip, r1
100017e8:	9800      	ldr	r0, [sp, #0]
100017ea:	9901      	ldr	r1, [sp, #4]
100017ec:	18a2      	adds	r2, r4, r2
100017ee:	0112      	lsls	r2, r2, #4
100017f0:	4462      	add	r2, ip
100017f2:	6010      	str	r0, [r2, #0]
100017f4:	6051      	str	r1, [r2, #4]
100017f6:	990e      	ldr	r1, [sp, #56]	; 0x38
100017f8:	6091      	str	r1, [r2, #8]
100017fa:	990f      	ldr	r1, [sp, #60]	; 0x3c
100017fc:	60d1      	str	r1, [r2, #12]
100017fe:	4642      	mov	r2, r8
10001800:	709a      	strb	r2, [r3, #2]
10001802:	705a      	strb	r2, [r3, #1]
10001804:	701a      	strb	r2, [r3, #0]
10001806:	7b6b      	ldrb	r3, [r5, #13]
10001808:	469b      	mov	fp, r3
1000180a:	2b00      	cmp	r3, #0
1000180c:	d045      	beq.n	1000189a <alarm_pool_add_alarm_at+0x106>
1000180e:	0022      	movs	r2, r4
10001810:	0019      	movs	r1, r3
10001812:	68a8      	ldr	r0, [r5, #8]
10001814:	686b      	ldr	r3, [r5, #4]
10001816:	4798      	blx	r3
10001818:	682a      	ldr	r2, [r5, #0]
1000181a:	2800      	cmp	r0, #0
1000181c:	d030      	beq.n	10001880 <alarm_pool_add_alarm_at+0xec>
1000181e:	465b      	mov	r3, fp
10001820:	4658      	mov	r0, fp
10001822:	005b      	lsls	r3, r3, #1
10001824:	445b      	add	r3, fp
10001826:	19d7      	adds	r7, r2, r7
10001828:	3b03      	subs	r3, #3
1000182a:	70b8      	strb	r0, [r7, #2]
1000182c:	18d1      	adds	r1, r2, r3
1000182e:	5cd3      	ldrb	r3, [r2, r3]
10001830:	2b00      	cmp	r3, #0
10001832:	d000      	beq.n	10001836 <alarm_pool_add_alarm_at+0xa2>
10001834:	707b      	strb	r3, [r7, #1]
10001836:	465b      	mov	r3, fp
10001838:	700c      	strb	r4, [r1, #0]
1000183a:	736b      	strb	r3, [r5, #13]
1000183c:	455c      	cmp	r4, fp
1000183e:	d02d      	beq.n	1000189c <alarm_pool_add_alarm_at+0x108>
10001840:	68f3      	ldr	r3, [r6, #12]
10001842:	191b      	adds	r3, r3, r4
10001844:	3b01      	subs	r3, #1
10001846:	7818      	ldrb	r0, [r3, #0]
10001848:	6873      	ldr	r3, [r6, #4]
1000184a:	f3bf 8f5f 	dmb	sy
1000184e:	4642      	mov	r2, r8
10001850:	601a      	str	r2, [r3, #0]
10001852:	f389 8810 	msr	PRIMASK, r9
10001856:	4653      	mov	r3, sl
10001858:	2b00      	cmp	r3, #0
1000185a:	d12c      	bne.n	100018b6 <alarm_pool_add_alarm_at+0x122>
1000185c:	0200      	lsls	r0, r0, #8
1000185e:	4320      	orrs	r0, r4
10001860:	e007      	b.n	10001872 <alarm_pool_add_alarm_at+0xde>
10001862:	6873      	ldr	r3, [r6, #4]
10001864:	f3bf 8f5f 	dmb	sy
10001868:	601c      	str	r4, [r3, #0]
1000186a:	f389 8810 	msr	PRIMASK, r9
1000186e:	2001      	movs	r0, #1
10001870:	4240      	negs	r0, r0
10001872:	b005      	add	sp, #20
10001874:	bcf0      	pop	{r4, r5, r6, r7}
10001876:	46bb      	mov	fp, r7
10001878:	46b2      	mov	sl, r6
1000187a:	46a9      	mov	r9, r5
1000187c:	46a0      	mov	r8, r4
1000187e:	bdf0      	pop	{r4, r5, r6, r7, pc}
10001880:	465b      	mov	r3, fp
10001882:	005b      	lsls	r3, r3, #1
10001884:	445b      	add	r3, fp
10001886:	3b03      	subs	r3, #3
10001888:	18d3      	adds	r3, r2, r3
1000188a:	709c      	strb	r4, [r3, #2]
1000188c:	19d1      	adds	r1, r2, r7
1000188e:	5dd2      	ldrb	r2, [r2, r7]
10001890:	2a00      	cmp	r2, #0
10001892:	d000      	beq.n	10001896 <alarm_pool_add_alarm_at+0x102>
10001894:	705a      	strb	r2, [r3, #1]
10001896:	465b      	mov	r3, fp
10001898:	700b      	strb	r3, [r1, #0]
1000189a:	736c      	strb	r4, [r5, #13]
1000189c:	7d30      	ldrb	r0, [r6, #20]
1000189e:	9a00      	ldr	r2, [sp, #0]
100018a0:	9b01      	ldr	r3, [sp, #4]
100018a2:	f000 f963 	bl	10001b6c <hardware_alarm_set_target>
100018a6:	4682      	mov	sl, r0
100018a8:	2800      	cmp	r0, #0
100018aa:	d0c9      	beq.n	10001840 <alarm_pool_add_alarm_at+0xac>
100018ac:	0021      	movs	r1, r4
100018ae:	6830      	ldr	r0, [r6, #0]
100018b0:	f000 fb7e 	bl	10001fb0 <ph_remove_and_free_node>
100018b4:	e7c4      	b.n	10001840 <alarm_pool_add_alarm_at+0xac>
100018b6:	9b03      	ldr	r3, [sp, #12]
100018b8:	2b00      	cmp	r3, #0
100018ba:	d030      	beq.n	1000191e <alarm_pool_add_alarm_at+0x18a>
100018bc:	9b0e      	ldr	r3, [sp, #56]	; 0x38
100018be:	2000      	movs	r0, #0
100018c0:	990f      	ldr	r1, [sp, #60]	; 0x3c
100018c2:	4798      	blx	r3
100018c4:	0003      	movs	r3, r0
100018c6:	0004      	movs	r4, r0
100018c8:	000d      	movs	r5, r1
100018ca:	430b      	orrs	r3, r1
100018cc:	d027      	beq.n	1000191e <alarm_pool_add_alarm_at+0x18a>
100018ce:	2900      	cmp	r1, #0
100018d0:	da0d      	bge.n	100018ee <alarm_pool_add_alarm_at+0x15a>
100018d2:	9800      	ldr	r0, [sp, #0]
100018d4:	9901      	ldr	r1, [sp, #4]
100018d6:	0002      	movs	r2, r0
100018d8:	000b      	movs	r3, r1
100018da:	1b12      	subs	r2, r2, r4
100018dc:	41ab      	sbcs	r3, r5
100018de:	4299      	cmp	r1, r3
100018e0:	d813      	bhi.n	1000190a <alarm_pool_add_alarm_at+0x176>
100018e2:	d018      	beq.n	10001916 <alarm_pool_add_alarm_at+0x182>
100018e4:	9200      	str	r2, [sp, #0]
100018e6:	9301      	str	r3, [sp, #4]
100018e8:	9b03      	ldr	r3, [sp, #12]
100018ea:	469a      	mov	sl, r3
100018ec:	e762      	b.n	100017b4 <alarm_pool_add_alarm_at+0x20>
100018ee:	f000 f8ed 	bl	10001acc <time_us_64>
100018f2:	0002      	movs	r2, r0
100018f4:	000b      	movs	r3, r1
100018f6:	18a4      	adds	r4, r4, r2
100018f8:	415d      	adcs	r5, r3
100018fa:	9400      	str	r4, [sp, #0]
100018fc:	9501      	str	r5, [sp, #4]
100018fe:	42a9      	cmp	r1, r5
10001900:	d803      	bhi.n	1000190a <alarm_pool_add_alarm_at+0x176>
10001902:	d1f1      	bne.n	100018e8 <alarm_pool_add_alarm_at+0x154>
10001904:	9900      	ldr	r1, [sp, #0]
10001906:	428a      	cmp	r2, r1
10001908:	d9ee      	bls.n	100018e8 <alarm_pool_add_alarm_at+0x154>
1000190a:	2301      	movs	r3, #1
1000190c:	425b      	negs	r3, r3
1000190e:	17dc      	asrs	r4, r3, #31
10001910:	9300      	str	r3, [sp, #0]
10001912:	9401      	str	r4, [sp, #4]
10001914:	e7e8      	b.n	100018e8 <alarm_pool_add_alarm_at+0x154>
10001916:	9900      	ldr	r1, [sp, #0]
10001918:	4291      	cmp	r1, r2
1000191a:	d9e3      	bls.n	100018e4 <alarm_pool_add_alarm_at+0x150>
1000191c:	e7f5      	b.n	1000190a <alarm_pool_add_alarm_at+0x176>
1000191e:	2000      	movs	r0, #0
10001920:	e7a7      	b.n	10001872 <alarm_pool_add_alarm_at+0xde>
10001922:	46c0      	nop			; (mov r8, r8)
10001924:	0fffffff 	.word	0x0fffffff

10001928 <best_effort_wfe_or_timeout>:
10001928:	b5f8      	push	{r3, r4, r5, r6, r7, lr}
1000192a:	46ce      	mov	lr, r9
1000192c:	4647      	mov	r7, r8
1000192e:	b580      	push	{r7, lr}
10001930:	0006      	movs	r6, r0
10001932:	000c      	movs	r4, r1
10001934:	f7ff fe6a 	bl	1000160c <alarm_pool_add_alarm_at.constprop.0>
10001938:	2800      	cmp	r0, #0
1000193a:	dc0c      	bgt.n	10001956 <best_effort_wfe_or_timeout+0x2e>
1000193c:	4b2d      	ldr	r3, [pc, #180]	; (100019f4 <best_effort_wfe_or_timeout+0xcc>)
1000193e:	2000      	movs	r0, #0
10001940:	6a59      	ldr	r1, [r3, #36]	; 0x24
10001942:	428c      	cmp	r4, r1
10001944:	d803      	bhi.n	1000194e <best_effort_wfe_or_timeout+0x26>
10001946:	6a9b      	ldr	r3, [r3, #40]	; 0x28
10001948:	3001      	adds	r0, #1
1000194a:	42b3      	cmp	r3, r6
1000194c:	d345      	bcc.n	100019da <best_effort_wfe_or_timeout+0xb2>
1000194e:	bcc0      	pop	{r6, r7}
10001950:	46b9      	mov	r9, r7
10001952:	46b0      	mov	r8, r6
10001954:	bdf8      	pop	{r3, r4, r5, r6, r7, pc}
10001956:	bf20      	wfe
10001958:	4d27      	ldr	r5, [pc, #156]	; (100019f8 <best_effort_wfe_or_timeout+0xd0>)
1000195a:	686a      	ldr	r2, [r5, #4]
1000195c:	f3ef 8710 	mrs	r7, PRIMASK
10001960:	b672      	cpsid	i
10001962:	6813      	ldr	r3, [r2, #0]
10001964:	2b00      	cmp	r3, #0
10001966:	d0fc      	beq.n	10001962 <best_effort_wfe_or_timeout+0x3a>
10001968:	f3bf 8f5f 	dmb	sy
1000196c:	682b      	ldr	r3, [r5, #0]
1000196e:	b2c1      	uxtb	r1, r0
10001970:	469c      	mov	ip, r3
10001972:	7b5b      	ldrb	r3, [r3, #13]
10001974:	428b      	cmp	r3, r1
10001976:	d035      	beq.n	100019e4 <best_effort_wfe_or_timeout+0xbc>
10001978:	23ff      	movs	r3, #255	; 0xff
1000197a:	4003      	ands	r3, r0
1000197c:	005a      	lsls	r2, r3, #1
1000197e:	4691      	mov	r9, r2
10001980:	4662      	mov	r2, ip
10001982:	6812      	ldr	r2, [r2, #0]
10001984:	4499      	add	r9, r3
10001986:	4690      	mov	r8, r2
10001988:	464a      	mov	r2, r9
1000198a:	4442      	add	r2, r8
1000198c:	3a03      	subs	r2, #3
1000198e:	7892      	ldrb	r2, [r2, #2]
10001990:	2a00      	cmp	r2, #0
10001992:	d01d      	beq.n	100019d0 <best_effort_wfe_or_timeout+0xa8>
10001994:	68ea      	ldr	r2, [r5, #12]
10001996:	0a00      	lsrs	r0, r0, #8
10001998:	4690      	mov	r8, r2
1000199a:	4443      	add	r3, r8
1000199c:	3b01      	subs	r3, #1
1000199e:	781b      	ldrb	r3, [r3, #0]
100019a0:	b2c0      	uxtb	r0, r0
100019a2:	4283      	cmp	r3, r0
100019a4:	d021      	beq.n	100019ea <best_effort_wfe_or_timeout+0xc2>
100019a6:	686b      	ldr	r3, [r5, #4]
100019a8:	f3bf 8f5f 	dmb	sy
100019ac:	2200      	movs	r2, #0
100019ae:	601a      	str	r2, [r3, #0]
100019b0:	f387 8810 	msr	PRIMASK, r7
100019b4:	4a0f      	ldr	r2, [pc, #60]	; (100019f4 <best_effort_wfe_or_timeout+0xcc>)
100019b6:	2000      	movs	r0, #0
100019b8:	6a53      	ldr	r3, [r2, #36]	; 0x24
100019ba:	429c      	cmp	r4, r3
100019bc:	d8c7      	bhi.n	1000194e <best_effort_wfe_or_timeout+0x26>
100019be:	6a92      	ldr	r2, [r2, #40]	; 0x28
100019c0:	3001      	adds	r0, #1
100019c2:	42b2      	cmp	r2, r6
100019c4:	d2c3      	bcs.n	1000194e <best_effort_wfe_or_timeout+0x26>
100019c6:	1ae0      	subs	r0, r4, r3
100019c8:	1e42      	subs	r2, r0, #1
100019ca:	4190      	sbcs	r0, r2
100019cc:	b2c0      	uxtb	r0, r0
100019ce:	e7be      	b.n	1000194e <best_effort_wfe_or_timeout+0x26>
100019d0:	692b      	ldr	r3, [r5, #16]
100019d2:	4298      	cmp	r0, r3
100019d4:	d1e7      	bne.n	100019a6 <best_effort_wfe_or_timeout+0x7e>
100019d6:	612a      	str	r2, [r5, #16]
100019d8:	e7e5      	b.n	100019a6 <best_effort_wfe_or_timeout+0x7e>
100019da:	1a60      	subs	r0, r4, r1
100019dc:	1e43      	subs	r3, r0, #1
100019de:	4198      	sbcs	r0, r3
100019e0:	b2c0      	uxtb	r0, r0
100019e2:	e7b4      	b.n	1000194e <best_effort_wfe_or_timeout+0x26>
100019e4:	23ff      	movs	r3, #255	; 0xff
100019e6:	4003      	ands	r3, r0
100019e8:	e7d4      	b.n	10001994 <best_effort_wfe_or_timeout+0x6c>
100019ea:	4660      	mov	r0, ip
100019ec:	f000 fae0 	bl	10001fb0 <ph_remove_and_free_node>
100019f0:	e7d9      	b.n	100019a6 <best_effort_wfe_or_timeout+0x7e>
100019f2:	46c0      	nop			; (mov r8, r8)
100019f4:	40054000 	.word	0x40054000
100019f8:	200019b8 	.word	0x200019b8

100019fc <hardware_alarm_irq_handler>:
100019fc:	b5f0      	push	{r4, r5, r6, r7, lr}
100019fe:	46d6      	mov	lr, sl
10001a00:	464f      	mov	r7, r9
10001a02:	4646      	mov	r6, r8
10001a04:	b5c0      	push	{r6, r7, lr}
10001a06:	f3ef 8305 	mrs	r3, IPSR
10001a0a:	223f      	movs	r2, #63	; 0x3f
10001a0c:	4013      	ands	r3, r2
10001a0e:	0018      	movs	r0, r3
10001a10:	3810      	subs	r0, #16
10001a12:	f3ef 8c10 	mrs	ip, PRIMASK
10001a16:	b672      	cpsid	i
10001a18:	4d20      	ldr	r5, [pc, #128]	; (10001a9c <hardware_alarm_irq_handler+0xa0>)
10001a1a:	682a      	ldr	r2, [r5, #0]
10001a1c:	2a00      	cmp	r2, #0
10001a1e:	d0fc      	beq.n	10001a1a <hardware_alarm_irq_handler+0x1e>
10001a20:	f3bf 8f5f 	dmb	sy
10001a24:	2201      	movs	r2, #1
10001a26:	0011      	movs	r1, r2
10001a28:	4081      	lsls	r1, r0
10001a2a:	4c1d      	ldr	r4, [pc, #116]	; (10001aa0 <hardware_alarm_irq_handler+0xa4>)
10001a2c:	4688      	mov	r8, r1
10001a2e:	6361      	str	r1, [r4, #52]	; 0x34
10001a30:	491c      	ldr	r1, [pc, #112]	; (10001aa4 <hardware_alarm_irq_handler+0xa8>)
10001a32:	0017      	movs	r7, r2
10001a34:	780e      	ldrb	r6, [r1, #0]
10001a36:	468a      	mov	sl, r1
10001a38:	0031      	movs	r1, r6
10001a3a:	40c1      	lsrs	r1, r0
10001a3c:	400f      	ands	r7, r1
10001a3e:	420a      	tst	r2, r1
10001a40:	d109      	bne.n	10001a56 <hardware_alarm_irq_handler+0x5a>
10001a42:	f3bf 8f5f 	dmb	sy
10001a46:	602f      	str	r7, [r5, #0]
10001a48:	f38c 8810 	msr	PRIMASK, ip
10001a4c:	bce0      	pop	{r5, r6, r7}
10001a4e:	46ba      	mov	sl, r7
10001a50:	46b1      	mov	r9, r6
10001a52:	46a8      	mov	r8, r5
10001a54:	bdf0      	pop	{r4, r5, r6, r7, pc}
10001a56:	4914      	ldr	r1, [pc, #80]	; (10001aa8 <hardware_alarm_irq_handler+0xac>)
10001a58:	0082      	lsls	r2, r0, #2
10001a5a:	6a64      	ldr	r4, [r4, #36]	; 0x24
10001a5c:	5851      	ldr	r1, [r2, r1]
10001a5e:	428c      	cmp	r4, r1
10001a60:	d30f      	bcc.n	10001a82 <hardware_alarm_irq_handler+0x86>
10001a62:	4b12      	ldr	r3, [pc, #72]	; (10001aac <hardware_alarm_irq_handler+0xb0>)
10001a64:	58d2      	ldr	r2, [r2, r3]
10001a66:	4643      	mov	r3, r8
10001a68:	439e      	bics	r6, r3
10001a6a:	4653      	mov	r3, sl
10001a6c:	701e      	strb	r6, [r3, #0]
10001a6e:	f3bf 8f5f 	dmb	sy
10001a72:	2300      	movs	r3, #0
10001a74:	602b      	str	r3, [r5, #0]
10001a76:	f38c 8810 	msr	PRIMASK, ip
10001a7a:	2a00      	cmp	r2, #0
10001a7c:	d0e6      	beq.n	10001a4c <hardware_alarm_irq_handler+0x50>
10001a7e:	4790      	blx	r2
10001a80:	e7e4      	b.n	10001a4c <hardware_alarm_irq_handler+0x50>
10001a82:	4a0b      	ldr	r2, [pc, #44]	; (10001ab0 <hardware_alarm_irq_handler+0xb4>)
10001a84:	009b      	lsls	r3, r3, #2
10001a86:	4690      	mov	r8, r2
10001a88:	4443      	add	r3, r8
10001a8a:	681a      	ldr	r2, [r3, #0]
10001a8c:	601a      	str	r2, [r3, #0]
10001a8e:	f3bf 8f5f 	dmb	sy
10001a92:	2300      	movs	r3, #0
10001a94:	602b      	str	r3, [r5, #0]
10001a96:	f38c 8810 	msr	PRIMASK, ip
10001a9a:	e7d7      	b.n	10001a4c <hardware_alarm_irq_handler+0x50>
10001a9c:	d0000128 	.word	0xd0000128
10001aa0:	40054000 	.word	0x40054000
10001aa4:	20002c37 	.word	0x20002c37
10001aa8:	20002c08 	.word	0x20002c08
10001aac:	20002610 	.word	0x20002610
10001ab0:	40053fd0 	.word	0x40053fd0

10001ab4 <hardware_alarm_claim>:
10001ab4:	b510      	push	{r4, lr}
10001ab6:	0001      	movs	r1, r0
10001ab8:	4a02      	ldr	r2, [pc, #8]	; (10001ac4 <hardware_alarm_claim+0x10>)
10001aba:	4803      	ldr	r0, [pc, #12]	; (10001ac8 <hardware_alarm_claim+0x14>)
10001abc:	f7ff f8b4 	bl	10000c28 <hw_claim_or_assert>
10001ac0:	bd10      	pop	{r4, pc}
10001ac2:	46c0      	nop			; (mov r8, r8)
10001ac4:	100078bc 	.word	0x100078bc
10001ac8:	20002c32 	.word	0x20002c32

10001acc <time_us_64>:
10001acc:	4b03      	ldr	r3, [pc, #12]	; (10001adc <time_us_64+0x10>)
10001ace:	6a59      	ldr	r1, [r3, #36]	; 0x24
10001ad0:	000a      	movs	r2, r1
10001ad2:	6a98      	ldr	r0, [r3, #40]	; 0x28
10001ad4:	6a59      	ldr	r1, [r3, #36]	; 0x24
10001ad6:	428a      	cmp	r2, r1
10001ad8:	d1fa      	bne.n	10001ad0 <time_us_64+0x4>
10001ada:	4770      	bx	lr
10001adc:	40054000 	.word	0x40054000

10001ae0 <hardware_alarm_set_callback>:
10001ae0:	b570      	push	{r4, r5, r6, lr}
10001ae2:	0004      	movs	r4, r0
10001ae4:	000d      	movs	r5, r1
10001ae6:	f3ef 8610 	mrs	r6, PRIMASK
10001aea:	b672      	cpsid	i
10001aec:	4a1a      	ldr	r2, [pc, #104]	; (10001b58 <hardware_alarm_set_callback+0x78>)
10001aee:	6813      	ldr	r3, [r2, #0]
10001af0:	2b00      	cmp	r3, #0
10001af2:	d0fc      	beq.n	10001aee <hardware_alarm_set_callback+0xe>
10001af4:	f3bf 8f5f 	dmb	sy
10001af8:	2d00      	cmp	r5, #0
10001afa:	d01b      	beq.n	10001b34 <hardware_alarm_set_callback+0x54>
10001afc:	0020      	movs	r0, r4
10001afe:	f7ff f965 	bl	10000dcc <irq_get_vtable_handler>
10001b02:	4916      	ldr	r1, [pc, #88]	; (10001b5c <hardware_alarm_set_callback+0x7c>)
10001b04:	4281      	cmp	r1, r0
10001b06:	d00a      	beq.n	10001b1e <hardware_alarm_set_callback+0x3e>
10001b08:	0020      	movs	r0, r4
10001b0a:	f7ff f967 	bl	10000ddc <irq_set_exclusive_handler>
10001b0e:	2101      	movs	r1, #1
10001b10:	0020      	movs	r0, r4
10001b12:	f7ff f92b 	bl	10000d6c <irq_set_enabled>
10001b16:	2301      	movs	r3, #1
10001b18:	40a3      	lsls	r3, r4
10001b1a:	4a11      	ldr	r2, [pc, #68]	; (10001b60 <hardware_alarm_set_callback+0x80>)
10001b1c:	6013      	str	r3, [r2, #0]
10001b1e:	4b11      	ldr	r3, [pc, #68]	; (10001b64 <hardware_alarm_set_callback+0x84>)
10001b20:	00a4      	lsls	r4, r4, #2
10001b22:	50e5      	str	r5, [r4, r3]
10001b24:	f3bf 8f5f 	dmb	sy
10001b28:	2200      	movs	r2, #0
10001b2a:	4b0b      	ldr	r3, [pc, #44]	; (10001b58 <hardware_alarm_set_callback+0x78>)
10001b2c:	601a      	str	r2, [r3, #0]
10001b2e:	f386 8810 	msr	PRIMASK, r6
10001b32:	bd70      	pop	{r4, r5, r6, pc}
10001b34:	4b0b      	ldr	r3, [pc, #44]	; (10001b64 <hardware_alarm_set_callback+0x84>)
10001b36:	00a2      	lsls	r2, r4, #2
10001b38:	50d5      	str	r5, [r2, r3]
10001b3a:	2201      	movs	r2, #1
10001b3c:	40a2      	lsls	r2, r4
10001b3e:	490a      	ldr	r1, [pc, #40]	; (10001b68 <hardware_alarm_set_callback+0x88>)
10001b40:	0020      	movs	r0, r4
10001b42:	780b      	ldrb	r3, [r1, #0]
10001b44:	4393      	bics	r3, r2
10001b46:	700b      	strb	r3, [r1, #0]
10001b48:	4904      	ldr	r1, [pc, #16]	; (10001b5c <hardware_alarm_set_callback+0x7c>)
10001b4a:	f7ff fa63 	bl	10001014 <irq_remove_handler>
10001b4e:	2100      	movs	r1, #0
10001b50:	0020      	movs	r0, r4
10001b52:	f7ff f90b 	bl	10000d6c <irq_set_enabled>
10001b56:	e7e5      	b.n	10001b24 <hardware_alarm_set_callback+0x44>
10001b58:	d0000128 	.word	0xd0000128
10001b5c:	100019fd 	.word	0x100019fd
10001b60:	40056038 	.word	0x40056038
10001b64:	20002610 	.word	0x20002610
10001b68:	20002c37 	.word	0x20002c37

10001b6c <hardware_alarm_set_target>:
10001b6c:	b5f0      	push	{r4, r5, r6, r7, lr}
10001b6e:	464f      	mov	r7, r9
10001b70:	46d6      	mov	lr, sl
10001b72:	4646      	mov	r6, r8
10001b74:	b5c0      	push	{r6, r7, lr}
10001b76:	0007      	movs	r7, r0
10001b78:	4c2f      	ldr	r4, [pc, #188]	; (10001c38 <hardware_alarm_set_target+0xcc>)
10001b7a:	6a61      	ldr	r1, [r4, #36]	; 0x24
10001b7c:	000d      	movs	r5, r1
10001b7e:	6aa6      	ldr	r6, [r4, #40]	; 0x28
10001b80:	6a61      	ldr	r1, [r4, #36]	; 0x24
10001b82:	42a9      	cmp	r1, r5
10001b84:	d1fa      	bne.n	10001b7c <hardware_alarm_set_target+0x10>
10001b86:	428b      	cmp	r3, r1
10001b88:	d808      	bhi.n	10001b9c <hardware_alarm_set_target+0x30>
10001b8a:	d005      	beq.n	10001b98 <hardware_alarm_set_target+0x2c>
10001b8c:	2001      	movs	r0, #1
10001b8e:	bce0      	pop	{r5, r6, r7}
10001b90:	46ba      	mov	sl, r7
10001b92:	46b1      	mov	r9, r6
10001b94:	46a8      	mov	r8, r5
10001b96:	bdf0      	pop	{r4, r5, r6, r7, pc}
10001b98:	42b2      	cmp	r2, r6
10001b9a:	d9f7      	bls.n	10001b8c <hardware_alarm_set_target+0x20>
10001b9c:	f3ef 8a10 	mrs	sl, PRIMASK
10001ba0:	b672      	cpsid	i
10001ba2:	4826      	ldr	r0, [pc, #152]	; (10001c3c <hardware_alarm_set_target+0xd0>)
10001ba4:	6801      	ldr	r1, [r0, #0]
10001ba6:	2900      	cmp	r1, #0
10001ba8:	d0fc      	beq.n	10001ba4 <hardware_alarm_set_target+0x38>
10001baa:	f3bf 8f5f 	dmb	sy
10001bae:	2501      	movs	r5, #1
10001bb0:	40bd      	lsls	r5, r7
10001bb2:	4923      	ldr	r1, [pc, #140]	; (10001c40 <hardware_alarm_set_target+0xd4>)
10001bb4:	4c20      	ldr	r4, [pc, #128]	; (10001c38 <hardware_alarm_set_target+0xcc>)
10001bb6:	4688      	mov	r8, r1
10001bb8:	7809      	ldrb	r1, [r1, #0]
10001bba:	4689      	mov	r9, r1
10001bbc:	4329      	orrs	r1, r5
10001bbe:	b2c9      	uxtb	r1, r1
10001bc0:	468c      	mov	ip, r1
10001bc2:	4641      	mov	r1, r8
10001bc4:	4660      	mov	r0, ip
10001bc6:	7008      	strb	r0, [r1, #0]
10001bc8:	1d39      	adds	r1, r7, #4
10001bca:	481e      	ldr	r0, [pc, #120]	; (10001c44 <hardware_alarm_set_target+0xd8>)
10001bcc:	0089      	lsls	r1, r1, #2
10001bce:	6365      	str	r5, [r4, #52]	; 0x34
10001bd0:	510a      	str	r2, [r1, r4]
10001bd2:	00b9      	lsls	r1, r7, #2
10001bd4:	500b      	str	r3, [r1, r0]
10001bd6:	6a21      	ldr	r1, [r4, #32]
10001bd8:	2000      	movs	r0, #0
10001bda:	4229      	tst	r1, r5
10001bdc:	d019      	beq.n	10001c12 <hardware_alarm_set_target+0xa6>
10001bde:	6a61      	ldr	r1, [r4, #36]	; 0x24
10001be0:	0008      	movs	r0, r1
10001be2:	6aa6      	ldr	r6, [r4, #40]	; 0x28
10001be4:	6a61      	ldr	r1, [r4, #36]	; 0x24
10001be6:	4281      	cmp	r1, r0
10001be8:	d1fa      	bne.n	10001be0 <hardware_alarm_set_target+0x74>
10001bea:	428b      	cmp	r3, r1
10001bec:	d819      	bhi.n	10001c22 <hardware_alarm_set_target+0xb6>
10001bee:	d101      	bne.n	10001bf4 <hardware_alarm_set_target+0x88>
10001bf0:	42b2      	cmp	r2, r6
10001bf2:	d816      	bhi.n	10001c22 <hardware_alarm_set_target+0xb6>
10001bf4:	45cc      	cmp	ip, r9
10001bf6:	d01d      	beq.n	10001c34 <hardware_alarm_set_target+0xc8>
10001bf8:	4b0f      	ldr	r3, [pc, #60]	; (10001c38 <hardware_alarm_set_target+0xcc>)
10001bfa:	201f      	movs	r0, #31
10001bfc:	621d      	str	r5, [r3, #32]
10001bfe:	635d      	str	r5, [r3, #52]	; 0x34
10001c00:	2301      	movs	r3, #1
10001c02:	4007      	ands	r7, r0
10001c04:	40bb      	lsls	r3, r7
10001c06:	4a10      	ldr	r2, [pc, #64]	; (10001c48 <hardware_alarm_set_target+0xdc>)
10001c08:	381e      	subs	r0, #30
10001c0a:	6013      	str	r3, [r2, #0]
10001c0c:	4643      	mov	r3, r8
10001c0e:	464a      	mov	r2, r9
10001c10:	701a      	strb	r2, [r3, #0]
10001c12:	f3bf 8f5f 	dmb	sy
10001c16:	2200      	movs	r2, #0
10001c18:	4b08      	ldr	r3, [pc, #32]	; (10001c3c <hardware_alarm_set_target+0xd0>)
10001c1a:	601a      	str	r2, [r3, #0]
10001c1c:	f38a 8810 	msr	PRIMASK, sl
10001c20:	e7b5      	b.n	10001b8e <hardware_alarm_set_target+0x22>
10001c22:	2000      	movs	r0, #0
10001c24:	f3bf 8f5f 	dmb	sy
10001c28:	2200      	movs	r2, #0
10001c2a:	4b04      	ldr	r3, [pc, #16]	; (10001c3c <hardware_alarm_set_target+0xd0>)
10001c2c:	601a      	str	r2, [r3, #0]
10001c2e:	f38a 8810 	msr	PRIMASK, sl
10001c32:	e7ac      	b.n	10001b8e <hardware_alarm_set_target+0x22>
10001c34:	2001      	movs	r0, #1
10001c36:	e7ec      	b.n	10001c12 <hardware_alarm_set_target+0xa6>
10001c38:	40054000 	.word	0x40054000
10001c3c:	d0000128 	.word	0xd0000128
10001c40:	20002c37 	.word	0x20002c37
10001c44:	20002c08 	.word	0x20002c08
10001c48:	e000e280 	.word	0xe000e280

10001c4c <hardware_alarm_cancel>:
10001c4c:	f3ef 8c10 	mrs	ip, PRIMASK
10001c50:	b672      	cpsid	i
10001c52:	490a      	ldr	r1, [pc, #40]	; (10001c7c <hardware_alarm_cancel+0x30>)
10001c54:	680b      	ldr	r3, [r1, #0]
10001c56:	2b00      	cmp	r3, #0
10001c58:	d0fc      	beq.n	10001c54 <hardware_alarm_cancel+0x8>
10001c5a:	f3bf 8f5f 	dmb	sy
10001c5e:	2301      	movs	r3, #1
10001c60:	4083      	lsls	r3, r0
10001c62:	4a07      	ldr	r2, [pc, #28]	; (10001c80 <hardware_alarm_cancel+0x34>)
10001c64:	4807      	ldr	r0, [pc, #28]	; (10001c84 <hardware_alarm_cancel+0x38>)
10001c66:	6213      	str	r3, [r2, #32]
10001c68:	7802      	ldrb	r2, [r0, #0]
10001c6a:	439a      	bics	r2, r3
10001c6c:	7002      	strb	r2, [r0, #0]
10001c6e:	f3bf 8f5f 	dmb	sy
10001c72:	2300      	movs	r3, #0
10001c74:	600b      	str	r3, [r1, #0]
10001c76:	f38c 8810 	msr	PRIMASK, ip
10001c7a:	4770      	bx	lr
10001c7c:	d0000128 	.word	0xd0000128
10001c80:	40054000 	.word	0x40054000
10001c84:	20002c37 	.word	0x20002c37

10001c88 <ph_merge_nodes>:
10001c88:	b570      	push	{r4, r5, r6, lr}
10001c8a:	0005      	movs	r5, r0
10001c8c:	0014      	movs	r4, r2
10001c8e:	0016      	movs	r6, r2
10001c90:	2900      	cmp	r1, #0
10001c92:	d015      	beq.n	10001cc0 <ph_merge_nodes+0x38>
10001c94:	000c      	movs	r4, r1
10001c96:	2a00      	cmp	r2, #0
10001c98:	d012      	beq.n	10001cc0 <ph_merge_nodes+0x38>
10001c9a:	6880      	ldr	r0, [r0, #8]
10001c9c:	686b      	ldr	r3, [r5, #4]
10001c9e:	4798      	blx	r3
10001ca0:	6829      	ldr	r1, [r5, #0]
10001ca2:	2800      	cmp	r0, #0
10001ca4:	d00e      	beq.n	10001cc4 <ph_merge_nodes+0x3c>
10001ca6:	0073      	lsls	r3, r6, #1
10001ca8:	199b      	adds	r3, r3, r6
10001caa:	0062      	lsls	r2, r4, #1
10001cac:	3b03      	subs	r3, #3
10001cae:	1912      	adds	r2, r2, r4
10001cb0:	18cb      	adds	r3, r1, r3
10001cb2:	3a03      	subs	r2, #3
10001cb4:	709c      	strb	r4, [r3, #2]
10001cb6:	1888      	adds	r0, r1, r2
10001cb8:	5c8a      	ldrb	r2, [r1, r2]
10001cba:	2a00      	cmp	r2, #0
10001cbc:	d115      	bne.n	10001cea <ph_merge_nodes+0x62>
10001cbe:	7006      	strb	r6, [r0, #0]
10001cc0:	0020      	movs	r0, r4
10001cc2:	bd70      	pop	{r4, r5, r6, pc}
10001cc4:	0063      	lsls	r3, r4, #1
10001cc6:	191b      	adds	r3, r3, r4
10001cc8:	0072      	lsls	r2, r6, #1
10001cca:	3b03      	subs	r3, #3
10001ccc:	1992      	adds	r2, r2, r6
10001cce:	18cb      	adds	r3, r1, r3
10001cd0:	3a03      	subs	r2, #3
10001cd2:	709e      	strb	r6, [r3, #2]
10001cd4:	1888      	adds	r0, r1, r2
10001cd6:	5c8a      	ldrb	r2, [r1, r2]
10001cd8:	2a00      	cmp	r2, #0
10001cda:	d102      	bne.n	10001ce2 <ph_merge_nodes+0x5a>
10001cdc:	7004      	strb	r4, [r0, #0]
10001cde:	0034      	movs	r4, r6
10001ce0:	e7ee      	b.n	10001cc0 <ph_merge_nodes+0x38>
10001ce2:	705a      	strb	r2, [r3, #1]
10001ce4:	7004      	strb	r4, [r0, #0]
10001ce6:	0034      	movs	r4, r6
10001ce8:	e7ea      	b.n	10001cc0 <ph_merge_nodes+0x38>
10001cea:	705a      	strb	r2, [r3, #1]
10001cec:	7006      	strb	r6, [r0, #0]
10001cee:	e7e7      	b.n	10001cc0 <ph_merge_nodes+0x38>

10001cf0 <ph_post_alloc_init>:
10001cf0:	b530      	push	{r4, r5, lr}
10001cf2:	6083      	str	r3, [r0, #8]
10001cf4:	2300      	movs	r3, #0
10001cf6:	b2cc      	uxtb	r4, r1
10001cf8:	7343      	strb	r3, [r0, #13]
10001cfa:	3301      	adds	r3, #1
10001cfc:	7304      	strb	r4, [r0, #12]
10001cfe:	6042      	str	r2, [r0, #4]
10001d00:	7383      	strb	r3, [r0, #14]
10001d02:	73c4      	strb	r4, [r0, #15]
10001d04:	000d      	movs	r5, r1
10001d06:	6800      	ldr	r0, [r0, #0]
10001d08:	2c01      	cmp	r4, #1
10001d0a:	d906      	bls.n	10001d1a <ph_post_alloc_init+0x2a>
10001d0c:	1c42      	adds	r2, r0, #1
10001d0e:	3301      	adds	r3, #1
10001d10:	b2db      	uxtb	r3, r3
10001d12:	7013      	strb	r3, [r2, #0]
10001d14:	3203      	adds	r2, #3
10001d16:	429c      	cmp	r4, r3
10001d18:	d1f9      	bne.n	10001d0e <ph_post_alloc_init+0x1e>
10001d1a:	21ff      	movs	r1, #255	; 0xff
10001d1c:	4029      	ands	r1, r5
10001d1e:	004b      	lsls	r3, r1, #1
10001d20:	1859      	adds	r1, r3, r1
10001d22:	2300      	movs	r3, #0
10001d24:	1840      	adds	r0, r0, r1
10001d26:	3803      	subs	r0, #3
10001d28:	7043      	strb	r3, [r0, #1]
10001d2a:	bd30      	pop	{r4, r5, pc}

10001d2c <ph_merge_two_pass>:
10001d2c:	b5f8      	push	{r3, r4, r5, r6, r7, lr}
10001d2e:	46ce      	mov	lr, r9
10001d30:	4647      	mov	r7, r8
10001d32:	0006      	movs	r6, r0
10001d34:	000c      	movs	r4, r1
10001d36:	b580      	push	{r7, lr}
10001d38:	2900      	cmp	r1, #0
10001d3a:	d007      	beq.n	10001d4c <ph_merge_two_pass+0x20>
10001d3c:	004d      	lsls	r5, r1, #1
10001d3e:	6803      	ldr	r3, [r0, #0]
10001d40:	186d      	adds	r5, r5, r1
10001d42:	3d03      	subs	r5, #3
10001d44:	195a      	adds	r2, r3, r5
10001d46:	7857      	ldrb	r7, [r2, #1]
10001d48:	2f00      	cmp	r7, #0
10001d4a:	d104      	bne.n	10001d56 <ph_merge_two_pass+0x2a>
10001d4c:	0020      	movs	r0, r4
10001d4e:	bcc0      	pop	{r6, r7}
10001d50:	46b9      	mov	r9, r7
10001d52:	46b0      	mov	r8, r6
10001d54:	bdf8      	pop	{r3, r4, r5, r6, r7, pc}
10001d56:	0079      	lsls	r1, r7, #1
10001d58:	19c9      	adds	r1, r1, r7
10001d5a:	3903      	subs	r1, #3
10001d5c:	4688      	mov	r8, r1
10001d5e:	4443      	add	r3, r8
10001d60:	7859      	ldrb	r1, [r3, #1]
10001d62:	4689      	mov	r9, r1
10001d64:	2100      	movs	r1, #0
10001d66:	7059      	strb	r1, [r3, #1]
10001d68:	7051      	strb	r1, [r2, #1]
10001d6a:	6873      	ldr	r3, [r6, #4]
10001d6c:	003a      	movs	r2, r7
10001d6e:	0021      	movs	r1, r4
10001d70:	6880      	ldr	r0, [r0, #8]
10001d72:	4798      	blx	r3
10001d74:	6833      	ldr	r3, [r6, #0]
10001d76:	2800      	cmp	r0, #0
10001d78:	d014      	beq.n	10001da4 <ph_merge_two_pass+0x78>
10001d7a:	4642      	mov	r2, r8
10001d7c:	189a      	adds	r2, r3, r2
10001d7e:	7094      	strb	r4, [r2, #2]
10001d80:	1959      	adds	r1, r3, r5
10001d82:	5d5b      	ldrb	r3, [r3, r5]
10001d84:	2b00      	cmp	r3, #0
10001d86:	d000      	beq.n	10001d8a <ph_merge_two_pass+0x5e>
10001d88:	7053      	strb	r3, [r2, #1]
10001d8a:	700f      	strb	r7, [r1, #0]
10001d8c:	0027      	movs	r7, r4
10001d8e:	4649      	mov	r1, r9
10001d90:	0030      	movs	r0, r6
10001d92:	f7ff ffcb 	bl	10001d2c <ph_merge_two_pass>
10001d96:	0039      	movs	r1, r7
10001d98:	0002      	movs	r2, r0
10001d9a:	0030      	movs	r0, r6
10001d9c:	f7ff ff74 	bl	10001c88 <ph_merge_nodes>
10001da0:	0004      	movs	r4, r0
10001da2:	e7d3      	b.n	10001d4c <ph_merge_two_pass+0x20>
10001da4:	4642      	mov	r2, r8
10001da6:	4641      	mov	r1, r8
10001da8:	195d      	adds	r5, r3, r5
10001daa:	70af      	strb	r7, [r5, #2]
10001dac:	189a      	adds	r2, r3, r2
10001dae:	5c5b      	ldrb	r3, [r3, r1]
10001db0:	2b00      	cmp	r3, #0
10001db2:	d000      	beq.n	10001db6 <ph_merge_two_pass+0x8a>
10001db4:	706b      	strb	r3, [r5, #1]
10001db6:	7014      	strb	r4, [r2, #0]
10001db8:	e7e9      	b.n	10001d8e <ph_merge_two_pass+0x62>
10001dba:	46c0      	nop			; (mov r8, r8)

10001dbc <ph_remove_any_head>:
10001dbc:	b5f0      	push	{r4, r5, r6, r7, lr}
10001dbe:	4657      	mov	r7, sl
10001dc0:	4645      	mov	r5, r8
10001dc2:	46de      	mov	lr, fp
10001dc4:	464e      	mov	r6, r9
10001dc6:	b5e0      	push	{r5, r6, r7, lr}
10001dc8:	000d      	movs	r5, r1
10001dca:	006b      	lsls	r3, r5, #1
10001dcc:	6801      	ldr	r1, [r0, #0]
10001dce:	195b      	adds	r3, r3, r5
10001dd0:	1edf      	subs	r7, r3, #3
10001dd2:	0004      	movs	r4, r0
10001dd4:	5dc8      	ldrb	r0, [r1, r7]
10001dd6:	b083      	sub	sp, #12
10001dd8:	9201      	str	r2, [sp, #4]
10001dda:	19ca      	adds	r2, r1, r7
10001ddc:	2800      	cmp	r0, #0
10001dde:	d04c      	beq.n	10001e7a <ph_remove_any_head+0xbe>
10001de0:	0043      	lsls	r3, r0, #1
10001de2:	181b      	adds	r3, r3, r0
10001de4:	3b03      	subs	r3, #3
10001de6:	18cb      	adds	r3, r1, r3
10001de8:	785e      	ldrb	r6, [r3, #1]
10001dea:	46b4      	mov	ip, r6
10001dec:	2e00      	cmp	r6, #0
10001dee:	d116      	bne.n	10001e1e <ph_remove_any_head+0x62>
10001df0:	9e01      	ldr	r6, [sp, #4]
10001df2:	2e00      	cmp	r6, #0
10001df4:	d03e      	beq.n	10001e74 <ph_remove_any_head+0xb8>
10001df6:	7be6      	ldrb	r6, [r4, #15]
10001df8:	2e00      	cmp	r6, #0
10001dfa:	d004      	beq.n	10001e06 <ph_remove_any_head+0x4a>
10001dfc:	0073      	lsls	r3, r6, #1
10001dfe:	199b      	adds	r3, r3, r6
10001e00:	18cb      	adds	r3, r1, r3
10001e02:	3b03      	subs	r3, #3
10001e04:	705d      	strb	r5, [r3, #1]
10001e06:	73e5      	strb	r5, [r4, #15]
10001e08:	2800      	cmp	r0, #0
10001e0a:	d12f      	bne.n	10001e6c <ph_remove_any_head+0xb0>
10001e0c:	2300      	movs	r3, #0
10001e0e:	7053      	strb	r3, [r2, #1]
10001e10:	b003      	add	sp, #12
10001e12:	bcf0      	pop	{r4, r5, r6, r7}
10001e14:	46bb      	mov	fp, r7
10001e16:	46b2      	mov	sl, r6
10001e18:	46a9      	mov	r9, r5
10001e1a:	46a0      	mov	r8, r4
10001e1c:	bdf0      	pop	{r4, r5, r6, r7, pc}
10001e1e:	0072      	lsls	r2, r6, #1
10001e20:	4462      	add	r2, ip
10001e22:	3a03      	subs	r2, #3
10001e24:	1889      	adds	r1, r1, r2
10001e26:	784a      	ldrb	r2, [r1, #1]
10001e28:	4690      	mov	r8, r2
10001e2a:	2200      	movs	r2, #0
10001e2c:	704a      	strb	r2, [r1, #1]
10001e2e:	4691      	mov	r9, r2
10001e30:	705a      	strb	r2, [r3, #1]
10001e32:	0001      	movs	r1, r0
10001e34:	0032      	movs	r2, r6
10001e36:	0020      	movs	r0, r4
10001e38:	f7ff ff26 	bl	10001c88 <ph_merge_nodes>
10001e3c:	4643      	mov	r3, r8
10001e3e:	4682      	mov	sl, r0
10001e40:	2b00      	cmp	r3, #0
10001e42:	d007      	beq.n	10001e54 <ph_remove_any_head+0x98>
10001e44:	005b      	lsls	r3, r3, #1
10001e46:	6821      	ldr	r1, [r4, #0]
10001e48:	4443      	add	r3, r8
10001e4a:	3b03      	subs	r3, #3
10001e4c:	18cb      	adds	r3, r1, r3
10001e4e:	785a      	ldrb	r2, [r3, #1]
10001e50:	2a00      	cmp	r2, #0
10001e52:	d116      	bne.n	10001e82 <ph_remove_any_head+0xc6>
10001e54:	4642      	mov	r2, r8
10001e56:	4651      	mov	r1, sl
10001e58:	0020      	movs	r0, r4
10001e5a:	f7ff ff15 	bl	10001c88 <ph_merge_nodes>
10001e5e:	6821      	ldr	r1, [r4, #0]
10001e60:	9b01      	ldr	r3, [sp, #4]
10001e62:	19ca      	adds	r2, r1, r7
10001e64:	2b00      	cmp	r3, #0
10001e66:	d1c6      	bne.n	10001df6 <ph_remove_any_head+0x3a>
10001e68:	2800      	cmp	r0, #0
10001e6a:	d0cf      	beq.n	10001e0c <ph_remove_any_head+0x50>
10001e6c:	0043      	lsls	r3, r0, #1
10001e6e:	181b      	adds	r3, r3, r0
10001e70:	3b03      	subs	r3, #3
10001e72:	18cb      	adds	r3, r1, r3
10001e74:	2100      	movs	r1, #0
10001e76:	7099      	strb	r1, [r3, #2]
10001e78:	e7c8      	b.n	10001e0c <ph_remove_any_head+0x50>
10001e7a:	9b01      	ldr	r3, [sp, #4]
10001e7c:	2b00      	cmp	r3, #0
10001e7e:	d1ba      	bne.n	10001df6 <ph_remove_any_head+0x3a>
10001e80:	e7c4      	b.n	10001e0c <ph_remove_any_head+0x50>
10001e82:	0050      	lsls	r0, r2, #1
10001e84:	1880      	adds	r0, r0, r2
10001e86:	3803      	subs	r0, #3
10001e88:	1809      	adds	r1, r1, r0
10001e8a:	7848      	ldrb	r0, [r1, #1]
10001e8c:	4683      	mov	fp, r0
10001e8e:	4648      	mov	r0, r9
10001e90:	7048      	strb	r0, [r1, #1]
10001e92:	7058      	strb	r0, [r3, #1]
10001e94:	4641      	mov	r1, r8
10001e96:	0020      	movs	r0, r4
10001e98:	f7ff fef6 	bl	10001c88 <ph_merge_nodes>
10001e9c:	4659      	mov	r1, fp
10001e9e:	4680      	mov	r8, r0
10001ea0:	0020      	movs	r0, r4
10001ea2:	f7ff ff43 	bl	10001d2c <ph_merge_two_pass>
10001ea6:	4641      	mov	r1, r8
10001ea8:	0002      	movs	r2, r0
10001eaa:	0020      	movs	r0, r4
10001eac:	f7ff feec 	bl	10001c88 <ph_merge_nodes>
10001eb0:	4680      	mov	r8, r0
10001eb2:	e7cf      	b.n	10001e54 <ph_remove_any_head+0x98>

10001eb4 <ph_remove_head>:
10001eb4:	b5f0      	push	{r4, r5, r6, r7, lr}
10001eb6:	4657      	mov	r7, sl
10001eb8:	4645      	mov	r5, r8
10001eba:	46de      	mov	lr, fp
10001ebc:	464e      	mov	r6, r9
10001ebe:	b5e0      	push	{r5, r6, r7, lr}
10001ec0:	b083      	sub	sp, #12
10001ec2:	9101      	str	r1, [sp, #4]
10001ec4:	7b45      	ldrb	r5, [r0, #13]
10001ec6:	0004      	movs	r4, r0
10001ec8:	006b      	lsls	r3, r5, #1
10001eca:	6800      	ldr	r0, [r0, #0]
10001ecc:	195b      	adds	r3, r3, r5
10001ece:	1edf      	subs	r7, r3, #3
10001ed0:	5dc1      	ldrb	r1, [r0, r7]
10001ed2:	19c2      	adds	r2, r0, r7
10001ed4:	2900      	cmp	r1, #0
10001ed6:	d04e      	beq.n	10001f76 <ph_remove_head+0xc2>
10001ed8:	004b      	lsls	r3, r1, #1
10001eda:	185b      	adds	r3, r3, r1
10001edc:	3b03      	subs	r3, #3
10001ede:	18c3      	adds	r3, r0, r3
10001ee0:	785e      	ldrb	r6, [r3, #1]
10001ee2:	46b4      	mov	ip, r6
10001ee4:	2e00      	cmp	r6, #0
10001ee6:	d118      	bne.n	10001f1a <ph_remove_head+0x66>
10001ee8:	9e01      	ldr	r6, [sp, #4]
10001eea:	2e00      	cmp	r6, #0
10001eec:	d040      	beq.n	10001f70 <ph_remove_head+0xbc>
10001eee:	7be6      	ldrb	r6, [r4, #15]
10001ef0:	2e00      	cmp	r6, #0
10001ef2:	d004      	beq.n	10001efe <ph_remove_head+0x4a>
10001ef4:	0073      	lsls	r3, r6, #1
10001ef6:	199b      	adds	r3, r3, r6
10001ef8:	18c3      	adds	r3, r0, r3
10001efa:	3b03      	subs	r3, #3
10001efc:	705d      	strb	r5, [r3, #1]
10001efe:	73e5      	strb	r5, [r4, #15]
10001f00:	2900      	cmp	r1, #0
10001f02:	d131      	bne.n	10001f68 <ph_remove_head+0xb4>
10001f04:	2300      	movs	r3, #0
10001f06:	0028      	movs	r0, r5
10001f08:	7053      	strb	r3, [r2, #1]
10001f0a:	7361      	strb	r1, [r4, #13]
10001f0c:	b003      	add	sp, #12
10001f0e:	bcf0      	pop	{r4, r5, r6, r7}
10001f10:	46bb      	mov	fp, r7
10001f12:	46b2      	mov	sl, r6
10001f14:	46a9      	mov	r9, r5
10001f16:	46a0      	mov	r8, r4
10001f18:	bdf0      	pop	{r4, r5, r6, r7, pc}
10001f1a:	0072      	lsls	r2, r6, #1
10001f1c:	4462      	add	r2, ip
10001f1e:	3a03      	subs	r2, #3
10001f20:	1880      	adds	r0, r0, r2
10001f22:	7842      	ldrb	r2, [r0, #1]
10001f24:	4690      	mov	r8, r2
10001f26:	2200      	movs	r2, #0
10001f28:	7042      	strb	r2, [r0, #1]
10001f2a:	4691      	mov	r9, r2
10001f2c:	705a      	strb	r2, [r3, #1]
10001f2e:	0020      	movs	r0, r4
10001f30:	0032      	movs	r2, r6
10001f32:	f7ff fea9 	bl	10001c88 <ph_merge_nodes>
10001f36:	4643      	mov	r3, r8
10001f38:	4682      	mov	sl, r0
10001f3a:	2b00      	cmp	r3, #0
10001f3c:	d007      	beq.n	10001f4e <ph_remove_head+0x9a>
10001f3e:	005b      	lsls	r3, r3, #1
10001f40:	6821      	ldr	r1, [r4, #0]
10001f42:	4443      	add	r3, r8
10001f44:	3b03      	subs	r3, #3
10001f46:	18cb      	adds	r3, r1, r3
10001f48:	785a      	ldrb	r2, [r3, #1]
10001f4a:	2a00      	cmp	r2, #0
10001f4c:	d117      	bne.n	10001f7e <ph_remove_head+0xca>
10001f4e:	4642      	mov	r2, r8
10001f50:	4651      	mov	r1, sl
10001f52:	0020      	movs	r0, r4
10001f54:	f7ff fe98 	bl	10001c88 <ph_merge_nodes>
10001f58:	9b01      	ldr	r3, [sp, #4]
10001f5a:	0001      	movs	r1, r0
10001f5c:	6820      	ldr	r0, [r4, #0]
10001f5e:	19c2      	adds	r2, r0, r7
10001f60:	2b00      	cmp	r3, #0
10001f62:	d1c4      	bne.n	10001eee <ph_remove_head+0x3a>
10001f64:	2900      	cmp	r1, #0
10001f66:	d0cd      	beq.n	10001f04 <ph_remove_head+0x50>
10001f68:	004b      	lsls	r3, r1, #1
10001f6a:	185b      	adds	r3, r3, r1
10001f6c:	3b03      	subs	r3, #3
10001f6e:	18c3      	adds	r3, r0, r3
10001f70:	2000      	movs	r0, #0
10001f72:	7098      	strb	r0, [r3, #2]
10001f74:	e7c6      	b.n	10001f04 <ph_remove_head+0x50>
10001f76:	9b01      	ldr	r3, [sp, #4]
10001f78:	2b00      	cmp	r3, #0
10001f7a:	d1b8      	bne.n	10001eee <ph_remove_head+0x3a>
10001f7c:	e7c2      	b.n	10001f04 <ph_remove_head+0x50>
10001f7e:	0050      	lsls	r0, r2, #1
10001f80:	1880      	adds	r0, r0, r2
10001f82:	3803      	subs	r0, #3
10001f84:	1809      	adds	r1, r1, r0
10001f86:	7848      	ldrb	r0, [r1, #1]
10001f88:	4683      	mov	fp, r0
10001f8a:	4648      	mov	r0, r9
10001f8c:	7048      	strb	r0, [r1, #1]
10001f8e:	7058      	strb	r0, [r3, #1]
10001f90:	4641      	mov	r1, r8
10001f92:	0020      	movs	r0, r4
10001f94:	f7ff fe78 	bl	10001c88 <ph_merge_nodes>
10001f98:	4659      	mov	r1, fp
10001f9a:	4680      	mov	r8, r0
10001f9c:	0020      	movs	r0, r4
10001f9e:	f7ff fec5 	bl	10001d2c <ph_merge_two_pass>
10001fa2:	4641      	mov	r1, r8
10001fa4:	0002      	movs	r2, r0
10001fa6:	0020      	movs	r0, r4
10001fa8:	f7ff fe6e 	bl	10001c88 <ph_merge_nodes>
10001fac:	4680      	mov	r8, r0
10001fae:	e7ce      	b.n	10001f4e <ph_remove_head+0x9a>

10001fb0 <ph_remove_and_free_node>:
10001fb0:	b570      	push	{r4, r5, r6, lr}
10001fb2:	0004      	movs	r4, r0
10001fb4:	2900      	cmp	r1, #0
10001fb6:	d02c      	beq.n	10002012 <ph_remove_and_free_node+0x62>
10001fb8:	7b43      	ldrb	r3, [r0, #13]
10001fba:	428b      	cmp	r3, r1
10001fbc:	d02e      	beq.n	1000201c <ph_remove_and_free_node+0x6c>
10001fbe:	6805      	ldr	r5, [r0, #0]
10001fc0:	0048      	lsls	r0, r1, #1
10001fc2:	1840      	adds	r0, r0, r1
10001fc4:	3803      	subs	r0, #3
10001fc6:	1828      	adds	r0, r5, r0
10001fc8:	7882      	ldrb	r2, [r0, #2]
10001fca:	2a00      	cmp	r2, #0
10001fcc:	d021      	beq.n	10002012 <ph_remove_and_free_node+0x62>
10001fce:	0053      	lsls	r3, r2, #1
10001fd0:	189b      	adds	r3, r3, r2
10001fd2:	3b03      	subs	r3, #3
10001fd4:	5cea      	ldrb	r2, [r5, r3]
10001fd6:	18ee      	adds	r6, r5, r3
10001fd8:	428a      	cmp	r2, r1
10001fda:	d102      	bne.n	10001fe2 <ph_remove_and_free_node+0x32>
10001fdc:	e01b      	b.n	10002016 <ph_remove_and_free_node+0x66>
10001fde:	2a00      	cmp	r2, #0
10001fe0:	d008      	beq.n	10001ff4 <ph_remove_and_free_node+0x44>
10001fe2:	0053      	lsls	r3, r2, #1
10001fe4:	189b      	adds	r3, r3, r2
10001fe6:	3b03      	subs	r3, #3
10001fe8:	18eb      	adds	r3, r5, r3
10001fea:	785a      	ldrb	r2, [r3, #1]
10001fec:	428a      	cmp	r2, r1
10001fee:	d1f6      	bne.n	10001fde <ph_remove_and_free_node+0x2e>
10001ff0:	7842      	ldrb	r2, [r0, #1]
10001ff2:	705a      	strb	r2, [r3, #1]
10001ff4:	2300      	movs	r3, #0
10001ff6:	2201      	movs	r2, #1
10001ff8:	7083      	strb	r3, [r0, #2]
10001ffa:	7043      	strb	r3, [r0, #1]
10001ffc:	0020      	movs	r0, r4
10001ffe:	f7ff fedd 	bl	10001dbc <ph_remove_any_head>
10002002:	7b61      	ldrb	r1, [r4, #13]
10002004:	0002      	movs	r2, r0
10002006:	0020      	movs	r0, r4
10002008:	f7ff fe3e 	bl	10001c88 <ph_merge_nodes>
1000200c:	7360      	strb	r0, [r4, #13]
1000200e:	2001      	movs	r0, #1
10002010:	e000      	b.n	10002014 <ph_remove_and_free_node+0x64>
10002012:	2000      	movs	r0, #0
10002014:	bd70      	pop	{r4, r5, r6, pc}
10002016:	7843      	ldrb	r3, [r0, #1]
10002018:	7033      	strb	r3, [r6, #0]
1000201a:	e7eb      	b.n	10001ff4 <ph_remove_and_free_node+0x44>
1000201c:	2201      	movs	r2, #1
1000201e:	0019      	movs	r1, r3
10002020:	f7ff fecc 	bl	10001dbc <ph_remove_any_head>
10002024:	7360      	strb	r0, [r4, #13]
10002026:	2001      	movs	r0, #1
10002028:	e7f4      	b.n	10002014 <ph_remove_and_free_node+0x64>
1000202a:	46c0      	nop			; (mov r8, r8)

1000202c <mutex_init>:
1000202c:	b510      	push	{r4, lr}
1000202e:	0004      	movs	r4, r0
10002030:	f7fe fe80 	bl	10000d34 <next_striped_spin_lock_num>
10002034:	0001      	movs	r1, r0
10002036:	0020      	movs	r0, r4
10002038:	f7ff f94a 	bl	100012d0 <lock_init>
1000203c:	23ff      	movs	r3, #255	; 0xff
1000203e:	7123      	strb	r3, [r4, #4]
10002040:	f3bf 8f5f 	dmb	sy
10002044:	bd10      	pop	{r4, pc}
10002046:	46c0      	nop			; (mov r8, r8)

10002048 <recursive_mutex_init>:
10002048:	b510      	push	{r4, lr}
1000204a:	0004      	movs	r4, r0
1000204c:	f7fe fe72 	bl	10000d34 <next_striped_spin_lock_num>
10002050:	0001      	movs	r1, r0
10002052:	0020      	movs	r0, r4
10002054:	f7ff f93c 	bl	100012d0 <lock_init>
10002058:	23ff      	movs	r3, #255	; 0xff
1000205a:	80a3      	strh	r3, [r4, #4]
1000205c:	f3bf 8f5f 	dmb	sy
10002060:	bd10      	pop	{r4, pc}
10002062:	46c0      	nop			; (mov r8, r8)

10002064 <critical_section_init>:
10002064:	b510      	push	{r4, lr}
10002066:	0004      	movs	r4, r0
10002068:	2001      	movs	r0, #1
1000206a:	f7fe fe6f 	bl	10000d4c <spin_lock_claim_unused>
1000206e:	4b04      	ldr	r3, [pc, #16]	; (10002080 <critical_section_init+0x1c>)
10002070:	469c      	mov	ip, r3
10002072:	4460      	add	r0, ip
10002074:	0080      	lsls	r0, r0, #2
10002076:	6020      	str	r0, [r4, #0]
10002078:	f3bf 8f5f 	dmb	sy
1000207c:	bd10      	pop	{r4, pc}
1000207e:	46c0      	nop			; (mov r8, r8)
10002080:	34000040 	.word	0x34000040

10002084 <runtime_init>:
10002084:	4b2c      	ldr	r3, [pc, #176]	; (10002138 <runtime_init+0xb4>)
10002086:	4a2d      	ldr	r2, [pc, #180]	; (1000213c <runtime_init+0xb8>)
10002088:	b570      	push	{r4, r5, r6, lr}
1000208a:	601a      	str	r2, [r3, #0]
1000208c:	4a2c      	ldr	r2, [pc, #176]	; (10002140 <runtime_init+0xbc>)
1000208e:	4b2d      	ldr	r3, [pc, #180]	; (10002144 <runtime_init+0xc0>)
10002090:	492d      	ldr	r1, [pc, #180]	; (10002148 <runtime_init+0xc4>)
10002092:	601a      	str	r2, [r3, #0]
10002094:	0014      	movs	r4, r2
10002096:	688b      	ldr	r3, [r1, #8]
10002098:	439c      	bics	r4, r3
1000209a:	d1fb      	bne.n	10002094 <runtime_init+0x10>
1000209c:	4d2b      	ldr	r5, [pc, #172]	; (1000214c <runtime_init+0xc8>)
1000209e:	4e2c      	ldr	r6, [pc, #176]	; (10002150 <runtime_init+0xcc>)
100020a0:	42b5      	cmp	r5, r6
100020a2:	d208      	bcs.n	100020b6 <runtime_init+0x32>
100020a4:	3e01      	subs	r6, #1
100020a6:	1b76      	subs	r6, r6, r5
100020a8:	08b6      	lsrs	r6, r6, #2
100020aa:	cd08      	ldmia	r5!, {r3}
100020ac:	4798      	blx	r3
100020ae:	0023      	movs	r3, r4
100020b0:	3401      	adds	r4, #1
100020b2:	42b3      	cmp	r3, r6
100020b4:	d1f9      	bne.n	100020aa <runtime_init+0x26>
100020b6:	f000 f87d 	bl	100021b4 <clocks_init>
100020ba:	4a26      	ldr	r2, [pc, #152]	; (10002154 <runtime_init+0xd0>)
100020bc:	4b21      	ldr	r3, [pc, #132]	; (10002144 <runtime_init+0xc0>)
100020be:	601a      	str	r2, [r3, #0]
100020c0:	4a21      	ldr	r2, [pc, #132]	; (10002148 <runtime_init+0xc4>)
100020c2:	6893      	ldr	r3, [r2, #8]
100020c4:	43db      	mvns	r3, r3
100020c6:	01db      	lsls	r3, r3, #7
100020c8:	09dd      	lsrs	r5, r3, #7
100020ca:	2b00      	cmp	r3, #0
100020cc:	d1f9      	bne.n	100020c2 <runtime_init+0x3e>
100020ce:	2240      	movs	r2, #64	; 0x40
100020d0:	4b21      	ldr	r3, [pc, #132]	; (10002158 <runtime_init+0xd4>)
100020d2:	4c22      	ldr	r4, [pc, #136]	; (1000215c <runtime_init+0xd8>)
100020d4:	4e22      	ldr	r6, [pc, #136]	; (10002160 <runtime_init+0xdc>)
100020d6:	679a      	str	r2, [r3, #120]	; 0x78
100020d8:	675a      	str	r2, [r3, #116]	; 0x74
100020da:	671a      	str	r2, [r3, #112]	; 0x70
100020dc:	66da      	str	r2, [r3, #108]	; 0x6c
100020de:	42b4      	cmp	r4, r6
100020e0:	d208      	bcs.n	100020f4 <runtime_init+0x70>
100020e2:	6823      	ldr	r3, [r4, #0]
100020e4:	0020      	movs	r0, r4
100020e6:	2b00      	cmp	r3, #0
100020e8:	d020      	beq.n	1000212c <runtime_init+0xa8>
100020ea:	3408      	adds	r4, #8
100020ec:	f7ff ffac 	bl	10002048 <recursive_mutex_init>
100020f0:	42b4      	cmp	r4, r6
100020f2:	d3f6      	bcc.n	100020e2 <runtime_init+0x5e>
100020f4:	4e1b      	ldr	r6, [pc, #108]	; (10002164 <runtime_init+0xe0>)
100020f6:	4c1c      	ldr	r4, [pc, #112]	; (10002168 <runtime_init+0xe4>)
100020f8:	22c0      	movs	r2, #192	; 0xc0
100020fa:	68a1      	ldr	r1, [r4, #8]
100020fc:	0030      	movs	r0, r6
100020fe:	f002 fc51 	bl	100049a4 <__wrap___aeabi_memcpy>
10002102:	60a6      	str	r6, [r4, #8]
10002104:	f7fe fe08 	bl	10000d18 <spin_locks_reset>
10002108:	f7ff f8b8 	bl	1000127c <irq_init_priorities>
1000210c:	f7ff fb0c 	bl	10001728 <alarm_pool_init_default>
10002110:	4c16      	ldr	r4, [pc, #88]	; (1000216c <runtime_init+0xe8>)
10002112:	4e17      	ldr	r6, [pc, #92]	; (10002170 <runtime_init+0xec>)
10002114:	42b4      	cmp	r4, r6
10002116:	d208      	bcs.n	1000212a <runtime_init+0xa6>
10002118:	3e01      	subs	r6, #1
1000211a:	1b36      	subs	r6, r6, r4
1000211c:	08b6      	lsrs	r6, r6, #2
1000211e:	cc08      	ldmia	r4!, {r3}
10002120:	4798      	blx	r3
10002122:	002b      	movs	r3, r5
10002124:	3501      	adds	r5, #1
10002126:	429e      	cmp	r6, r3
10002128:	d1f9      	bne.n	1000211e <runtime_init+0x9a>
1000212a:	bd70      	pop	{r4, r5, r6, pc}
1000212c:	3408      	adds	r4, #8
1000212e:	f7ff ff7d 	bl	1000202c <mutex_init>
10002132:	42b4      	cmp	r4, r6
10002134:	d3d5      	bcc.n	100020e2 <runtime_init+0x5e>
10002136:	e7dd      	b.n	100020f4 <runtime_init+0x70>
10002138:	4000e000 	.word	0x4000e000
1000213c:	fefbcdbf 	.word	0xfefbcdbf
10002140:	003c7ffe 	.word	0x003c7ffe
10002144:	4000f000 	.word	0x4000f000
10002148:	4000c000 	.word	0x4000c000
1000214c:	20001e80 	.word	0x20001e80
10002150:	20001e90 	.word	0x20001e90
10002154:	01ffffff 	.word	0x01ffffff
10002158:	4001f000 	.word	0x4001f000
1000215c:	20001e70 	.word	0x20001e70
10002160:	20001e80 	.word	0x20001e80
10002164:	20000000 	.word	0x20000000
10002168:	e000ed00 	.word	0xe000ed00
1000216c:	20001e90 	.word	0x20001e90
10002170:	20001e98 	.word	0x20001e98

10002174 <exit>:
10002174:	be00      	bkpt	0x0000
10002176:	e7fd      	b.n	10002174 <exit>

10002178 <panic>:
10002178:	b40f      	push	{r0, r1, r2, r3}
1000217a:	b500      	push	{lr}
1000217c:	4808      	ldr	r0, [pc, #32]	; (100021a0 <panic+0x28>)
1000217e:	b083      	sub	sp, #12
10002180:	f002 fcf4 	bl	10004b6c <__wrap_puts>
10002184:	9b04      	ldr	r3, [sp, #16]
10002186:	2b00      	cmp	r3, #0
10002188:	d007      	beq.n	1000219a <panic+0x22>
1000218a:	a905      	add	r1, sp, #20
1000218c:	0018      	movs	r0, r3
1000218e:	9101      	str	r1, [sp, #4]
10002190:	f001 fcf8 	bl	10003b84 <weak_raw_vprintf>
10002194:	4803      	ldr	r0, [pc, #12]	; (100021a4 <panic+0x2c>)
10002196:	f002 fce9 	bl	10004b6c <__wrap_puts>
1000219a:	be00      	bkpt	0x0000
1000219c:	e7fd      	b.n	1000219a <panic+0x22>
1000219e:	46c0      	nop			; (mov r8, r8)
100021a0:	100078e0 	.word	0x100078e0
100021a4:	100078f0 	.word	0x100078f0

100021a8 <hard_assertion_failure>:
100021a8:	b510      	push	{r4, lr}
100021aa:	4801      	ldr	r0, [pc, #4]	; (100021b0 <hard_assertion_failure+0x8>)
100021ac:	f7ff ffe4 	bl	10002178 <panic>
100021b0:	100078f4 	.word	0x100078f4

100021b4 <clocks_init>:
100021b4:	b530      	push	{r4, r5, lr}
100021b6:	200c      	movs	r0, #12
100021b8:	b083      	sub	sp, #12
100021ba:	f000 f9b1 	bl	10002520 <watchdog_start_tick>
100021be:	f7fe fda3 	bl	10000d08 <running_on_fpga>
100021c2:	2800      	cmp	r0, #0
100021c4:	d00e      	beq.n	100021e4 <clocks_init+0x30>
100021c6:	4b94      	ldr	r3, [pc, #592]	; (10002418 <clocks_init+0x264>)
100021c8:	4a94      	ldr	r2, [pc, #592]	; (1000241c <clocks_init+0x268>)
100021ca:	601a      	str	r2, [r3, #0]
100021cc:	605a      	str	r2, [r3, #4]
100021ce:	609a      	str	r2, [r3, #8]
100021d0:	60da      	str	r2, [r3, #12]
100021d2:	611a      	str	r2, [r3, #16]
100021d4:	615a      	str	r2, [r3, #20]
100021d6:	619a      	str	r2, [r3, #24]
100021d8:	61da      	str	r2, [r3, #28]
100021da:	621a      	str	r2, [r3, #32]
100021dc:	4a90      	ldr	r2, [pc, #576]	; (10002420 <clocks_init+0x26c>)
100021de:	625a      	str	r2, [r3, #36]	; 0x24
100021e0:	b003      	add	sp, #12
100021e2:	bd30      	pop	{r4, r5, pc}
100021e4:	4c8f      	ldr	r4, [pc, #572]	; (10002424 <clocks_init+0x270>)
100021e6:	67a0      	str	r0, [r4, #120]	; 0x78
100021e8:	f000 f9ee 	bl	100025c8 <xosc_init>
100021ec:	2201      	movs	r2, #1
100021ee:	4b8e      	ldr	r3, [pc, #568]	; (10002428 <clocks_init+0x274>)
100021f0:	601a      	str	r2, [r3, #0]
100021f2:	6c63      	ldr	r3, [r4, #68]	; 0x44
100021f4:	2b01      	cmp	r3, #1
100021f6:	d1fc      	bne.n	100021f2 <clocks_init+0x3e>
100021f8:	2203      	movs	r2, #3
100021fa:	4b8c      	ldr	r3, [pc, #560]	; (1000242c <clocks_init+0x278>)
100021fc:	601a      	str	r2, [r3, #0]
100021fe:	4a89      	ldr	r2, [pc, #548]	; (10002424 <clocks_init+0x270>)
10002200:	6b93      	ldr	r3, [r2, #56]	; 0x38
10002202:	2b01      	cmp	r3, #1
10002204:	d1fc      	bne.n	10002200 <clocks_init+0x4c>
10002206:	3301      	adds	r3, #1
10002208:	2101      	movs	r1, #1
1000220a:	4a89      	ldr	r2, [pc, #548]	; (10002430 <clocks_init+0x27c>)
1000220c:	4889      	ldr	r0, [pc, #548]	; (10002434 <clocks_init+0x280>)
1000220e:	9300      	str	r3, [sp, #0]
10002210:	3304      	adds	r3, #4
10002212:	f000 f92d 	bl	10002470 <pll_init>
10002216:	2305      	movs	r3, #5
10002218:	4a87      	ldr	r2, [pc, #540]	; (10002438 <clocks_init+0x284>)
1000221a:	9300      	str	r3, [sp, #0]
1000221c:	2101      	movs	r1, #1
1000221e:	4887      	ldr	r0, [pc, #540]	; (1000243c <clocks_init+0x288>)
10002220:	f000 f926 	bl	10002470 <pll_init>
10002224:	4b86      	ldr	r3, [pc, #536]	; (10002440 <clocks_init+0x28c>)
10002226:	685a      	ldr	r2, [r3, #4]
10002228:	2aff      	cmp	r2, #255	; 0xff
1000222a:	d802      	bhi.n	10002232 <clocks_init+0x7e>
1000222c:	2280      	movs	r2, #128	; 0x80
1000222e:	0052      	lsls	r2, r2, #1
10002230:	605a      	str	r2, [r3, #4]
10002232:	2280      	movs	r2, #128	; 0x80
10002234:	4c78      	ldr	r4, [pc, #480]	; (10002418 <clocks_init+0x264>)
10002236:	4b7d      	ldr	r3, [pc, #500]	; (1000242c <clocks_init+0x278>)
10002238:	6921      	ldr	r1, [r4, #16]
1000223a:	0112      	lsls	r2, r2, #4
1000223c:	4d80      	ldr	r5, [pc, #512]	; (10002440 <clocks_init+0x28c>)
1000223e:	601a      	str	r2, [r3, #0]
10002240:	2900      	cmp	r1, #0
10002242:	d005      	beq.n	10002250 <clocks_init+0x9c>
10002244:	6960      	ldr	r0, [r4, #20]
10002246:	f001 fd17 	bl	10003c78 <__wrap___aeabi_uidiv>
1000224a:	3001      	adds	r0, #1
1000224c:	3801      	subs	r0, #1
1000224e:	d1fd      	bne.n	1000224c <clocks_init+0x98>
10002250:	21e0      	movs	r1, #224	; 0xe0
10002252:	4b7b      	ldr	r3, [pc, #492]	; (10002440 <clocks_init+0x28c>)
10002254:	2002      	movs	r0, #2
10002256:	681a      	ldr	r2, [r3, #0]
10002258:	4011      	ands	r1, r2
1000225a:	2280      	movs	r2, #128	; 0x80
1000225c:	0152      	lsls	r2, r2, #5
1000225e:	432a      	orrs	r2, r5
10002260:	6011      	str	r1, [r2, #0]
10002262:	6819      	ldr	r1, [r3, #0]
10002264:	4048      	eors	r0, r1
10002266:	2103      	movs	r1, #3
10002268:	4001      	ands	r1, r0
1000226a:	6011      	str	r1, [r2, #0]
1000226c:	2104      	movs	r1, #4
1000226e:	689a      	ldr	r2, [r3, #8]
10002270:	4211      	tst	r1, r2
10002272:	d0fc      	beq.n	1000226e <clocks_init+0xba>
10002274:	2280      	movs	r2, #128	; 0x80
10002276:	2180      	movs	r1, #128	; 0x80
10002278:	0192      	lsls	r2, r2, #6
1000227a:	432a      	orrs	r2, r5
1000227c:	0109      	lsls	r1, r1, #4
1000227e:	6011      	str	r1, [r2, #0]
10002280:	2280      	movs	r2, #128	; 0x80
10002282:	0052      	lsls	r2, r2, #1
10002284:	605a      	str	r2, [r3, #4]
10002286:	4b6f      	ldr	r3, [pc, #444]	; (10002444 <clocks_init+0x290>)
10002288:	6123      	str	r3, [r4, #16]
1000228a:	4b6f      	ldr	r3, [pc, #444]	; (10002448 <clocks_init+0x294>)
1000228c:	6859      	ldr	r1, [r3, #4]
1000228e:	29ff      	cmp	r1, #255	; 0xff
10002290:	d800      	bhi.n	10002294 <clocks_init+0xe0>
10002292:	605a      	str	r2, [r3, #4]
10002294:	2103      	movs	r1, #3
10002296:	4a64      	ldr	r2, [pc, #400]	; (10002428 <clocks_init+0x274>)
10002298:	4b6b      	ldr	r3, [pc, #428]	; (10002448 <clocks_init+0x294>)
1000229a:	6011      	str	r1, [r2, #0]
1000229c:	3902      	subs	r1, #2
1000229e:	689a      	ldr	r2, [r3, #8]
100022a0:	4211      	tst	r1, r2
100022a2:	d0fc      	beq.n	1000229e <clocks_init+0xea>
100022a4:	20e0      	movs	r0, #224	; 0xe0
100022a6:	681a      	ldr	r2, [r3, #0]
100022a8:	4010      	ands	r0, r2
100022aa:	2280      	movs	r2, #128	; 0x80
100022ac:	0152      	lsls	r2, r2, #5
100022ae:	431a      	orrs	r2, r3
100022b0:	6010      	str	r0, [r2, #0]
100022b2:	6818      	ldr	r0, [r3, #0]
100022b4:	4048      	eors	r0, r1
100022b6:	2103      	movs	r1, #3
100022b8:	4001      	ands	r1, r0
100022ba:	2002      	movs	r0, #2
100022bc:	6011      	str	r1, [r2, #0]
100022be:	4962      	ldr	r1, [pc, #392]	; (10002448 <clocks_init+0x294>)
100022c0:	688a      	ldr	r2, [r1, #8]
100022c2:	4210      	tst	r0, r2
100022c4:	d0fc      	beq.n	100022c0 <clocks_init+0x10c>
100022c6:	2280      	movs	r2, #128	; 0x80
100022c8:	0192      	lsls	r2, r2, #6
100022ca:	4313      	orrs	r3, r2
100022cc:	2280      	movs	r2, #128	; 0x80
100022ce:	0112      	lsls	r2, r2, #4
100022d0:	601a      	str	r2, [r3, #0]
100022d2:	2280      	movs	r2, #128	; 0x80
100022d4:	4b5d      	ldr	r3, [pc, #372]	; (1000244c <clocks_init+0x298>)
100022d6:	0052      	lsls	r2, r2, #1
100022d8:	604a      	str	r2, [r1, #4]
100022da:	6163      	str	r3, [r4, #20]
100022dc:	4b5c      	ldr	r3, [pc, #368]	; (10002450 <clocks_init+0x29c>)
100022de:	6859      	ldr	r1, [r3, #4]
100022e0:	29ff      	cmp	r1, #255	; 0xff
100022e2:	d800      	bhi.n	100022e6 <clocks_init+0x132>
100022e4:	605a      	str	r2, [r3, #4]
100022e6:	2280      	movs	r2, #128	; 0x80
100022e8:	4b5a      	ldr	r3, [pc, #360]	; (10002454 <clocks_init+0x2a0>)
100022ea:	69e1      	ldr	r1, [r4, #28]
100022ec:	0112      	lsls	r2, r2, #4
100022ee:	4d58      	ldr	r5, [pc, #352]	; (10002450 <clocks_init+0x29c>)
100022f0:	601a      	str	r2, [r3, #0]
100022f2:	2900      	cmp	r1, #0
100022f4:	d005      	beq.n	10002302 <clocks_init+0x14e>
100022f6:	6960      	ldr	r0, [r4, #20]
100022f8:	f001 fcbe 	bl	10003c78 <__wrap___aeabi_uidiv>
100022fc:	3001      	adds	r0, #1
100022fe:	3801      	subs	r0, #1
10002300:	d1fd      	bne.n	100022fe <clocks_init+0x14a>
10002302:	22e0      	movs	r2, #224	; 0xe0
10002304:	4952      	ldr	r1, [pc, #328]	; (10002450 <clocks_init+0x29c>)
10002306:	680b      	ldr	r3, [r1, #0]
10002308:	401a      	ands	r2, r3
1000230a:	2380      	movs	r3, #128	; 0x80
1000230c:	015b      	lsls	r3, r3, #5
1000230e:	432b      	orrs	r3, r5
10002310:	601a      	str	r2, [r3, #0]
10002312:	2380      	movs	r3, #128	; 0x80
10002314:	2280      	movs	r2, #128	; 0x80
10002316:	019b      	lsls	r3, r3, #6
10002318:	432b      	orrs	r3, r5
1000231a:	0112      	lsls	r2, r2, #4
1000231c:	601a      	str	r2, [r3, #0]
1000231e:	2280      	movs	r2, #128	; 0x80
10002320:	4b3e      	ldr	r3, [pc, #248]	; (1000241c <clocks_init+0x268>)
10002322:	0052      	lsls	r2, r2, #1
10002324:	604a      	str	r2, [r1, #4]
10002326:	61e3      	str	r3, [r4, #28]
10002328:	4b4b      	ldr	r3, [pc, #300]	; (10002458 <clocks_init+0x2a4>)
1000232a:	6859      	ldr	r1, [r3, #4]
1000232c:	29ff      	cmp	r1, #255	; 0xff
1000232e:	d800      	bhi.n	10002332 <clocks_init+0x17e>
10002330:	605a      	str	r2, [r3, #4]
10002332:	2280      	movs	r2, #128	; 0x80
10002334:	4b49      	ldr	r3, [pc, #292]	; (1000245c <clocks_init+0x2a8>)
10002336:	6a21      	ldr	r1, [r4, #32]
10002338:	0112      	lsls	r2, r2, #4
1000233a:	4d47      	ldr	r5, [pc, #284]	; (10002458 <clocks_init+0x2a4>)
1000233c:	601a      	str	r2, [r3, #0]
1000233e:	2900      	cmp	r1, #0
10002340:	d005      	beq.n	1000234e <clocks_init+0x19a>
10002342:	6960      	ldr	r0, [r4, #20]
10002344:	f001 fc98 	bl	10003c78 <__wrap___aeabi_uidiv>
10002348:	3001      	adds	r0, #1
1000234a:	3801      	subs	r0, #1
1000234c:	d1fd      	bne.n	1000234a <clocks_init+0x196>
1000234e:	22e0      	movs	r2, #224	; 0xe0
10002350:	4941      	ldr	r1, [pc, #260]	; (10002458 <clocks_init+0x2a4>)
10002352:	680b      	ldr	r3, [r1, #0]
10002354:	401a      	ands	r2, r3
10002356:	2380      	movs	r3, #128	; 0x80
10002358:	015b      	lsls	r3, r3, #5
1000235a:	432b      	orrs	r3, r5
1000235c:	601a      	str	r2, [r3, #0]
1000235e:	2380      	movs	r3, #128	; 0x80
10002360:	2280      	movs	r2, #128	; 0x80
10002362:	019b      	lsls	r3, r3, #6
10002364:	432b      	orrs	r3, r5
10002366:	0112      	lsls	r2, r2, #4
10002368:	601a      	str	r2, [r3, #0]
1000236a:	2380      	movs	r3, #128	; 0x80
1000236c:	2280      	movs	r2, #128	; 0x80
1000236e:	005b      	lsls	r3, r3, #1
10002370:	604b      	str	r3, [r1, #4]
10002372:	4b2a      	ldr	r3, [pc, #168]	; (1000241c <clocks_init+0x268>)
10002374:	02d2      	lsls	r2, r2, #11
10002376:	6223      	str	r3, [r4, #32]
10002378:	4b39      	ldr	r3, [pc, #228]	; (10002460 <clocks_init+0x2ac>)
1000237a:	6859      	ldr	r1, [r3, #4]
1000237c:	4291      	cmp	r1, r2
1000237e:	d200      	bcs.n	10002382 <clocks_init+0x1ce>
10002380:	605a      	str	r2, [r3, #4]
10002382:	2280      	movs	r2, #128	; 0x80
10002384:	4b37      	ldr	r3, [pc, #220]	; (10002464 <clocks_init+0x2b0>)
10002386:	6a61      	ldr	r1, [r4, #36]	; 0x24
10002388:	0112      	lsls	r2, r2, #4
1000238a:	4d35      	ldr	r5, [pc, #212]	; (10002460 <clocks_init+0x2ac>)
1000238c:	601a      	str	r2, [r3, #0]
1000238e:	2900      	cmp	r1, #0
10002390:	d005      	beq.n	1000239e <clocks_init+0x1ea>
10002392:	6960      	ldr	r0, [r4, #20]
10002394:	f001 fc70 	bl	10003c78 <__wrap___aeabi_uidiv>
10002398:	3001      	adds	r0, #1
1000239a:	3801      	subs	r0, #1
1000239c:	d1fd      	bne.n	1000239a <clocks_init+0x1e6>
1000239e:	22e0      	movs	r2, #224	; 0xe0
100023a0:	492f      	ldr	r1, [pc, #188]	; (10002460 <clocks_init+0x2ac>)
100023a2:	680b      	ldr	r3, [r1, #0]
100023a4:	401a      	ands	r2, r3
100023a6:	2380      	movs	r3, #128	; 0x80
100023a8:	015b      	lsls	r3, r3, #5
100023aa:	432b      	orrs	r3, r5
100023ac:	601a      	str	r2, [r3, #0]
100023ae:	2380      	movs	r3, #128	; 0x80
100023b0:	2280      	movs	r2, #128	; 0x80
100023b2:	019b      	lsls	r3, r3, #6
100023b4:	432b      	orrs	r3, r5
100023b6:	0112      	lsls	r2, r2, #4
100023b8:	601a      	str	r2, [r3, #0]
100023ba:	2380      	movs	r3, #128	; 0x80
100023bc:	02db      	lsls	r3, r3, #11
100023be:	604b      	str	r3, [r1, #4]
100023c0:	4b17      	ldr	r3, [pc, #92]	; (10002420 <clocks_init+0x26c>)
100023c2:	6263      	str	r3, [r4, #36]	; 0x24
100023c4:	4b28      	ldr	r3, [pc, #160]	; (10002468 <clocks_init+0x2b4>)
100023c6:	685a      	ldr	r2, [r3, #4]
100023c8:	2aff      	cmp	r2, #255	; 0xff
100023ca:	d802      	bhi.n	100023d2 <clocks_init+0x21e>
100023cc:	2280      	movs	r2, #128	; 0x80
100023ce:	0052      	lsls	r2, r2, #1
100023d0:	605a      	str	r2, [r3, #4]
100023d2:	2280      	movs	r2, #128	; 0x80
100023d4:	4b25      	ldr	r3, [pc, #148]	; (1000246c <clocks_init+0x2b8>)
100023d6:	69a1      	ldr	r1, [r4, #24]
100023d8:	0112      	lsls	r2, r2, #4
100023da:	4d23      	ldr	r5, [pc, #140]	; (10002468 <clocks_init+0x2b4>)
100023dc:	601a      	str	r2, [r3, #0]
100023de:	2900      	cmp	r1, #0
100023e0:	d005      	beq.n	100023ee <clocks_init+0x23a>
100023e2:	6960      	ldr	r0, [r4, #20]
100023e4:	f001 fc48 	bl	10003c78 <__wrap___aeabi_uidiv>
100023e8:	3001      	adds	r0, #1
100023ea:	3801      	subs	r0, #1
100023ec:	d1fd      	bne.n	100023ea <clocks_init+0x236>
100023ee:	22e0      	movs	r2, #224	; 0xe0
100023f0:	491d      	ldr	r1, [pc, #116]	; (10002468 <clocks_init+0x2b4>)
100023f2:	680b      	ldr	r3, [r1, #0]
100023f4:	401a      	ands	r2, r3
100023f6:	2380      	movs	r3, #128	; 0x80
100023f8:	015b      	lsls	r3, r3, #5
100023fa:	432b      	orrs	r3, r5
100023fc:	601a      	str	r2, [r3, #0]
100023fe:	2380      	movs	r3, #128	; 0x80
10002400:	2280      	movs	r2, #128	; 0x80
10002402:	019b      	lsls	r3, r3, #6
10002404:	432b      	orrs	r3, r5
10002406:	0112      	lsls	r2, r2, #4
10002408:	601a      	str	r2, [r3, #0]
1000240a:	2380      	movs	r3, #128	; 0x80
1000240c:	005b      	lsls	r3, r3, #1
1000240e:	604b      	str	r3, [r1, #4]
10002410:	4b0e      	ldr	r3, [pc, #56]	; (1000244c <clocks_init+0x298>)
10002412:	61a3      	str	r3, [r4, #24]
10002414:	e6e4      	b.n	100021e0 <clocks_init+0x2c>
10002416:	46c0      	nop			; (mov r8, r8)
10002418:	20002730 	.word	0x20002730
1000241c:	02dc6c00 	.word	0x02dc6c00
10002420:	0000b71b 	.word	0x0000b71b
10002424:	40008000 	.word	0x40008000
10002428:	4000b03c 	.word	0x4000b03c
1000242c:	4000b030 	.word	0x4000b030
10002430:	59682f00 	.word	0x59682f00
10002434:	40028000 	.word	0x40028000
10002438:	47868c00 	.word	0x47868c00
1000243c:	4002c000 	.word	0x4002c000
10002440:	40008030 	.word	0x40008030
10002444:	00b71b00 	.word	0x00b71b00
10002448:	4000803c 	.word	0x4000803c
1000244c:	07735940 	.word	0x07735940
10002450:	40008054 	.word	0x40008054
10002454:	4000b054 	.word	0x4000b054
10002458:	40008060 	.word	0x40008060
1000245c:	4000b060 	.word	0x4000b060
10002460:	4000806c 	.word	0x4000806c
10002464:	4000b06c 	.word	0x4000b06c
10002468:	40008048 	.word	0x40008048
1000246c:	4000b048 	.word	0x4000b048

10002470 <pll_init>:
10002470:	b5f0      	push	{r4, r5, r6, r7, lr}
10002472:	46c6      	mov	lr, r8
10002474:	0004      	movs	r4, r0
10002476:	b500      	push	{lr}
10002478:	200c      	movs	r0, #12
1000247a:	4690      	mov	r8, r2
1000247c:	001f      	movs	r7, r3
1000247e:	000e      	movs	r6, r1
10002480:	f001 fbfa 	bl	10003c78 <__wrap___aeabi_uidiv>
10002484:	0141      	lsls	r1, r0, #5
10002486:	1a09      	subs	r1, r1, r0
10002488:	018d      	lsls	r5, r1, #6
1000248a:	1a69      	subs	r1, r5, r1
1000248c:	00c9      	lsls	r1, r1, #3
1000248e:	1809      	adds	r1, r1, r0
10002490:	0189      	lsls	r1, r1, #6
10002492:	4640      	mov	r0, r8
10002494:	f001 fbf0 	bl	10003c78 <__wrap___aeabi_uidiv>
10002498:	9b06      	ldr	r3, [sp, #24]
1000249a:	043f      	lsls	r7, r7, #16
1000249c:	031a      	lsls	r2, r3, #12
1000249e:	6823      	ldr	r3, [r4, #0]
100024a0:	4317      	orrs	r7, r2
100024a2:	2b00      	cmp	r3, #0
100024a4:	db22      	blt.n	100024ec <pll_init+0x7c>
100024a6:	4b1a      	ldr	r3, [pc, #104]	; (10002510 <pll_init+0xa0>)
100024a8:	4d1a      	ldr	r5, [pc, #104]	; (10002514 <pll_init+0xa4>)
100024aa:	18e2      	adds	r2, r4, r3
100024ac:	4253      	negs	r3, r2
100024ae:	415a      	adcs	r2, r3
100024b0:	2380      	movs	r3, #128	; 0x80
100024b2:	015b      	lsls	r3, r3, #5
100024b4:	469c      	mov	ip, r3
100024b6:	0312      	lsls	r2, r2, #12
100024b8:	4b17      	ldr	r3, [pc, #92]	; (10002518 <pll_init+0xa8>)
100024ba:	4462      	add	r2, ip
100024bc:	601a      	str	r2, [r3, #0]
100024be:	4b17      	ldr	r3, [pc, #92]	; (1000251c <pll_init+0xac>)
100024c0:	601a      	str	r2, [r3, #0]
100024c2:	0011      	movs	r1, r2
100024c4:	68ab      	ldr	r3, [r5, #8]
100024c6:	4399      	bics	r1, r3
100024c8:	d1fb      	bne.n	100024c2 <pll_init+0x52>
100024ca:	22c0      	movs	r2, #192	; 0xc0
100024cc:	1d23      	adds	r3, r4, #4
100024ce:	0192      	lsls	r2, r2, #6
100024d0:	431a      	orrs	r2, r3
100024d2:	2321      	movs	r3, #33	; 0x21
100024d4:	6026      	str	r6, [r4, #0]
100024d6:	60a0      	str	r0, [r4, #8]
100024d8:	6013      	str	r3, [r2, #0]
100024da:	6823      	ldr	r3, [r4, #0]
100024dc:	2b00      	cmp	r3, #0
100024de:	dafc      	bge.n	100024da <pll_init+0x6a>
100024e0:	2308      	movs	r3, #8
100024e2:	60e7      	str	r7, [r4, #12]
100024e4:	6013      	str	r3, [r2, #0]
100024e6:	bc80      	pop	{r7}
100024e8:	46b8      	mov	r8, r7
100024ea:	bdf0      	pop	{r4, r5, r6, r7, pc}
100024ec:	233f      	movs	r3, #63	; 0x3f
100024ee:	6822      	ldr	r2, [r4, #0]
100024f0:	4013      	ands	r3, r2
100024f2:	42b3      	cmp	r3, r6
100024f4:	d1d7      	bne.n	100024a6 <pll_init+0x36>
100024f6:	68a3      	ldr	r3, [r4, #8]
100024f8:	051b      	lsls	r3, r3, #20
100024fa:	0d1b      	lsrs	r3, r3, #20
100024fc:	4283      	cmp	r3, r0
100024fe:	d1d2      	bne.n	100024a6 <pll_init+0x36>
10002500:	22ee      	movs	r2, #238	; 0xee
10002502:	68e3      	ldr	r3, [r4, #12]
10002504:	02d2      	lsls	r2, r2, #11
10002506:	4013      	ands	r3, r2
10002508:	42bb      	cmp	r3, r7
1000250a:	d1cc      	bne.n	100024a6 <pll_init+0x36>
1000250c:	e7eb      	b.n	100024e6 <pll_init+0x76>
1000250e:	46c0      	nop			; (mov r8, r8)
10002510:	bffd4000 	.word	0xbffd4000
10002514:	4000c000 	.word	0x4000c000
10002518:	4000e000 	.word	0x4000e000
1000251c:	4000f000 	.word	0x4000f000

10002520 <watchdog_start_tick>:
10002520:	2380      	movs	r3, #128	; 0x80
10002522:	4a02      	ldr	r2, [pc, #8]	; (1000252c <watchdog_start_tick+0xc>)
10002524:	009b      	lsls	r3, r3, #2
10002526:	4303      	orrs	r3, r0
10002528:	62d3      	str	r3, [r2, #44]	; 0x2c
1000252a:	4770      	bx	lr
1000252c:	40058000 	.word	0x40058000

10002530 <watchdog_reboot>:
10002530:	b510      	push	{r4, lr}
10002532:	0014      	movs	r4, r2
10002534:	2280      	movs	r2, #128	; 0x80
10002536:	4b1b      	ldr	r3, [pc, #108]	; (100025a4 <watchdog_reboot+0x74>)
10002538:	05d2      	lsls	r2, r2, #23
1000253a:	601a      	str	r2, [r3, #0]
1000253c:	2800      	cmp	r0, #0
1000253e:	d01a      	beq.n	10002576 <watchdog_reboot+0x46>
10002540:	2301      	movs	r3, #1
10002542:	4a19      	ldr	r2, [pc, #100]	; (100025a8 <watchdog_reboot+0x78>)
10002544:	4318      	orrs	r0, r3
10002546:	4b19      	ldr	r3, [pc, #100]	; (100025ac <watchdog_reboot+0x7c>)
10002548:	61da      	str	r2, [r3, #28]
1000254a:	4a19      	ldr	r2, [pc, #100]	; (100025b0 <watchdog_reboot+0x80>)
1000254c:	4042      	eors	r2, r0
1000254e:	621a      	str	r2, [r3, #32]
10002550:	6259      	str	r1, [r3, #36]	; 0x24
10002552:	6298      	str	r0, [r3, #40]	; 0x28
10002554:	2280      	movs	r2, #128	; 0x80
10002556:	4b13      	ldr	r3, [pc, #76]	; (100025a4 <watchdog_reboot+0x74>)
10002558:	05d2      	lsls	r2, r2, #23
1000255a:	601a      	str	r2, [r3, #0]
1000255c:	4915      	ldr	r1, [pc, #84]	; (100025b4 <watchdog_reboot+0x84>)
1000255e:	4a16      	ldr	r2, [pc, #88]	; (100025b8 <watchdog_reboot+0x88>)
10002560:	6011      	str	r1, [r2, #0]
10002562:	22e0      	movs	r2, #224	; 0xe0
10002564:	04d2      	lsls	r2, r2, #19
10002566:	601a      	str	r2, [r3, #0]
10002568:	2c00      	cmp	r4, #0
1000256a:	d107      	bne.n	1000257c <watchdog_reboot+0x4c>
1000256c:	2280      	movs	r2, #128	; 0x80
1000256e:	4b13      	ldr	r3, [pc, #76]	; (100025bc <watchdog_reboot+0x8c>)
10002570:	0612      	lsls	r2, r2, #24
10002572:	601a      	str	r2, [r3, #0]
10002574:	bd10      	pop	{r4, pc}
10002576:	4b0d      	ldr	r3, [pc, #52]	; (100025ac <watchdog_reboot+0x7c>)
10002578:	61d8      	str	r0, [r3, #28]
1000257a:	e7eb      	b.n	10002554 <watchdog_reboot+0x24>
1000257c:	0163      	lsls	r3, r4, #5
1000257e:	1b1b      	subs	r3, r3, r4
10002580:	009a      	lsls	r2, r3, #2
10002582:	2380      	movs	r3, #128	; 0x80
10002584:	1912      	adds	r2, r2, r4
10002586:	0112      	lsls	r2, r2, #4
10002588:	045b      	lsls	r3, r3, #17
1000258a:	429a      	cmp	r2, r3
1000258c:	d300      	bcc.n	10002590 <watchdog_reboot+0x60>
1000258e:	4a0c      	ldr	r2, [pc, #48]	; (100025c0 <watchdog_reboot+0x90>)
10002590:	4b0c      	ldr	r3, [pc, #48]	; (100025c4 <watchdog_reboot+0x94>)
10002592:	601a      	str	r2, [r3, #0]
10002594:	4b05      	ldr	r3, [pc, #20]	; (100025ac <watchdog_reboot+0x7c>)
10002596:	605a      	str	r2, [r3, #4]
10002598:	2280      	movs	r2, #128	; 0x80
1000259a:	4b08      	ldr	r3, [pc, #32]	; (100025bc <watchdog_reboot+0x8c>)
1000259c:	05d2      	lsls	r2, r2, #23
1000259e:	601a      	str	r2, [r3, #0]
100025a0:	e7e8      	b.n	10002574 <watchdog_reboot+0x44>
100025a2:	46c0      	nop			; (mov r8, r8)
100025a4:	4005b000 	.word	0x4005b000
100025a8:	b007c0d3 	.word	0xb007c0d3
100025ac:	40058000 	.word	0x40058000
100025b0:	4ff83f2d 	.word	0x4ff83f2d
100025b4:	0001fffc 	.word	0x0001fffc
100025b8:	40012008 	.word	0x40012008
100025bc:	4005a000 	.word	0x4005a000
100025c0:	00ffffff 	.word	0x00ffffff
100025c4:	20002bd0 	.word	0x20002bd0

100025c8 <xosc_init>:
100025c8:	23aa      	movs	r3, #170	; 0xaa
100025ca:	4a06      	ldr	r2, [pc, #24]	; (100025e4 <xosc_init+0x1c>)
100025cc:	011b      	lsls	r3, r3, #4
100025ce:	6013      	str	r3, [r2, #0]
100025d0:	232f      	movs	r3, #47	; 0x2f
100025d2:	4905      	ldr	r1, [pc, #20]	; (100025e8 <xosc_init+0x20>)
100025d4:	60d3      	str	r3, [r2, #12]
100025d6:	4b05      	ldr	r3, [pc, #20]	; (100025ec <xosc_init+0x24>)
100025d8:	6019      	str	r1, [r3, #0]
100025da:	6853      	ldr	r3, [r2, #4]
100025dc:	2b00      	cmp	r3, #0
100025de:	dafc      	bge.n	100025da <xosc_init+0x12>
100025e0:	4770      	bx	lr
100025e2:	46c0      	nop			; (mov r8, r8)
100025e4:	40024000 	.word	0x40024000
100025e8:	00fab000 	.word	0x00fab000
100025ec:	40026000 	.word	0x40026000

100025f0 <_out_buffer>:
100025f0:	429a      	cmp	r2, r3
100025f2:	d200      	bcs.n	100025f6 <_out_buffer+0x6>
100025f4:	5488      	strb	r0, [r1, r2]
100025f6:	4770      	bx	lr

100025f8 <_out_null>:
100025f8:	4770      	bx	lr
100025fa:	46c0      	nop			; (mov r8, r8)

100025fc <_out_rev>:
100025fc:	b5f8      	push	{r3, r4, r5, r6, r7, lr}
100025fe:	4657      	mov	r7, sl
10002600:	464e      	mov	r6, r9
10002602:	4645      	mov	r5, r8
10002604:	46de      	mov	lr, fp
10002606:	b5e0      	push	{r5, r6, r7, lr}
10002608:	4699      	mov	r9, r3
1000260a:	9b0a      	ldr	r3, [sp, #40]	; 0x28
1000260c:	0007      	movs	r7, r0
1000260e:	469a      	mov	sl, r3
10002610:	9b0d      	ldr	r3, [sp, #52]	; 0x34
10002612:	4688      	mov	r8, r1
10002614:	4693      	mov	fp, r2
10002616:	0015      	movs	r5, r2
10002618:	9e0b      	ldr	r6, [sp, #44]	; 0x2c
1000261a:	079b      	lsls	r3, r3, #30
1000261c:	d110      	bne.n	10002640 <_out_rev+0x44>
1000261e:	9b0c      	ldr	r3, [sp, #48]	; 0x30
10002620:	429e      	cmp	r6, r3
10002622:	d20d      	bcs.n	10002640 <_out_rev+0x44>
10002624:	1b9d      	subs	r5, r3, r6
10002626:	0014      	movs	r4, r2
10002628:	000e      	movs	r6, r1
1000262a:	445d      	add	r5, fp
1000262c:	0022      	movs	r2, r4
1000262e:	464b      	mov	r3, r9
10002630:	3401      	adds	r4, #1
10002632:	0031      	movs	r1, r6
10002634:	2020      	movs	r0, #32
10002636:	47b8      	blx	r7
10002638:	42a5      	cmp	r5, r4
1000263a:	d1f7      	bne.n	1000262c <_out_rev+0x30>
1000263c:	46b0      	mov	r8, r6
1000263e:	9e0b      	ldr	r6, [sp, #44]	; 0x2c
10002640:	2e00      	cmp	r6, #0
10002642:	d027      	beq.n	10002694 <_out_rev+0x98>
10002644:	4644      	mov	r4, r8
10002646:	1975      	adds	r5, r6, r5
10002648:	4653      	mov	r3, sl
1000264a:	1baa      	subs	r2, r5, r6
1000264c:	3e01      	subs	r6, #1
1000264e:	5d98      	ldrb	r0, [r3, r6]
10002650:	0021      	movs	r1, r4
10002652:	464b      	mov	r3, r9
10002654:	47b8      	blx	r7
10002656:	2e00      	cmp	r6, #0
10002658:	d1f6      	bne.n	10002648 <_out_rev+0x4c>
1000265a:	0023      	movs	r3, r4
1000265c:	002c      	movs	r4, r5
1000265e:	4698      	mov	r8, r3
10002660:	9b0d      	ldr	r3, [sp, #52]	; 0x34
10002662:	079b      	lsls	r3, r3, #30
10002664:	d50f      	bpl.n	10002686 <_out_rev+0x8a>
10002666:	465b      	mov	r3, fp
10002668:	1ae5      	subs	r5, r4, r3
1000266a:	9b0c      	ldr	r3, [sp, #48]	; 0x30
1000266c:	42ab      	cmp	r3, r5
1000266e:	d90a      	bls.n	10002686 <_out_rev+0x8a>
10002670:	4646      	mov	r6, r8
10002672:	4698      	mov	r8, r3
10002674:	0022      	movs	r2, r4
10002676:	464b      	mov	r3, r9
10002678:	0031      	movs	r1, r6
1000267a:	2020      	movs	r0, #32
1000267c:	3501      	adds	r5, #1
1000267e:	47b8      	blx	r7
10002680:	3401      	adds	r4, #1
10002682:	45a8      	cmp	r8, r5
10002684:	d8f6      	bhi.n	10002674 <_out_rev+0x78>
10002686:	0020      	movs	r0, r4
10002688:	bcf0      	pop	{r4, r5, r6, r7}
1000268a:	46bb      	mov	fp, r7
1000268c:	46b2      	mov	sl, r6
1000268e:	46a9      	mov	r9, r5
10002690:	46a0      	mov	r8, r4
10002692:	bdf8      	pop	{r3, r4, r5, r6, r7, pc}
10002694:	002c      	movs	r4, r5
10002696:	e7e3      	b.n	10002660 <_out_rev+0x64>

10002698 <_ntoa_format>:
10002698:	b5f0      	push	{r4, r5, r6, r7, lr}
1000269a:	464f      	mov	r7, r9
1000269c:	4646      	mov	r6, r8
1000269e:	46d6      	mov	lr, sl
100026a0:	b5c0      	push	{r6, r7, lr}
100026a2:	b084      	sub	sp, #16
100026a4:	4698      	mov	r8, r3
100026a6:	ab0e      	add	r3, sp, #56	; 0x38
100026a8:	781b      	ldrb	r3, [r3, #0]
100026aa:	9f12      	ldr	r7, [sp, #72]	; 0x48
100026ac:	4699      	mov	r9, r3
100026ae:	4694      	mov	ip, r2
100026b0:	9c0d      	ldr	r4, [sp, #52]	; 0x34
100026b2:	9b10      	ldr	r3, [sp, #64]	; 0x40
100026b4:	9e11      	ldr	r6, [sp, #68]	; 0x44
100026b6:	07ba      	lsls	r2, r7, #30
100026b8:	d425      	bmi.n	10002706 <_ntoa_format+0x6e>
100026ba:	2e00      	cmp	r6, #0
100026bc:	d14b      	bne.n	10002756 <_ntoa_format+0xbe>
100026be:	429c      	cmp	r4, r3
100026c0:	d300      	bcc.n	100026c4 <_ntoa_format+0x2c>
100026c2:	e0bf      	b.n	10002844 <_ntoa_format+0x1ac>
100026c4:	2201      	movs	r2, #1
100026c6:	403a      	ands	r2, r7
100026c8:	4692      	mov	sl, r2
100026ca:	2c1f      	cmp	r4, #31
100026cc:	d900      	bls.n	100026d0 <_ntoa_format+0x38>
100026ce:	e0b8      	b.n	10002842 <_ntoa_format+0x1aa>
100026d0:	9a0c      	ldr	r2, [sp, #48]	; 0x30
100026d2:	1e55      	subs	r5, r2, #1
100026d4:	2230      	movs	r2, #48	; 0x30
100026d6:	e001      	b.n	100026dc <_ntoa_format+0x44>
100026d8:	2c20      	cmp	r4, #32
100026da:	d003      	beq.n	100026e4 <_ntoa_format+0x4c>
100026dc:	3401      	adds	r4, #1
100026de:	552a      	strb	r2, [r5, r4]
100026e0:	42a3      	cmp	r3, r4
100026e2:	d8f9      	bhi.n	100026d8 <_ntoa_format+0x40>
100026e4:	4652      	mov	r2, sl
100026e6:	2a00      	cmp	r2, #0
100026e8:	d00d      	beq.n	10002706 <_ntoa_format+0x6e>
100026ea:	42a6      	cmp	r6, r4
100026ec:	d90b      	bls.n	10002706 <_ntoa_format+0x6e>
100026ee:	2c20      	cmp	r4, #32
100026f0:	d044      	beq.n	1000277c <_ntoa_format+0xe4>
100026f2:	9a0c      	ldr	r2, [sp, #48]	; 0x30
100026f4:	1e55      	subs	r5, r2, #1
100026f6:	2230      	movs	r2, #48	; 0x30
100026f8:	e001      	b.n	100026fe <_ntoa_format+0x66>
100026fa:	2c20      	cmp	r4, #32
100026fc:	d03e      	beq.n	1000277c <_ntoa_format+0xe4>
100026fe:	3401      	adds	r4, #1
10002700:	552a      	strb	r2, [r5, r4]
10002702:	42b4      	cmp	r4, r6
10002704:	d1f9      	bne.n	100026fa <_ntoa_format+0x62>
10002706:	06fa      	lsls	r2, r7, #27
10002708:	d54d      	bpl.n	100027a6 <_ntoa_format+0x10e>
1000270a:	057a      	lsls	r2, r7, #21
1000270c:	d43f      	bmi.n	1000278e <_ntoa_format+0xf6>
1000270e:	2c00      	cmp	r4, #0
10002710:	d139      	bne.n	10002786 <_ntoa_format+0xee>
10002712:	9b0f      	ldr	r3, [sp, #60]	; 0x3c
10002714:	2b10      	cmp	r3, #16
10002716:	d100      	bne.n	1000271a <_ntoa_format+0x82>
10002718:	e079      	b.n	1000280e <_ntoa_format+0x176>
1000271a:	9b0f      	ldr	r3, [sp, #60]	; 0x3c
1000271c:	2b02      	cmp	r3, #2
1000271e:	d100      	bne.n	10002722 <_ntoa_format+0x8a>
10002720:	e08a      	b.n	10002838 <_ntoa_format+0x1a0>
10002722:	2330      	movs	r3, #48	; 0x30
10002724:	9a0c      	ldr	r2, [sp, #48]	; 0x30
10002726:	2401      	movs	r4, #1
10002728:	7013      	strb	r3, [r2, #0]
1000272a:	464b      	mov	r3, r9
1000272c:	2b00      	cmp	r3, #0
1000272e:	d03f      	beq.n	100027b0 <_ntoa_format+0x118>
10002730:	232d      	movs	r3, #45	; 0x2d
10002732:	9a0c      	ldr	r2, [sp, #48]	; 0x30
10002734:	5513      	strb	r3, [r2, r4]
10002736:	3401      	adds	r4, #1
10002738:	9b0c      	ldr	r3, [sp, #48]	; 0x30
1000273a:	4662      	mov	r2, ip
1000273c:	9300      	str	r3, [sp, #0]
1000273e:	9703      	str	r7, [sp, #12]
10002740:	4643      	mov	r3, r8
10002742:	9602      	str	r6, [sp, #8]
10002744:	9401      	str	r4, [sp, #4]
10002746:	f7ff ff59 	bl	100025fc <_out_rev>
1000274a:	b004      	add	sp, #16
1000274c:	bce0      	pop	{r5, r6, r7}
1000274e:	46ba      	mov	sl, r7
10002750:	46b1      	mov	r9, r6
10002752:	46a8      	mov	r8, r5
10002754:	bdf0      	pop	{r4, r5, r6, r7, pc}
10002756:	2201      	movs	r2, #1
10002758:	0015      	movs	r5, r2
1000275a:	403d      	ands	r5, r7
1000275c:	46aa      	mov	sl, r5
1000275e:	423a      	tst	r2, r7
10002760:	d02f      	beq.n	100027c2 <_ntoa_format+0x12a>
10002762:	464a      	mov	r2, r9
10002764:	2a00      	cmp	r2, #0
10002766:	d102      	bne.n	1000276e <_ntoa_format+0xd6>
10002768:	320c      	adds	r2, #12
1000276a:	423a      	tst	r2, r7
1000276c:	d000      	beq.n	10002770 <_ntoa_format+0xd8>
1000276e:	3e01      	subs	r6, #1
10002770:	429c      	cmp	r4, r3
10002772:	d2ba      	bcs.n	100026ea <_ntoa_format+0x52>
10002774:	2c1f      	cmp	r4, #31
10002776:	d9ab      	bls.n	100026d0 <_ntoa_format+0x38>
10002778:	2e20      	cmp	r6, #32
1000277a:	d927      	bls.n	100027cc <_ntoa_format+0x134>
1000277c:	2420      	movs	r4, #32
1000277e:	06fa      	lsls	r2, r7, #27
10002780:	d5da      	bpl.n	10002738 <_ntoa_format+0xa0>
10002782:	057a      	lsls	r2, r7, #21
10002784:	d403      	bmi.n	1000278e <_ntoa_format+0xf6>
10002786:	42a3      	cmp	r3, r4
10002788:	d02d      	beq.n	100027e6 <_ntoa_format+0x14e>
1000278a:	42a6      	cmp	r6, r4
1000278c:	d02b      	beq.n	100027e6 <_ntoa_format+0x14e>
1000278e:	9b0f      	ldr	r3, [sp, #60]	; 0x3c
10002790:	2b10      	cmp	r3, #16
10002792:	d032      	beq.n	100027fa <_ntoa_format+0x162>
10002794:	2b02      	cmp	r3, #2
10002796:	d020      	beq.n	100027da <_ntoa_format+0x142>
10002798:	2c20      	cmp	r4, #32
1000279a:	d0cd      	beq.n	10002738 <_ntoa_format+0xa0>
1000279c:	2230      	movs	r2, #48	; 0x30
1000279e:	9b0c      	ldr	r3, [sp, #48]	; 0x30
100027a0:	191b      	adds	r3, r3, r4
100027a2:	701a      	strb	r2, [r3, #0]
100027a4:	3401      	adds	r4, #1
100027a6:	2c20      	cmp	r4, #32
100027a8:	d0c6      	beq.n	10002738 <_ntoa_format+0xa0>
100027aa:	464b      	mov	r3, r9
100027ac:	2b00      	cmp	r3, #0
100027ae:	d1bf      	bne.n	10002730 <_ntoa_format+0x98>
100027b0:	077b      	lsls	r3, r7, #29
100027b2:	d40d      	bmi.n	100027d0 <_ntoa_format+0x138>
100027b4:	073b      	lsls	r3, r7, #28
100027b6:	d5bf      	bpl.n	10002738 <_ntoa_format+0xa0>
100027b8:	2320      	movs	r3, #32
100027ba:	9a0c      	ldr	r2, [sp, #48]	; 0x30
100027bc:	5513      	strb	r3, [r2, r4]
100027be:	3401      	adds	r4, #1
100027c0:	e7ba      	b.n	10002738 <_ntoa_format+0xa0>
100027c2:	429c      	cmp	r4, r3
100027c4:	d29f      	bcs.n	10002706 <_ntoa_format+0x6e>
100027c6:	2c1f      	cmp	r4, #31
100027c8:	d800      	bhi.n	100027cc <_ntoa_format+0x134>
100027ca:	e781      	b.n	100026d0 <_ntoa_format+0x38>
100027cc:	2420      	movs	r4, #32
100027ce:	e79a      	b.n	10002706 <_ntoa_format+0x6e>
100027d0:	232b      	movs	r3, #43	; 0x2b
100027d2:	9a0c      	ldr	r2, [sp, #48]	; 0x30
100027d4:	5513      	strb	r3, [r2, r4]
100027d6:	3401      	adds	r4, #1
100027d8:	e7ae      	b.n	10002738 <_ntoa_format+0xa0>
100027da:	2c20      	cmp	r4, #32
100027dc:	d0ac      	beq.n	10002738 <_ntoa_format+0xa0>
100027de:	9b0c      	ldr	r3, [sp, #48]	; 0x30
100027e0:	191b      	adds	r3, r3, r4
100027e2:	3401      	adds	r4, #1
100027e4:	e03a      	b.n	1000285c <_ntoa_format+0x1c4>
100027e6:	1e63      	subs	r3, r4, #1
100027e8:	2c01      	cmp	r4, #1
100027ea:	d092      	beq.n	10002712 <_ntoa_format+0x7a>
100027ec:	9a0f      	ldr	r2, [sp, #60]	; 0x3c
100027ee:	2a10      	cmp	r2, #16
100027f0:	d02a      	beq.n	10002848 <_ntoa_format+0x1b0>
100027f2:	2a02      	cmp	r2, #2
100027f4:	d02f      	beq.n	10002856 <_ntoa_format+0x1be>
100027f6:	001c      	movs	r4, r3
100027f8:	e7d0      	b.n	1000279c <_ntoa_format+0x104>
100027fa:	06bb      	lsls	r3, r7, #26
100027fc:	d40e      	bmi.n	1000281c <_ntoa_format+0x184>
100027fe:	2c20      	cmp	r4, #32
10002800:	d09a      	beq.n	10002738 <_ntoa_format+0xa0>
10002802:	9b0c      	ldr	r3, [sp, #48]	; 0x30
10002804:	191a      	adds	r2, r3, r4
10002806:	3401      	adds	r4, #1
10002808:	2378      	movs	r3, #120	; 0x78
1000280a:	7013      	strb	r3, [r2, #0]
1000280c:	e7c4      	b.n	10002798 <_ntoa_format+0x100>
1000280e:	06bb      	lsls	r3, r7, #26
10002810:	d40d      	bmi.n	1000282e <_ntoa_format+0x196>
10002812:	2378      	movs	r3, #120	; 0x78
10002814:	9a0c      	ldr	r2, [sp, #48]	; 0x30
10002816:	2401      	movs	r4, #1
10002818:	7013      	strb	r3, [r2, #0]
1000281a:	e7bf      	b.n	1000279c <_ntoa_format+0x104>
1000281c:	2c20      	cmp	r4, #32
1000281e:	d100      	bne.n	10002822 <_ntoa_format+0x18a>
10002820:	e78a      	b.n	10002738 <_ntoa_format+0xa0>
10002822:	2258      	movs	r2, #88	; 0x58
10002824:	9b0c      	ldr	r3, [sp, #48]	; 0x30
10002826:	191b      	adds	r3, r3, r4
10002828:	701a      	strb	r2, [r3, #0]
1000282a:	3401      	adds	r4, #1
1000282c:	e7b4      	b.n	10002798 <_ntoa_format+0x100>
1000282e:	2358      	movs	r3, #88	; 0x58
10002830:	9a0c      	ldr	r2, [sp, #48]	; 0x30
10002832:	2401      	movs	r4, #1
10002834:	7013      	strb	r3, [r2, #0]
10002836:	e7b1      	b.n	1000279c <_ntoa_format+0x104>
10002838:	9a0c      	ldr	r2, [sp, #48]	; 0x30
1000283a:	3360      	adds	r3, #96	; 0x60
1000283c:	2401      	movs	r4, #1
1000283e:	7013      	strb	r3, [r2, #0]
10002840:	e7ac      	b.n	1000279c <_ntoa_format+0x104>
10002842:	2420      	movs	r4, #32
10002844:	2600      	movs	r6, #0
10002846:	e75e      	b.n	10002706 <_ntoa_format+0x6e>
10002848:	3c02      	subs	r4, #2
1000284a:	06ba      	lsls	r2, r7, #26
1000284c:	d4e9      	bmi.n	10002822 <_ntoa_format+0x18a>
1000284e:	9a0c      	ldr	r2, [sp, #48]	; 0x30
10002850:	1912      	adds	r2, r2, r4
10002852:	001c      	movs	r4, r3
10002854:	e7d8      	b.n	10002808 <_ntoa_format+0x170>
10002856:	9a0c      	ldr	r2, [sp, #48]	; 0x30
10002858:	4692      	mov	sl, r2
1000285a:	4453      	add	r3, sl
1000285c:	2262      	movs	r2, #98	; 0x62
1000285e:	701a      	strb	r2, [r3, #0]
10002860:	e79a      	b.n	10002798 <_ntoa_format+0x100>
10002862:	46c0      	nop			; (mov r8, r8)

10002864 <_out_char>:
10002864:	b510      	push	{r4, lr}
10002866:	2800      	cmp	r0, #0
10002868:	d100      	bne.n	1000286c <_out_char+0x8>
1000286a:	bd10      	pop	{r4, pc}
1000286c:	f002 f92e 	bl	10004acc <__wrap_putchar>
10002870:	e7fb      	b.n	1000286a <_out_char+0x6>
10002872:	46c0      	nop			; (mov r8, r8)

10002874 <_etoa>:
10002874:	b5f0      	push	{r4, r5, r6, r7, lr}
10002876:	46de      	mov	lr, fp
10002878:	4657      	mov	r7, sl
1000287a:	464e      	mov	r6, r9
1000287c:	4645      	mov	r5, r8
1000287e:	b5e0      	push	{r5, r6, r7, lr}
10002880:	b09b      	sub	sp, #108	; 0x6c
10002882:	469b      	mov	fp, r3
10002884:	9b24      	ldr	r3, [sp, #144]	; 0x90
10002886:	4689      	mov	r9, r1
10002888:	4698      	mov	r8, r3
1000288a:	9b25      	ldr	r3, [sp, #148]	; 0x94
1000288c:	900b      	str	r0, [sp, #44]	; 0x2c
1000288e:	920c      	str	r2, [sp, #48]	; 0x30
10002890:	4640      	mov	r0, r8
10002892:	4642      	mov	r2, r8
10002894:	0019      	movs	r1, r3
10002896:	469a      	mov	sl, r3
10002898:	f001 fcbf 	bl	1000421a <__wrap___aeabi_dcmpun>
1000289c:	2800      	cmp	r0, #0
1000289e:	d000      	beq.n	100028a2 <_etoa+0x2e>
100028a0:	e0d8      	b.n	10002a54 <_etoa+0x1e0>
100028a2:	2201      	movs	r2, #1
100028a4:	4640      	mov	r0, r8
100028a6:	4651      	mov	r1, sl
100028a8:	4b77      	ldr	r3, [pc, #476]	; (10002a88 <_etoa+0x214>)
100028aa:	4252      	negs	r2, r2
100028ac:	f001 fcb0 	bl	10004210 <__wrap___aeabi_dcmpgt>
100028b0:	2800      	cmp	r0, #0
100028b2:	d000      	beq.n	100028b6 <_etoa+0x42>
100028b4:	e0ce      	b.n	10002a54 <_etoa+0x1e0>
100028b6:	2201      	movs	r2, #1
100028b8:	4640      	mov	r0, r8
100028ba:	4651      	mov	r1, sl
100028bc:	4b73      	ldr	r3, [pc, #460]	; (10002a8c <_etoa+0x218>)
100028be:	4252      	negs	r2, r2
100028c0:	f001 fc90 	bl	100041e4 <__wrap___aeabi_dcmplt>
100028c4:	2800      	cmp	r0, #0
100028c6:	d000      	beq.n	100028ca <_etoa+0x56>
100028c8:	e0c4      	b.n	10002a54 <_etoa+0x1e0>
100028ca:	2200      	movs	r2, #0
100028cc:	2300      	movs	r3, #0
100028ce:	4640      	mov	r0, r8
100028d0:	4651      	mov	r1, sl
100028d2:	f001 fc87 	bl	100041e4 <__wrap___aeabi_dcmplt>
100028d6:	2800      	cmp	r0, #0
100028d8:	d000      	beq.n	100028dc <_etoa+0x68>
100028da:	e1b9      	b.n	10002c50 <_etoa+0x3dc>
100028dc:	4642      	mov	r2, r8
100028de:	4653      	mov	r3, sl
100028e0:	920a      	str	r2, [sp, #40]	; 0x28
100028e2:	9309      	str	r3, [sp, #36]	; 0x24
100028e4:	2380      	movs	r3, #128	; 0x80
100028e6:	9a28      	ldr	r2, [sp, #160]	; 0xa0
100028e8:	00db      	lsls	r3, r3, #3
100028ea:	401a      	ands	r2, r3
100028ec:	920e      	str	r2, [sp, #56]	; 0x38
100028ee:	9a28      	ldr	r2, [sp, #160]	; 0xa0
100028f0:	421a      	tst	r2, r3
100028f2:	d101      	bne.n	100028f8 <_etoa+0x84>
100028f4:	2306      	movs	r3, #6
100028f6:	9326      	str	r3, [sp, #152]	; 0x98
100028f8:	9a0a      	ldr	r2, [sp, #40]	; 0x28
100028fa:	9b09      	ldr	r3, [sp, #36]	; 0x24
100028fc:	0016      	movs	r6, r2
100028fe:	4313      	orrs	r3, r2
10002900:	d000      	beq.n	10002904 <_etoa+0x90>
10002902:	e0c7      	b.n	10002a94 <_etoa+0x220>
10002904:	9b28      	ldr	r3, [sp, #160]	; 0xa0
10002906:	2500      	movs	r5, #0
10002908:	2600      	movs	r6, #0
1000290a:	051b      	lsls	r3, r3, #20
1000290c:	d400      	bmi.n	10002910 <_etoa+0x9c>
1000290e:	e19b      	b.n	10002c48 <_etoa+0x3d4>
10002910:	2300      	movs	r3, #0
10002912:	930d      	str	r3, [sp, #52]	; 0x34
10002914:	9a26      	ldr	r2, [sp, #152]	; 0x98
10002916:	9b0d      	ldr	r3, [sp, #52]	; 0x34
10002918:	429a      	cmp	r2, r3
1000291a:	dc00      	bgt.n	1000291e <_etoa+0xaa>
1000291c:	e19f      	b.n	10002c5e <_etoa+0x3ea>
1000291e:	1ad0      	subs	r0, r2, r3
10002920:	1e43      	subs	r3, r0, #1
10002922:	9326      	str	r3, [sp, #152]	; 0x98
10002924:	2380      	movs	r3, #128	; 0x80
10002926:	9a28      	ldr	r2, [sp, #160]	; 0xa0
10002928:	00db      	lsls	r3, r3, #3
1000292a:	431a      	orrs	r2, r3
1000292c:	2300      	movs	r3, #0
1000292e:	2700      	movs	r7, #0
10002930:	9228      	str	r2, [sp, #160]	; 0xa0
10002932:	930d      	str	r3, [sp, #52]	; 0x34
10002934:	9b27      	ldr	r3, [sp, #156]	; 0x9c
10002936:	2400      	movs	r4, #0
10002938:	42bb      	cmp	r3, r7
1000293a:	d900      	bls.n	1000293e <_etoa+0xca>
1000293c:	1bdc      	subs	r4, r3, r7
1000293e:	2302      	movs	r3, #2
10002940:	9a28      	ldr	r2, [sp, #160]	; 0xa0
10002942:	401a      	ands	r2, r3
10002944:	920e      	str	r2, [sp, #56]	; 0x38
10002946:	9a28      	ldr	r2, [sp, #160]	; 0xa0
10002948:	4213      	tst	r3, r2
1000294a:	d003      	beq.n	10002954 <_etoa+0xe0>
1000294c:	427b      	negs	r3, r7
1000294e:	417b      	adcs	r3, r7
10002950:	425b      	negs	r3, r3
10002952:	401c      	ands	r4, r3
10002954:	9b0d      	ldr	r3, [sp, #52]	; 0x34
10002956:	2b00      	cmp	r3, #0
10002958:	d007      	beq.n	1000296a <_etoa+0xf6>
1000295a:	980a      	ldr	r0, [sp, #40]	; 0x28
1000295c:	9909      	ldr	r1, [sp, #36]	; 0x24
1000295e:	002a      	movs	r2, r5
10002960:	0033      	movs	r3, r6
10002962:	f001 fbde 	bl	10004122 <__wrap___aeabi_ddiv>
10002966:	900a      	str	r0, [sp, #40]	; 0x28
10002968:	9109      	str	r1, [sp, #36]	; 0x24
1000296a:	2200      	movs	r2, #0
1000296c:	2300      	movs	r3, #0
1000296e:	4640      	mov	r0, r8
10002970:	4651      	mov	r1, sl
10002972:	f001 fc37 	bl	100041e4 <__wrap___aeabi_dcmplt>
10002976:	2800      	cmp	r0, #0
10002978:	d005      	beq.n	10002986 <_etoa+0x112>
1000297a:	2080      	movs	r0, #128	; 0x80
1000297c:	0600      	lsls	r0, r0, #24
1000297e:	4684      	mov	ip, r0
10002980:	9909      	ldr	r1, [sp, #36]	; 0x24
10002982:	4461      	add	r1, ip
10002984:	9109      	str	r1, [sp, #36]	; 0x24
10002986:	9a28      	ldr	r2, [sp, #160]	; 0xa0
10002988:	4b41      	ldr	r3, [pc, #260]	; (10002a90 <_etoa+0x21c>)
1000298a:	9d0b      	ldr	r5, [sp, #44]	; 0x2c
1000298c:	4013      	ands	r3, r2
1000298e:	9304      	str	r3, [sp, #16]
10002990:	9b26      	ldr	r3, [sp, #152]	; 0x98
10002992:	9a0a      	ldr	r2, [sp, #40]	; 0x28
10002994:	9302      	str	r3, [sp, #8]
10002996:	9b09      	ldr	r3, [sp, #36]	; 0x24
10002998:	9403      	str	r4, [sp, #12]
1000299a:	9200      	str	r2, [sp, #0]
1000299c:	9301      	str	r3, [sp, #4]
1000299e:	4649      	mov	r1, r9
100029a0:	465b      	mov	r3, fp
100029a2:	0028      	movs	r0, r5
100029a4:	9a0c      	ldr	r2, [sp, #48]	; 0x30
100029a6:	f000 f98b 	bl	10002cc0 <_ftoa>
100029aa:	0004      	movs	r4, r0
100029ac:	2f00      	cmp	r7, #0
100029ae:	d062      	beq.n	10002a76 <_etoa+0x202>
100029b0:	9b28      	ldr	r3, [sp, #160]	; 0xa0
100029b2:	0022      	movs	r2, r4
100029b4:	0698      	lsls	r0, r3, #26
100029b6:	231f      	movs	r3, #31
100029b8:	17c0      	asrs	r0, r0, #31
100029ba:	4398      	bics	r0, r3
100029bc:	1c63      	adds	r3, r4, #1
100029be:	4698      	mov	r8, r3
100029c0:	4649      	mov	r1, r9
100029c2:	465b      	mov	r3, fp
100029c4:	3065      	adds	r0, #101	; 0x65
100029c6:	47a8      	blx	r5
100029c8:	9b0d      	ldr	r3, [sp, #52]	; 0x34
100029ca:	2500      	movs	r5, #0
100029cc:	17da      	asrs	r2, r3, #31
100029ce:	189c      	adds	r4, r3, r2
100029d0:	0fdb      	lsrs	r3, r3, #31
100029d2:	469a      	mov	sl, r3
100029d4:	4054      	eors	r4, r2
100029d6:	3f01      	subs	r7, #1
100029d8:	e001      	b.n	100029de <_etoa+0x16a>
100029da:	2d20      	cmp	r5, #32
100029dc:	d013      	beq.n	10002a06 <_etoa+0x192>
100029de:	aa0a      	add	r2, sp, #40	; 0x28
100029e0:	4694      	mov	ip, r2
100029e2:	231f      	movs	r3, #31
100029e4:	0020      	movs	r0, r4
100029e6:	4463      	add	r3, ip
100029e8:	210a      	movs	r1, #10
100029ea:	3501      	adds	r5, #1
100029ec:	195e      	adds	r6, r3, r5
100029ee:	f001 f943 	bl	10003c78 <__wrap___aeabi_uidiv>
100029f2:	3130      	adds	r1, #48	; 0x30
100029f4:	7031      	strb	r1, [r6, #0]
100029f6:	0020      	movs	r0, r4
100029f8:	210a      	movs	r1, #10
100029fa:	f001 f93d 	bl	10003c78 <__wrap___aeabi_uidiv>
100029fe:	0026      	movs	r6, r4
10002a00:	0004      	movs	r4, r0
10002a02:	2e09      	cmp	r6, #9
10002a04:	d8e9      	bhi.n	100029da <_etoa+0x166>
10002a06:	2305      	movs	r3, #5
10002a08:	9306      	str	r3, [sp, #24]
10002a0a:	2300      	movs	r3, #0
10002a0c:	9304      	str	r3, [sp, #16]
10002a0e:	330a      	adds	r3, #10
10002a10:	9303      	str	r3, [sp, #12]
10002a12:	4653      	mov	r3, sl
10002a14:	9705      	str	r7, [sp, #20]
10002a16:	9f0b      	ldr	r7, [sp, #44]	; 0x2c
10002a18:	9302      	str	r3, [sp, #8]
10002a1a:	ab12      	add	r3, sp, #72	; 0x48
10002a1c:	9300      	str	r3, [sp, #0]
10002a1e:	4642      	mov	r2, r8
10002a20:	465b      	mov	r3, fp
10002a22:	4649      	mov	r1, r9
10002a24:	0038      	movs	r0, r7
10002a26:	9501      	str	r5, [sp, #4]
10002a28:	f7ff fe36 	bl	10002698 <_ntoa_format>
10002a2c:	9b0e      	ldr	r3, [sp, #56]	; 0x38
10002a2e:	0004      	movs	r4, r0
10002a30:	2b00      	cmp	r3, #0
10002a32:	d020      	beq.n	10002a76 <_etoa+0x202>
10002a34:	9b0c      	ldr	r3, [sp, #48]	; 0x30
10002a36:	1ac5      	subs	r5, r0, r3
10002a38:	9b27      	ldr	r3, [sp, #156]	; 0x9c
10002a3a:	42ab      	cmp	r3, r5
10002a3c:	d91b      	bls.n	10002a76 <_etoa+0x202>
10002a3e:	001e      	movs	r6, r3
10002a40:	0022      	movs	r2, r4
10002a42:	465b      	mov	r3, fp
10002a44:	4649      	mov	r1, r9
10002a46:	2020      	movs	r0, #32
10002a48:	3501      	adds	r5, #1
10002a4a:	47b8      	blx	r7
10002a4c:	3401      	adds	r4, #1
10002a4e:	42ae      	cmp	r6, r5
10002a50:	d8f6      	bhi.n	10002a40 <_etoa+0x1cc>
10002a52:	e010      	b.n	10002a76 <_etoa+0x202>
10002a54:	9b28      	ldr	r3, [sp, #160]	; 0xa0
10002a56:	4642      	mov	r2, r8
10002a58:	9304      	str	r3, [sp, #16]
10002a5a:	9b27      	ldr	r3, [sp, #156]	; 0x9c
10002a5c:	4649      	mov	r1, r9
10002a5e:	9303      	str	r3, [sp, #12]
10002a60:	9b26      	ldr	r3, [sp, #152]	; 0x98
10002a62:	980b      	ldr	r0, [sp, #44]	; 0x2c
10002a64:	9302      	str	r3, [sp, #8]
10002a66:	4653      	mov	r3, sl
10002a68:	9200      	str	r2, [sp, #0]
10002a6a:	9301      	str	r3, [sp, #4]
10002a6c:	465b      	mov	r3, fp
10002a6e:	9a0c      	ldr	r2, [sp, #48]	; 0x30
10002a70:	f000 f926 	bl	10002cc0 <_ftoa>
10002a74:	0004      	movs	r4, r0
10002a76:	0020      	movs	r0, r4
10002a78:	b01b      	add	sp, #108	; 0x6c
10002a7a:	bcf0      	pop	{r4, r5, r6, r7}
10002a7c:	46bb      	mov	fp, r7
10002a7e:	46b2      	mov	sl, r6
10002a80:	46a9      	mov	r9, r5
10002a82:	46a0      	mov	r8, r4
10002a84:	bdf0      	pop	{r4, r5, r6, r7, pc}
10002a86:	46c0      	nop			; (mov r8, r8)
10002a88:	7fefffff 	.word	0x7fefffff
10002a8c:	ffefffff 	.word	0xffefffff
10002a90:	fffff7ff 	.word	0xfffff7ff
10002a94:	4b73      	ldr	r3, [pc, #460]	; (10002c64 <_etoa+0x3f0>)
10002a96:	9f09      	ldr	r7, [sp, #36]	; 0x24
10002a98:	469c      	mov	ip, r3
10002a9a:	0078      	lsls	r0, r7, #1
10002a9c:	0d40      	lsrs	r0, r0, #21
10002a9e:	4460      	add	r0, ip
10002aa0:	f001 fbce 	bl	10004240 <__wrap___aeabi_i2d>
10002aa4:	4a70      	ldr	r2, [pc, #448]	; (10002c68 <_etoa+0x3f4>)
10002aa6:	4b71      	ldr	r3, [pc, #452]	; (10002c6c <_etoa+0x3f8>)
10002aa8:	f001 fb59 	bl	1000415e <__wrap___aeabi_dmul>
10002aac:	4a70      	ldr	r2, [pc, #448]	; (10002c70 <_etoa+0x3fc>)
10002aae:	4b71      	ldr	r3, [pc, #452]	; (10002c74 <_etoa+0x400>)
10002ab0:	f001 fb2e 	bl	10004110 <__wrap___aeabi_dadd>
10002ab4:	033b      	lsls	r3, r7, #12
10002ab6:	4a70      	ldr	r2, [pc, #448]	; (10002c78 <_etoa+0x404>)
10002ab8:	0b1b      	lsrs	r3, r3, #12
10002aba:	431a      	orrs	r2, r3
10002abc:	0004      	movs	r4, r0
10002abe:	000d      	movs	r5, r1
10002ac0:	0030      	movs	r0, r6
10002ac2:	0011      	movs	r1, r2
10002ac4:	4b6d      	ldr	r3, [pc, #436]	; (10002c7c <_etoa+0x408>)
10002ac6:	2200      	movs	r2, #0
10002ac8:	f001 fb19 	bl	100040fe <__wrap___aeabi_dsub>
10002acc:	4a6c      	ldr	r2, [pc, #432]	; (10002c80 <_etoa+0x40c>)
10002ace:	4b6d      	ldr	r3, [pc, #436]	; (10002c84 <_etoa+0x410>)
10002ad0:	f001 fb45 	bl	1000415e <__wrap___aeabi_dmul>
10002ad4:	0002      	movs	r2, r0
10002ad6:	000b      	movs	r3, r1
10002ad8:	0020      	movs	r0, r4
10002ada:	0029      	movs	r1, r5
10002adc:	f001 fb18 	bl	10004110 <__wrap___aeabi_dadd>
10002ae0:	f001 fbc6 	bl	10004270 <__wrap___aeabi_d2iz>
10002ae4:	900d      	str	r0, [sp, #52]	; 0x34
10002ae6:	f001 fbab 	bl	10004240 <__wrap___aeabi_i2d>
10002aea:	4a67      	ldr	r2, [pc, #412]	; (10002c88 <_etoa+0x414>)
10002aec:	4b67      	ldr	r3, [pc, #412]	; (10002c8c <_etoa+0x418>)
10002aee:	0004      	movs	r4, r0
10002af0:	000d      	movs	r5, r1
10002af2:	f001 fb34 	bl	1000415e <__wrap___aeabi_dmul>
10002af6:	2200      	movs	r2, #0
10002af8:	4b65      	ldr	r3, [pc, #404]	; (10002c90 <_etoa+0x41c>)
10002afa:	f001 fb09 	bl	10004110 <__wrap___aeabi_dadd>
10002afe:	f001 fbb7 	bl	10004270 <__wrap___aeabi_d2iz>
10002b02:	4a64      	ldr	r2, [pc, #400]	; (10002c94 <_etoa+0x420>)
10002b04:	0006      	movs	r6, r0
10002b06:	4b64      	ldr	r3, [pc, #400]	; (10002c98 <_etoa+0x424>)
10002b08:	0020      	movs	r0, r4
10002b0a:	0029      	movs	r1, r5
10002b0c:	f001 fb27 	bl	1000415e <__wrap___aeabi_dmul>
10002b10:	0004      	movs	r4, r0
10002b12:	0030      	movs	r0, r6
10002b14:	000d      	movs	r5, r1
10002b16:	960f      	str	r6, [sp, #60]	; 0x3c
10002b18:	f001 fb92 	bl	10004240 <__wrap___aeabi_i2d>
10002b1c:	4a5f      	ldr	r2, [pc, #380]	; (10002c9c <_etoa+0x428>)
10002b1e:	4b60      	ldr	r3, [pc, #384]	; (10002ca0 <_etoa+0x42c>)
10002b20:	f001 fb1d 	bl	1000415e <__wrap___aeabi_dmul>
10002b24:	0002      	movs	r2, r0
10002b26:	000b      	movs	r3, r1
10002b28:	0020      	movs	r0, r4
10002b2a:	0029      	movs	r1, r5
10002b2c:	f001 fae7 	bl	100040fe <__wrap___aeabi_dsub>
10002b30:	0002      	movs	r2, r0
10002b32:	000b      	movs	r3, r1
10002b34:	0006      	movs	r6, r0
10002b36:	000f      	movs	r7, r1
10002b38:	f001 fb11 	bl	1000415e <__wrap___aeabi_dmul>
10002b3c:	0032      	movs	r2, r6
10002b3e:	0004      	movs	r4, r0
10002b40:	000d      	movs	r5, r1
10002b42:	003b      	movs	r3, r7
10002b44:	0030      	movs	r0, r6
10002b46:	0039      	movs	r1, r7
10002b48:	f001 fae2 	bl	10004110 <__wrap___aeabi_dadd>
10002b4c:	2200      	movs	r2, #0
10002b4e:	9010      	str	r0, [sp, #64]	; 0x40
10002b50:	9111      	str	r1, [sp, #68]	; 0x44
10002b52:	4b54      	ldr	r3, [pc, #336]	; (10002ca4 <_etoa+0x430>)
10002b54:	0020      	movs	r0, r4
10002b56:	0029      	movs	r1, r5
10002b58:	f001 fae3 	bl	10004122 <__wrap___aeabi_ddiv>
10002b5c:	2200      	movs	r2, #0
10002b5e:	4b52      	ldr	r3, [pc, #328]	; (10002ca8 <_etoa+0x434>)
10002b60:	f001 fad6 	bl	10004110 <__wrap___aeabi_dadd>
10002b64:	0002      	movs	r2, r0
10002b66:	000b      	movs	r3, r1
10002b68:	0020      	movs	r0, r4
10002b6a:	0029      	movs	r1, r5
10002b6c:	f001 fad9 	bl	10004122 <__wrap___aeabi_ddiv>
10002b70:	2200      	movs	r2, #0
10002b72:	4b4e      	ldr	r3, [pc, #312]	; (10002cac <_etoa+0x438>)
10002b74:	f001 facc 	bl	10004110 <__wrap___aeabi_dadd>
10002b78:	0002      	movs	r2, r0
10002b7a:	000b      	movs	r3, r1
10002b7c:	0020      	movs	r0, r4
10002b7e:	0029      	movs	r1, r5
10002b80:	f001 facf 	bl	10004122 <__wrap___aeabi_ddiv>
10002b84:	000d      	movs	r5, r1
10002b86:	2180      	movs	r1, #128	; 0x80
10002b88:	0004      	movs	r4, r0
10002b8a:	0032      	movs	r2, r6
10002b8c:	003b      	movs	r3, r7
10002b8e:	2000      	movs	r0, #0
10002b90:	05c9      	lsls	r1, r1, #23
10002b92:	f001 fab4 	bl	100040fe <__wrap___aeabi_dsub>
10002b96:	0002      	movs	r2, r0
10002b98:	000b      	movs	r3, r1
10002b9a:	0020      	movs	r0, r4
10002b9c:	0029      	movs	r1, r5
10002b9e:	f001 fab7 	bl	10004110 <__wrap___aeabi_dadd>
10002ba2:	0002      	movs	r2, r0
10002ba4:	000b      	movs	r3, r1
10002ba6:	9810      	ldr	r0, [sp, #64]	; 0x40
10002ba8:	9911      	ldr	r1, [sp, #68]	; 0x44
10002baa:	f001 faba 	bl	10004122 <__wrap___aeabi_ddiv>
10002bae:	2200      	movs	r2, #0
10002bb0:	4b31      	ldr	r3, [pc, #196]	; (10002c78 <_etoa+0x404>)
10002bb2:	f001 faad 	bl	10004110 <__wrap___aeabi_dadd>
10002bb6:	4b3e      	ldr	r3, [pc, #248]	; (10002cb0 <_etoa+0x43c>)
10002bb8:	9c0f      	ldr	r4, [sp, #60]	; 0x3c
10002bba:	469c      	mov	ip, r3
10002bbc:	4464      	add	r4, ip
10002bbe:	2200      	movs	r2, #0
10002bc0:	0523      	lsls	r3, r4, #20
10002bc2:	f001 facc 	bl	1000415e <__wrap___aeabi_dmul>
10002bc6:	0005      	movs	r5, r0
10002bc8:	000e      	movs	r6, r1
10002bca:	0002      	movs	r2, r0
10002bcc:	000b      	movs	r3, r1
10002bce:	980a      	ldr	r0, [sp, #40]	; 0x28
10002bd0:	9909      	ldr	r1, [sp, #36]	; 0x24
10002bd2:	f001 fb07 	bl	100041e4 <__wrap___aeabi_dcmplt>
10002bd6:	2800      	cmp	r0, #0
10002bd8:	d00a      	beq.n	10002bf0 <_etoa+0x37c>
10002bda:	9b0d      	ldr	r3, [sp, #52]	; 0x34
10002bdc:	0028      	movs	r0, r5
10002bde:	3b01      	subs	r3, #1
10002be0:	0031      	movs	r1, r6
10002be2:	930d      	str	r3, [sp, #52]	; 0x34
10002be4:	2200      	movs	r2, #0
10002be6:	4b30      	ldr	r3, [pc, #192]	; (10002ca8 <_etoa+0x434>)
10002be8:	f001 fa9b 	bl	10004122 <__wrap___aeabi_ddiv>
10002bec:	0005      	movs	r5, r0
10002bee:	000e      	movs	r6, r1
10002bf0:	27c6      	movs	r7, #198	; 0xc6
10002bf2:	990d      	ldr	r1, [sp, #52]	; 0x34
10002bf4:	002b      	movs	r3, r5
10002bf6:	3163      	adds	r1, #99	; 0x63
10002bf8:	428f      	cmp	r7, r1
10002bfa:	41bf      	sbcs	r7, r7
10002bfc:	9928      	ldr	r1, [sp, #160]	; 0xa0
10002bfe:	427f      	negs	r7, r7
10002c00:	3704      	adds	r7, #4
10002c02:	0509      	lsls	r1, r1, #20
10002c04:	d400      	bmi.n	10002c08 <_etoa+0x394>
10002c06:	e695      	b.n	10002934 <_etoa+0xc0>
10002c08:	4333      	orrs	r3, r6
10002c0a:	d100      	bne.n	10002c0e <_etoa+0x39a>
10002c0c:	e682      	b.n	10002914 <_etoa+0xa0>
10002c0e:	9c09      	ldr	r4, [sp, #36]	; 0x24
10002c10:	4a28      	ldr	r2, [pc, #160]	; (10002cb4 <_etoa+0x440>)
10002c12:	0021      	movs	r1, r4
10002c14:	4b28      	ldr	r3, [pc, #160]	; (10002cb8 <_etoa+0x444>)
10002c16:	980a      	ldr	r0, [sp, #40]	; 0x28
10002c18:	f001 faf2 	bl	10004200 <__wrap___aeabi_dcmpge>
10002c1c:	2800      	cmp	r0, #0
10002c1e:	d008      	beq.n	10002c32 <_etoa+0x3be>
10002c20:	2200      	movs	r2, #0
10002c22:	0021      	movs	r1, r4
10002c24:	4b25      	ldr	r3, [pc, #148]	; (10002cbc <_etoa+0x448>)
10002c26:	980a      	ldr	r0, [sp, #40]	; 0x28
10002c28:	f001 fadc 	bl	100041e4 <__wrap___aeabi_dcmplt>
10002c2c:	2800      	cmp	r0, #0
10002c2e:	d000      	beq.n	10002c32 <_etoa+0x3be>
10002c30:	e670      	b.n	10002914 <_etoa+0xa0>
10002c32:	9b26      	ldr	r3, [sp, #152]	; 0x98
10002c34:	2b00      	cmp	r3, #0
10002c36:	d100      	bne.n	10002c3a <_etoa+0x3c6>
10002c38:	e67c      	b.n	10002934 <_etoa+0xc0>
10002c3a:	9b0e      	ldr	r3, [sp, #56]	; 0x38
10002c3c:	1e5a      	subs	r2, r3, #1
10002c3e:	4193      	sbcs	r3, r2
10002c40:	9a26      	ldr	r2, [sp, #152]	; 0x98
10002c42:	1ad3      	subs	r3, r2, r3
10002c44:	9326      	str	r3, [sp, #152]	; 0x98
10002c46:	e675      	b.n	10002934 <_etoa+0xc0>
10002c48:	2300      	movs	r3, #0
10002c4a:	2704      	movs	r7, #4
10002c4c:	930d      	str	r3, [sp, #52]	; 0x34
10002c4e:	e671      	b.n	10002934 <_etoa+0xc0>
10002c50:	4643      	mov	r3, r8
10002c52:	930a      	str	r3, [sp, #40]	; 0x28
10002c54:	2380      	movs	r3, #128	; 0x80
10002c56:	061b      	lsls	r3, r3, #24
10002c58:	4453      	add	r3, sl
10002c5a:	9309      	str	r3, [sp, #36]	; 0x24
10002c5c:	e642      	b.n	100028e4 <_etoa+0x70>
10002c5e:	2300      	movs	r3, #0
10002c60:	9326      	str	r3, [sp, #152]	; 0x98
10002c62:	e65f      	b.n	10002924 <_etoa+0xb0>
10002c64:	fffffc01 	.word	0xfffffc01
10002c68:	509f79fb 	.word	0x509f79fb
10002c6c:	3fd34413 	.word	0x3fd34413
10002c70:	8b60c8b3 	.word	0x8b60c8b3
10002c74:	3fc68a28 	.word	0x3fc68a28
10002c78:	3ff00000 	.word	0x3ff00000
10002c7c:	3ff80000 	.word	0x3ff80000
10002c80:	636f4361 	.word	0x636f4361
10002c84:	3fd287a7 	.word	0x3fd287a7
10002c88:	0979a371 	.word	0x0979a371
10002c8c:	400a934f 	.word	0x400a934f
10002c90:	3fe00000 	.word	0x3fe00000
10002c94:	bbb55516 	.word	0xbbb55516
10002c98:	40026bb1 	.word	0x40026bb1
10002c9c:	fefa39ef 	.word	0xfefa39ef
10002ca0:	3fe62e42 	.word	0x3fe62e42
10002ca4:	402c0000 	.word	0x402c0000
10002ca8:	40240000 	.word	0x40240000
10002cac:	40180000 	.word	0x40180000
10002cb0:	000003ff 	.word	0x000003ff
10002cb4:	eb1c432d 	.word	0xeb1c432d
10002cb8:	3f1a36e2 	.word	0x3f1a36e2
10002cbc:	412e8480 	.word	0x412e8480

10002cc0 <_ftoa>:
10002cc0:	b5f0      	push	{r4, r5, r6, r7, lr}
10002cc2:	464e      	mov	r6, r9
10002cc4:	46de      	mov	lr, fp
10002cc6:	4657      	mov	r7, sl
10002cc8:	4645      	mov	r5, r8
10002cca:	b5e0      	push	{r5, r6, r7, lr}
10002ccc:	b097      	sub	sp, #92	; 0x5c
10002cce:	4699      	mov	r9, r3
10002cd0:	9e20      	ldr	r6, [sp, #128]	; 0x80
10002cd2:	9f21      	ldr	r7, [sp, #132]	; 0x84
10002cd4:	9b22      	ldr	r3, [sp, #136]	; 0x88
10002cd6:	4683      	mov	fp, r0
10002cd8:	4698      	mov	r8, r3
10002cda:	9107      	str	r1, [sp, #28]
10002cdc:	920c      	str	r2, [sp, #48]	; 0x30
10002cde:	003b      	movs	r3, r7
10002ce0:	0032      	movs	r2, r6
10002ce2:	0030      	movs	r0, r6
10002ce4:	0039      	movs	r1, r7
10002ce6:	f001 fa98 	bl	1000421a <__wrap___aeabi_dcmpun>
10002cea:	2800      	cmp	r0, #0
10002cec:	d000      	beq.n	10002cf0 <_ftoa+0x30>
10002cee:	e1a9      	b.n	10003044 <_ftoa+0x384>
10002cf0:	2201      	movs	r2, #1
10002cf2:	0030      	movs	r0, r6
10002cf4:	0039      	movs	r1, r7
10002cf6:	4bca      	ldr	r3, [pc, #808]	; (10003020 <_ftoa+0x360>)
10002cf8:	4252      	negs	r2, r2
10002cfa:	f001 fa73 	bl	100041e4 <__wrap___aeabi_dcmplt>
10002cfe:	2800      	cmp	r0, #0
10002d00:	d000      	beq.n	10002d04 <_ftoa+0x44>
10002d02:	e0e1      	b.n	10002ec8 <_ftoa+0x208>
10002d04:	2201      	movs	r2, #1
10002d06:	0030      	movs	r0, r6
10002d08:	0039      	movs	r1, r7
10002d0a:	4bc6      	ldr	r3, [pc, #792]	; (10003024 <_ftoa+0x364>)
10002d0c:	4252      	negs	r2, r2
10002d0e:	f001 fa7f 	bl	10004210 <__wrap___aeabi_dcmpgt>
10002d12:	2800      	cmp	r0, #0
10002d14:	d000      	beq.n	10002d18 <_ftoa+0x58>
10002d16:	e0b7      	b.n	10002e88 <_ftoa+0x1c8>
10002d18:	2200      	movs	r2, #0
10002d1a:	0030      	movs	r0, r6
10002d1c:	0039      	movs	r1, r7
10002d1e:	4bc2      	ldr	r3, [pc, #776]	; (10003028 <_ftoa+0x368>)
10002d20:	f001 fa76 	bl	10004210 <__wrap___aeabi_dcmpgt>
10002d24:	2800      	cmp	r0, #0
10002d26:	d000      	beq.n	10002d2a <_ftoa+0x6a>
10002d28:	e099      	b.n	10002e5e <_ftoa+0x19e>
10002d2a:	2200      	movs	r2, #0
10002d2c:	0030      	movs	r0, r6
10002d2e:	0039      	movs	r1, r7
10002d30:	4bbe      	ldr	r3, [pc, #760]	; (1000302c <_ftoa+0x36c>)
10002d32:	f001 fa57 	bl	100041e4 <__wrap___aeabi_dcmplt>
10002d36:	2800      	cmp	r0, #0
10002d38:	d000      	beq.n	10002d3c <_ftoa+0x7c>
10002d3a:	e090      	b.n	10002e5e <_ftoa+0x19e>
10002d3c:	2200      	movs	r2, #0
10002d3e:	2300      	movs	r3, #0
10002d40:	0030      	movs	r0, r6
10002d42:	0039      	movs	r1, r7
10002d44:	f001 fa4e 	bl	100041e4 <__wrap___aeabi_dcmplt>
10002d48:	2800      	cmp	r0, #0
10002d4a:	d000      	beq.n	10002d4e <_ftoa+0x8e>
10002d4c:	e0b1      	b.n	10002eb2 <_ftoa+0x1f2>
10002d4e:	2300      	movs	r3, #0
10002d50:	930d      	str	r3, [sp, #52]	; 0x34
10002d52:	9b24      	ldr	r3, [sp, #144]	; 0x90
10002d54:	055b      	lsls	r3, r3, #21
10002d56:	d401      	bmi.n	10002d5c <_ftoa+0x9c>
10002d58:	2306      	movs	r3, #6
10002d5a:	4698      	mov	r8, r3
10002d5c:	ab08      	add	r3, sp, #32
10002d5e:	469c      	mov	ip, r3
10002d60:	2217      	movs	r2, #23
10002d62:	2400      	movs	r4, #0
10002d64:	2330      	movs	r3, #48	; 0x30
10002d66:	4641      	mov	r1, r8
10002d68:	4462      	add	r2, ip
10002d6a:	e004      	b.n	10002d76 <_ftoa+0xb6>
10002d6c:	3401      	adds	r4, #1
10002d6e:	5513      	strb	r3, [r2, r4]
10002d70:	3901      	subs	r1, #1
10002d72:	2c20      	cmp	r4, #32
10002d74:	d001      	beq.n	10002d7a <_ftoa+0xba>
10002d76:	2909      	cmp	r1, #9
10002d78:	d8f8      	bhi.n	10002d6c <_ftoa+0xac>
10002d7a:	4688      	mov	r8, r1
10002d7c:	0030      	movs	r0, r6
10002d7e:	0039      	movs	r1, r7
10002d80:	f001 fa76 	bl	10004270 <__wrap___aeabi_d2iz>
10002d84:	4643      	mov	r3, r8
10002d86:	00da      	lsls	r2, r3, #3
10002d88:	4ba9      	ldr	r3, [pc, #676]	; (10003030 <_ftoa+0x370>)
10002d8a:	0005      	movs	r5, r0
10002d8c:	189b      	adds	r3, r3, r2
10002d8e:	681a      	ldr	r2, [r3, #0]
10002d90:	685b      	ldr	r3, [r3, #4]
10002d92:	9208      	str	r2, [sp, #32]
10002d94:	9309      	str	r3, [sp, #36]	; 0x24
10002d96:	f001 fa53 	bl	10004240 <__wrap___aeabi_i2d>
10002d9a:	0002      	movs	r2, r0
10002d9c:	000b      	movs	r3, r1
10002d9e:	0030      	movs	r0, r6
10002da0:	0039      	movs	r1, r7
10002da2:	f001 f9ac 	bl	100040fe <__wrap___aeabi_dsub>
10002da6:	9a08      	ldr	r2, [sp, #32]
10002da8:	9b09      	ldr	r3, [sp, #36]	; 0x24
10002daa:	f001 f9d8 	bl	1000415e <__wrap___aeabi_dmul>
10002dae:	900a      	str	r0, [sp, #40]	; 0x28
10002db0:	910b      	str	r1, [sp, #44]	; 0x2c
10002db2:	f001 fa81 	bl	100042b8 <__wrap___aeabi_d2uiz>
10002db6:	4682      	mov	sl, r0
10002db8:	f001 fa3e 	bl	10004238 <__wrap___aeabi_ui2d>
10002dbc:	0002      	movs	r2, r0
10002dbe:	000b      	movs	r3, r1
10002dc0:	980a      	ldr	r0, [sp, #40]	; 0x28
10002dc2:	990b      	ldr	r1, [sp, #44]	; 0x2c
10002dc4:	f001 f99b 	bl	100040fe <__wrap___aeabi_dsub>
10002dc8:	2200      	movs	r2, #0
10002dca:	4b9a      	ldr	r3, [pc, #616]	; (10003034 <_ftoa+0x374>)
10002dcc:	900a      	str	r0, [sp, #40]	; 0x28
10002dce:	910b      	str	r1, [sp, #44]	; 0x2c
10002dd0:	f001 fa1e 	bl	10004210 <__wrap___aeabi_dcmpgt>
10002dd4:	2800      	cmp	r0, #0
10002dd6:	d100      	bne.n	10002dda <_ftoa+0x11a>
10002dd8:	e0c0      	b.n	10002f5c <_ftoa+0x29c>
10002dda:	2301      	movs	r3, #1
10002ddc:	469c      	mov	ip, r3
10002dde:	44e2      	add	sl, ip
10002de0:	4650      	mov	r0, sl
10002de2:	f001 fa29 	bl	10004238 <__wrap___aeabi_ui2d>
10002de6:	0002      	movs	r2, r0
10002de8:	000b      	movs	r3, r1
10002dea:	9808      	ldr	r0, [sp, #32]
10002dec:	9909      	ldr	r1, [sp, #36]	; 0x24
10002dee:	f001 f9ff 	bl	100041f0 <__wrap___aeabi_dcmple>
10002df2:	2800      	cmp	r0, #0
10002df4:	d002      	beq.n	10002dfc <_ftoa+0x13c>
10002df6:	2300      	movs	r3, #0
10002df8:	469a      	mov	sl, r3
10002dfa:	3501      	adds	r5, #1
10002dfc:	4643      	mov	r3, r8
10002dfe:	2b00      	cmp	r3, #0
10002e00:	d06a      	beq.n	10002ed8 <_ftoa+0x218>
10002e02:	ab08      	add	r3, sp, #32
10002e04:	2617      	movs	r6, #23
10002e06:	469c      	mov	ip, r3
10002e08:	9508      	str	r5, [sp, #32]
10002e0a:	4466      	add	r6, ip
10002e0c:	4655      	mov	r5, sl
10002e0e:	e014      	b.n	10002e3a <_ftoa+0x17a>
10002e10:	2301      	movs	r3, #1
10002e12:	425b      	negs	r3, r3
10002e14:	4443      	add	r3, r8
10002e16:	210a      	movs	r1, #10
10002e18:	0028      	movs	r0, r5
10002e1a:	469a      	mov	sl, r3
10002e1c:	f000 ff2c 	bl	10003c78 <__wrap___aeabi_uidiv>
10002e20:	3401      	adds	r4, #1
10002e22:	3130      	adds	r1, #48	; 0x30
10002e24:	1937      	adds	r7, r6, r4
10002e26:	7039      	strb	r1, [r7, #0]
10002e28:	0028      	movs	r0, r5
10002e2a:	210a      	movs	r1, #10
10002e2c:	f000 ff24 	bl	10003c78 <__wrap___aeabi_uidiv>
10002e30:	2d09      	cmp	r5, #9
10002e32:	d800      	bhi.n	10002e36 <_ftoa+0x176>
10002e34:	e0d0      	b.n	10002fd8 <_ftoa+0x318>
10002e36:	46d0      	mov	r8, sl
10002e38:	0005      	movs	r5, r0
10002e3a:	2c20      	cmp	r4, #32
10002e3c:	d1e8      	bne.n	10002e10 <_ftoa+0x150>
10002e3e:	ab0e      	add	r3, sp, #56	; 0x38
10002e40:	4698      	mov	r8, r3
10002e42:	2303      	movs	r3, #3
10002e44:	9a24      	ldr	r2, [sp, #144]	; 0x90
10002e46:	4013      	ands	r3, r2
10002e48:	2b01      	cmp	r3, #1
10002e4a:	d100      	bne.n	10002e4e <_ftoa+0x18e>
10002e4c:	e096      	b.n	10002f7c <_ftoa+0x2bc>
10002e4e:	2320      	movs	r3, #32
10002e50:	9a24      	ldr	r2, [sp, #144]	; 0x90
10002e52:	9301      	str	r3, [sp, #4]
10002e54:	9203      	str	r2, [sp, #12]
10002e56:	9a23      	ldr	r2, [sp, #140]	; 0x8c
10002e58:	4643      	mov	r3, r8
10002e5a:	9202      	str	r2, [sp, #8]
10002e5c:	e01e      	b.n	10002e9c <_ftoa+0x1dc>
10002e5e:	9b24      	ldr	r3, [sp, #144]	; 0x90
10002e60:	4658      	mov	r0, fp
10002e62:	9304      	str	r3, [sp, #16]
10002e64:	9b23      	ldr	r3, [sp, #140]	; 0x8c
10002e66:	9600      	str	r6, [sp, #0]
10002e68:	9701      	str	r7, [sp, #4]
10002e6a:	9303      	str	r3, [sp, #12]
10002e6c:	4643      	mov	r3, r8
10002e6e:	9a0c      	ldr	r2, [sp, #48]	; 0x30
10002e70:	9302      	str	r3, [sp, #8]
10002e72:	9907      	ldr	r1, [sp, #28]
10002e74:	464b      	mov	r3, r9
10002e76:	f7ff fcfd 	bl	10002874 <_etoa>
10002e7a:	b017      	add	sp, #92	; 0x5c
10002e7c:	bcf0      	pop	{r4, r5, r6, r7}
10002e7e:	46bb      	mov	fp, r7
10002e80:	46b2      	mov	sl, r6
10002e82:	46a9      	mov	r9, r5
10002e84:	46a0      	mov	r8, r4
10002e86:	bdf0      	pop	{r4, r5, r6, r7, pc}
10002e88:	9b24      	ldr	r3, [sp, #144]	; 0x90
10002e8a:	075b      	lsls	r3, r3, #29
10002e8c:	d40e      	bmi.n	10002eac <_ftoa+0x1ec>
10002e8e:	2203      	movs	r2, #3
10002e90:	4b69      	ldr	r3, [pc, #420]	; (10003038 <_ftoa+0x378>)
10002e92:	9924      	ldr	r1, [sp, #144]	; 0x90
10002e94:	9201      	str	r2, [sp, #4]
10002e96:	9103      	str	r1, [sp, #12]
10002e98:	9923      	ldr	r1, [sp, #140]	; 0x8c
10002e9a:	9102      	str	r1, [sp, #8]
10002e9c:	9300      	str	r3, [sp, #0]
10002e9e:	4658      	mov	r0, fp
10002ea0:	464b      	mov	r3, r9
10002ea2:	9a0c      	ldr	r2, [sp, #48]	; 0x30
10002ea4:	9907      	ldr	r1, [sp, #28]
10002ea6:	f7ff fba9 	bl	100025fc <_out_rev>
10002eaa:	e7e6      	b.n	10002e7a <_ftoa+0x1ba>
10002eac:	2204      	movs	r2, #4
10002eae:	4b63      	ldr	r3, [pc, #396]	; (1000303c <_ftoa+0x37c>)
10002eb0:	e7ef      	b.n	10002e92 <_ftoa+0x1d2>
10002eb2:	003b      	movs	r3, r7
10002eb4:	0032      	movs	r2, r6
10002eb6:	2000      	movs	r0, #0
10002eb8:	2100      	movs	r1, #0
10002eba:	f001 f920 	bl	100040fe <__wrap___aeabi_dsub>
10002ebe:	2301      	movs	r3, #1
10002ec0:	0006      	movs	r6, r0
10002ec2:	000f      	movs	r7, r1
10002ec4:	930d      	str	r3, [sp, #52]	; 0x34
10002ec6:	e744      	b.n	10002d52 <_ftoa+0x92>
10002ec8:	9b24      	ldr	r3, [sp, #144]	; 0x90
10002eca:	9303      	str	r3, [sp, #12]
10002ecc:	9b23      	ldr	r3, [sp, #140]	; 0x8c
10002ece:	9302      	str	r3, [sp, #8]
10002ed0:	2304      	movs	r3, #4
10002ed2:	9301      	str	r3, [sp, #4]
10002ed4:	4b5a      	ldr	r3, [pc, #360]	; (10003040 <_ftoa+0x380>)
10002ed6:	e7e1      	b.n	10002e9c <_ftoa+0x1dc>
10002ed8:	0028      	movs	r0, r5
10002eda:	f001 f9b1 	bl	10004240 <__wrap___aeabi_i2d>
10002ede:	0002      	movs	r2, r0
10002ee0:	000b      	movs	r3, r1
10002ee2:	0030      	movs	r0, r6
10002ee4:	0039      	movs	r1, r7
10002ee6:	f001 f90a 	bl	100040fe <__wrap___aeabi_dsub>
10002eea:	4b52      	ldr	r3, [pc, #328]	; (10003034 <_ftoa+0x374>)
10002eec:	2200      	movs	r2, #0
10002eee:	0006      	movs	r6, r0
10002ef0:	000f      	movs	r7, r1
10002ef2:	f001 f977 	bl	100041e4 <__wrap___aeabi_dcmplt>
10002ef6:	ab0e      	add	r3, sp, #56	; 0x38
10002ef8:	4698      	mov	r8, r3
10002efa:	2800      	cmp	r0, #0
10002efc:	d10a      	bne.n	10002f14 <_ftoa+0x254>
10002efe:	2200      	movs	r2, #0
10002f00:	0030      	movs	r0, r6
10002f02:	0039      	movs	r1, r7
10002f04:	4b4b      	ldr	r3, [pc, #300]	; (10003034 <_ftoa+0x374>)
10002f06:	f001 f983 	bl	10004210 <__wrap___aeabi_dcmpgt>
10002f0a:	2800      	cmp	r0, #0
10002f0c:	d102      	bne.n	10002f14 <_ftoa+0x254>
10002f0e:	07eb      	lsls	r3, r5, #31
10002f10:	d500      	bpl.n	10002f14 <_ftoa+0x254>
10002f12:	3501      	adds	r5, #1
10002f14:	2c20      	cmp	r4, #32
10002f16:	d094      	beq.n	10002e42 <_ftoa+0x182>
10002f18:	aa08      	add	r2, sp, #32
10002f1a:	4694      	mov	ip, r2
10002f1c:	2317      	movs	r3, #23
10002f1e:	0028      	movs	r0, r5
10002f20:	4463      	add	r3, ip
10002f22:	210a      	movs	r1, #10
10002f24:	3401      	adds	r4, #1
10002f26:	191e      	adds	r6, r3, r4
10002f28:	f000 fe7e 	bl	10003c28 <__wrap___aeabi_idiv>
10002f2c:	3130      	adds	r1, #48	; 0x30
10002f2e:	0028      	movs	r0, r5
10002f30:	7031      	strb	r1, [r6, #0]
10002f32:	210a      	movs	r1, #10
10002f34:	f000 fe78 	bl	10003c28 <__wrap___aeabi_idiv>
10002f38:	1e05      	subs	r5, r0, #0
10002f3a:	d1eb      	bne.n	10002f14 <_ftoa+0x254>
10002f3c:	2303      	movs	r3, #3
10002f3e:	9a24      	ldr	r2, [sp, #144]	; 0x90
10002f40:	4013      	ands	r3, r2
10002f42:	2b01      	cmp	r3, #1
10002f44:	d01b      	beq.n	10002f7e <_ftoa+0x2be>
10002f46:	2c20      	cmp	r4, #32
10002f48:	d100      	bne.n	10002f4c <_ftoa+0x28c>
10002f4a:	e780      	b.n	10002e4e <_ftoa+0x18e>
10002f4c:	9b0d      	ldr	r3, [sp, #52]	; 0x34
10002f4e:	2b00      	cmp	r3, #0
10002f50:	d035      	beq.n	10002fbe <_ftoa+0x2fe>
10002f52:	222d      	movs	r2, #45	; 0x2d
10002f54:	4641      	mov	r1, r8
10002f56:	1c63      	adds	r3, r4, #1
10002f58:	550a      	strb	r2, [r1, r4]
10002f5a:	e779      	b.n	10002e50 <_ftoa+0x190>
10002f5c:	2200      	movs	r2, #0
10002f5e:	980a      	ldr	r0, [sp, #40]	; 0x28
10002f60:	990b      	ldr	r1, [sp, #44]	; 0x2c
10002f62:	4b34      	ldr	r3, [pc, #208]	; (10003034 <_ftoa+0x374>)
10002f64:	f001 f93e 	bl	100041e4 <__wrap___aeabi_dcmplt>
10002f68:	2800      	cmp	r0, #0
10002f6a:	d000      	beq.n	10002f6e <_ftoa+0x2ae>
10002f6c:	e746      	b.n	10002dfc <_ftoa+0x13c>
10002f6e:	4653      	mov	r3, sl
10002f70:	2b00      	cmp	r3, #0
10002f72:	d151      	bne.n	10003018 <_ftoa+0x358>
10002f74:	2301      	movs	r3, #1
10002f76:	469c      	mov	ip, r3
10002f78:	44e2      	add	sl, ip
10002f7a:	e73f      	b.n	10002dfc <_ftoa+0x13c>
10002f7c:	2420      	movs	r4, #32
10002f7e:	9b23      	ldr	r3, [sp, #140]	; 0x8c
10002f80:	2b00      	cmp	r3, #0
10002f82:	d0e0      	beq.n	10002f46 <_ftoa+0x286>
10002f84:	9b0d      	ldr	r3, [sp, #52]	; 0x34
10002f86:	2b00      	cmp	r3, #0
10002f88:	d103      	bne.n	10002f92 <_ftoa+0x2d2>
10002f8a:	9a24      	ldr	r2, [sp, #144]	; 0x90
10002f8c:	330c      	adds	r3, #12
10002f8e:	4213      	tst	r3, r2
10002f90:	d002      	beq.n	10002f98 <_ftoa+0x2d8>
10002f92:	9b23      	ldr	r3, [sp, #140]	; 0x8c
10002f94:	3b01      	subs	r3, #1
10002f96:	9323      	str	r3, [sp, #140]	; 0x8c
10002f98:	9b23      	ldr	r3, [sp, #140]	; 0x8c
10002f9a:	42a3      	cmp	r3, r4
10002f9c:	d9d3      	bls.n	10002f46 <_ftoa+0x286>
10002f9e:	ab08      	add	r3, sp, #32
10002fa0:	469c      	mov	ip, r3
10002fa2:	2217      	movs	r2, #23
10002fa4:	2330      	movs	r3, #48	; 0x30
10002fa6:	4462      	add	r2, ip
10002fa8:	2c20      	cmp	r4, #32
10002faa:	d100      	bne.n	10002fae <_ftoa+0x2ee>
10002fac:	e74f      	b.n	10002e4e <_ftoa+0x18e>
10002fae:	9923      	ldr	r1, [sp, #140]	; 0x8c
10002fb0:	3401      	adds	r4, #1
10002fb2:	5513      	strb	r3, [r2, r4]
10002fb4:	428c      	cmp	r4, r1
10002fb6:	d0c6      	beq.n	10002f46 <_ftoa+0x286>
10002fb8:	2c20      	cmp	r4, #32
10002fba:	d1f8      	bne.n	10002fae <_ftoa+0x2ee>
10002fbc:	e747      	b.n	10002e4e <_ftoa+0x18e>
10002fbe:	9b24      	ldr	r3, [sp, #144]	; 0x90
10002fc0:	075b      	lsls	r3, r3, #29
10002fc2:	d424      	bmi.n	1000300e <_ftoa+0x34e>
10002fc4:	9a24      	ldr	r2, [sp, #144]	; 0x90
10002fc6:	0023      	movs	r3, r4
10002fc8:	0712      	lsls	r2, r2, #28
10002fca:	d400      	bmi.n	10002fce <_ftoa+0x30e>
10002fcc:	e740      	b.n	10002e50 <_ftoa+0x190>
10002fce:	2220      	movs	r2, #32
10002fd0:	4641      	mov	r1, r8
10002fd2:	3301      	adds	r3, #1
10002fd4:	550a      	strb	r2, [r1, r4]
10002fd6:	e73b      	b.n	10002e50 <_ftoa+0x190>
10002fd8:	4657      	mov	r7, sl
10002fda:	9d08      	ldr	r5, [sp, #32]
10002fdc:	2c20      	cmp	r4, #32
10002fde:	d100      	bne.n	10002fe2 <_ftoa+0x322>
10002fe0:	e72d      	b.n	10002e3e <_ftoa+0x17e>
10002fe2:	0022      	movs	r2, r4
10002fe4:	2130      	movs	r1, #48	; 0x30
10002fe6:	4640      	mov	r0, r8
10002fe8:	2f00      	cmp	r7, #0
10002fea:	d009      	beq.n	10003000 <_ftoa+0x340>
10002fec:	3201      	adds	r2, #1
10002fee:	54b1      	strb	r1, [r6, r2]
10002ff0:	2a20      	cmp	r2, #32
10002ff2:	d100      	bne.n	10002ff6 <_ftoa+0x336>
10002ff4:	e723      	b.n	10002e3e <_ftoa+0x17e>
10002ff6:	43d3      	mvns	r3, r2
10002ff8:	191b      	adds	r3, r3, r4
10002ffa:	181b      	adds	r3, r3, r0
10002ffc:	2b00      	cmp	r3, #0
10002ffe:	d1f5      	bne.n	10002fec <_ftoa+0x32c>
10003000:	ab0e      	add	r3, sp, #56	; 0x38
10003002:	4698      	mov	r8, r3
10003004:	232e      	movs	r3, #46	; 0x2e
10003006:	4641      	mov	r1, r8
10003008:	1c54      	adds	r4, r2, #1
1000300a:	548b      	strb	r3, [r1, r2]
1000300c:	e782      	b.n	10002f14 <_ftoa+0x254>
1000300e:	222b      	movs	r2, #43	; 0x2b
10003010:	4641      	mov	r1, r8
10003012:	1c63      	adds	r3, r4, #1
10003014:	550a      	strb	r2, [r1, r4]
10003016:	e71b      	b.n	10002e50 <_ftoa+0x190>
10003018:	07db      	lsls	r3, r3, #31
1000301a:	d400      	bmi.n	1000301e <_ftoa+0x35e>
1000301c:	e6ee      	b.n	10002dfc <_ftoa+0x13c>
1000301e:	e7a9      	b.n	10002f74 <_ftoa+0x2b4>
10003020:	ffefffff 	.word	0xffefffff
10003024:	7fefffff 	.word	0x7fefffff
10003028:	41cdcd65 	.word	0x41cdcd65
1000302c:	c1cdcd65 	.word	0xc1cdcd65
10003030:	10007af8 	.word	0x10007af8
10003034:	3fe00000 	.word	0x3fe00000
10003038:	10007900 	.word	0x10007900
1000303c:	10007904 	.word	0x10007904
10003040:	10007910 	.word	0x10007910
10003044:	9b24      	ldr	r3, [sp, #144]	; 0x90
10003046:	9303      	str	r3, [sp, #12]
10003048:	9b23      	ldr	r3, [sp, #140]	; 0x8c
1000304a:	9302      	str	r3, [sp, #8]
1000304c:	2303      	movs	r3, #3
1000304e:	9301      	str	r3, [sp, #4]
10003050:	4b00      	ldr	r3, [pc, #0]	; (10003054 <_ftoa+0x394>)
10003052:	e723      	b.n	10002e9c <_ftoa+0x1dc>
10003054:	1000790c 	.word	0x1000790c

10003058 <_vsnprintf>:
10003058:	b5f0      	push	{r4, r5, r6, r7, lr}
1000305a:	46de      	mov	lr, fp
1000305c:	464e      	mov	r6, r9
1000305e:	4657      	mov	r7, sl
10003060:	4645      	mov	r5, r8
10003062:	b5e0      	push	{r5, r6, r7, lr}
10003064:	b09f      	sub	sp, #124	; 0x7c
10003066:	001c      	movs	r4, r3
10003068:	9b28      	ldr	r3, [sp, #160]	; 0xa0
1000306a:	4691      	mov	r9, r2
1000306c:	9309      	str	r3, [sp, #36]	; 0x24
1000306e:	4ac9      	ldr	r2, [pc, #804]	; (10003394 <_vsnprintf+0x33c>)
10003070:	4bc9      	ldr	r3, [pc, #804]	; (10003398 <_vsnprintf+0x340>)
10003072:	468b      	mov	fp, r1
10003074:	9008      	str	r0, [sp, #32]
10003076:	601a      	str	r2, [r3, #0]
10003078:	2900      	cmp	r1, #0
1000307a:	d100      	bne.n	1000307e <_vsnprintf+0x26>
1000307c:	e218      	b.n	100034b0 <_vsnprintf+0x458>
1000307e:	2300      	movs	r3, #0
10003080:	7820      	ldrb	r0, [r4, #0]
10003082:	469a      	mov	sl, r3
10003084:	2800      	cmp	r0, #0
10003086:	d100      	bne.n	1000308a <_vsnprintf+0x32>
10003088:	e21a      	b.n	100034c0 <_vsnprintf+0x468>
1000308a:	0026      	movs	r6, r4
1000308c:	001d      	movs	r5, r3
1000308e:	465c      	mov	r4, fp
10003090:	e00a      	b.n	100030a8 <_vsnprintf+0x50>
10003092:	002a      	movs	r2, r5
10003094:	1c6f      	adds	r7, r5, #1
10003096:	464b      	mov	r3, r9
10003098:	9d08      	ldr	r5, [sp, #32]
1000309a:	0021      	movs	r1, r4
1000309c:	47a8      	blx	r5
1000309e:	003d      	movs	r5, r7
100030a0:	3601      	adds	r6, #1
100030a2:	7830      	ldrb	r0, [r6, #0]
100030a4:	2800      	cmp	r0, #0
100030a6:	d070      	beq.n	1000318a <_vsnprintf+0x132>
100030a8:	2825      	cmp	r0, #37	; 0x25
100030aa:	d1f2      	bne.n	10003092 <_vsnprintf+0x3a>
100030ac:	2310      	movs	r3, #16
100030ae:	469b      	mov	fp, r3
100030b0:	3b08      	subs	r3, #8
100030b2:	469a      	mov	sl, r3
100030b4:	3b04      	subs	r3, #4
100030b6:	4698      	mov	r8, r3
100030b8:	3b02      	subs	r3, #2
100030ba:	2100      	movs	r1, #0
100030bc:	469c      	mov	ip, r3
100030be:	1c72      	adds	r2, r6, #1
100030c0:	7810      	ldrb	r0, [r2, #0]
100030c2:	0016      	movs	r6, r2
100030c4:	0003      	movs	r3, r0
100030c6:	3b20      	subs	r3, #32
100030c8:	b2db      	uxtb	r3, r3
100030ca:	2b10      	cmp	r3, #16
100030cc:	d803      	bhi.n	100030d6 <_vsnprintf+0x7e>
100030ce:	4fb3      	ldr	r7, [pc, #716]	; (1000339c <_vsnprintf+0x344>)
100030d0:	009b      	lsls	r3, r3, #2
100030d2:	58fb      	ldr	r3, [r7, r3]
100030d4:	469f      	mov	pc, r3
100030d6:	0003      	movs	r3, r0
100030d8:	3b30      	subs	r3, #48	; 0x30
100030da:	2b09      	cmp	r3, #9
100030dc:	d932      	bls.n	10003144 <_vsnprintf+0xec>
100030de:	2300      	movs	r3, #0
100030e0:	930a      	str	r3, [sp, #40]	; 0x28
100030e2:	282a      	cmp	r0, #42	; 0x2a
100030e4:	d068      	beq.n	100031b8 <_vsnprintf+0x160>
100030e6:	2300      	movs	r3, #0
100030e8:	4698      	mov	r8, r3
100030ea:	282e      	cmp	r0, #46	; 0x2e
100030ec:	d03e      	beq.n	1000316c <_vsnprintf+0x114>
100030ee:	0003      	movs	r3, r0
100030f0:	3b68      	subs	r3, #104	; 0x68
100030f2:	b2db      	uxtb	r3, r3
100030f4:	2b12      	cmp	r3, #18
100030f6:	d81c      	bhi.n	10003132 <_vsnprintf+0xda>
100030f8:	4aa9      	ldr	r2, [pc, #676]	; (100033a0 <_vsnprintf+0x348>)
100030fa:	009b      	lsls	r3, r3, #2
100030fc:	58d3      	ldr	r3, [r2, r3]
100030fe:	469f      	mov	pc, r3
10003100:	2301      	movs	r3, #1
10003102:	3201      	adds	r2, #1
10003104:	4319      	orrs	r1, r3
10003106:	e7db      	b.n	100030c0 <_vsnprintf+0x68>
10003108:	4663      	mov	r3, ip
1000310a:	3201      	adds	r2, #1
1000310c:	4319      	orrs	r1, r3
1000310e:	e7d7      	b.n	100030c0 <_vsnprintf+0x68>
10003110:	4643      	mov	r3, r8
10003112:	3201      	adds	r2, #1
10003114:	4319      	orrs	r1, r3
10003116:	e7d3      	b.n	100030c0 <_vsnprintf+0x68>
10003118:	465b      	mov	r3, fp
1000311a:	3201      	adds	r2, #1
1000311c:	4319      	orrs	r1, r3
1000311e:	e7cf      	b.n	100030c0 <_vsnprintf+0x68>
10003120:	4653      	mov	r3, sl
10003122:	3201      	adds	r2, #1
10003124:	4319      	orrs	r1, r3
10003126:	e7cb      	b.n	100030c0 <_vsnprintf+0x68>
10003128:	2380      	movs	r3, #128	; 0x80
1000312a:	005b      	lsls	r3, r3, #1
1000312c:	7870      	ldrb	r0, [r6, #1]
1000312e:	4319      	orrs	r1, r3
10003130:	3601      	adds	r6, #1
10003132:	0003      	movs	r3, r0
10003134:	3b25      	subs	r3, #37	; 0x25
10003136:	b2db      	uxtb	r3, r3
10003138:	2b53      	cmp	r3, #83	; 0x53
1000313a:	d8aa      	bhi.n	10003092 <_vsnprintf+0x3a>
1000313c:	4a99      	ldr	r2, [pc, #612]	; (100033a4 <_vsnprintf+0x34c>)
1000313e:	009b      	lsls	r3, r3, #2
10003140:	58d3      	ldr	r3, [r2, r3]
10003142:	469f      	mov	pc, r3
10003144:	2700      	movs	r7, #0
10003146:	0003      	movs	r3, r0
10003148:	00b8      	lsls	r0, r7, #2
1000314a:	19c0      	adds	r0, r0, r7
1000314c:	3601      	adds	r6, #1
1000314e:	0040      	lsls	r0, r0, #1
10003150:	18c0      	adds	r0, r0, r3
10003152:	7833      	ldrb	r3, [r6, #0]
10003154:	3830      	subs	r0, #48	; 0x30
10003156:	001a      	movs	r2, r3
10003158:	3a30      	subs	r2, #48	; 0x30
1000315a:	0007      	movs	r7, r0
1000315c:	2a09      	cmp	r2, #9
1000315e:	d9f3      	bls.n	10003148 <_vsnprintf+0xf0>
10003160:	900a      	str	r0, [sp, #40]	; 0x28
10003162:	0018      	movs	r0, r3
10003164:	2300      	movs	r3, #0
10003166:	4698      	mov	r8, r3
10003168:	282e      	cmp	r0, #46	; 0x2e
1000316a:	d1c0      	bne.n	100030ee <_vsnprintf+0x96>
1000316c:	2380      	movs	r3, #128	; 0x80
1000316e:	7870      	ldrb	r0, [r6, #1]
10003170:	00db      	lsls	r3, r3, #3
10003172:	4319      	orrs	r1, r3
10003174:	0003      	movs	r3, r0
10003176:	3b30      	subs	r3, #48	; 0x30
10003178:	1c72      	adds	r2, r6, #1
1000317a:	2b09      	cmp	r3, #9
1000317c:	d800      	bhi.n	10003180 <_vsnprintf+0x128>
1000317e:	e1a1      	b.n	100034c4 <_vsnprintf+0x46c>
10003180:	282a      	cmp	r0, #42	; 0x2a
10003182:	d100      	bne.n	10003186 <_vsnprintf+0x12e>
10003184:	e1b2      	b.n	100034ec <_vsnprintf+0x494>
10003186:	0016      	movs	r6, r2
10003188:	e7b1      	b.n	100030ee <_vsnprintf+0x96>
1000318a:	46a3      	mov	fp, r4
1000318c:	46aa      	mov	sl, r5
1000318e:	002c      	movs	r4, r5
10003190:	45d1      	cmp	r9, sl
10003192:	d803      	bhi.n	1000319c <_vsnprintf+0x144>
10003194:	2301      	movs	r3, #1
10003196:	425b      	negs	r3, r3
10003198:	444b      	add	r3, r9
1000319a:	469a      	mov	sl, r3
1000319c:	464b      	mov	r3, r9
1000319e:	4652      	mov	r2, sl
100031a0:	4659      	mov	r1, fp
100031a2:	2000      	movs	r0, #0
100031a4:	9d08      	ldr	r5, [sp, #32]
100031a6:	47a8      	blx	r5
100031a8:	0020      	movs	r0, r4
100031aa:	b01f      	add	sp, #124	; 0x7c
100031ac:	bcf0      	pop	{r4, r5, r6, r7}
100031ae:	46bb      	mov	fp, r7
100031b0:	46b2      	mov	sl, r6
100031b2:	46a9      	mov	r9, r5
100031b4:	46a0      	mov	r8, r4
100031b6:	bdf0      	pop	{r4, r5, r6, r7, pc}
100031b8:	9b09      	ldr	r3, [sp, #36]	; 0x24
100031ba:	cb40      	ldmia	r3!, {r6}
100031bc:	960a      	str	r6, [sp, #40]	; 0x28
100031be:	2e00      	cmp	r6, #0
100031c0:	db03      	blt.n	100031ca <_vsnprintf+0x172>
100031c2:	7850      	ldrb	r0, [r2, #1]
100031c4:	9309      	str	r3, [sp, #36]	; 0x24
100031c6:	1c56      	adds	r6, r2, #1
100031c8:	e78d      	b.n	100030e6 <_vsnprintf+0x8e>
100031ca:	3828      	subs	r0, #40	; 0x28
100031cc:	4301      	orrs	r1, r0
100031ce:	4270      	negs	r0, r6
100031d0:	900a      	str	r0, [sp, #40]	; 0x28
100031d2:	9309      	str	r3, [sp, #36]	; 0x24
100031d4:	7850      	ldrb	r0, [r2, #1]
100031d6:	1c56      	adds	r6, r2, #1
100031d8:	e785      	b.n	100030e6 <_vsnprintf+0x8e>
100031da:	2878      	cmp	r0, #120	; 0x78
100031dc:	d100      	bne.n	100031e0 <_vsnprintf+0x188>
100031de:	e1df      	b.n	100035a0 <_vsnprintf+0x548>
100031e0:	2858      	cmp	r0, #88	; 0x58
100031e2:	d100      	bne.n	100031e6 <_vsnprintf+0x18e>
100031e4:	e24c      	b.n	10003680 <_vsnprintf+0x628>
100031e6:	286f      	cmp	r0, #111	; 0x6f
100031e8:	d100      	bne.n	100031ec <_vsnprintf+0x194>
100031ea:	e34f      	b.n	1000388c <_vsnprintf+0x834>
100031ec:	2862      	cmp	r0, #98	; 0x62
100031ee:	d101      	bne.n	100031f4 <_vsnprintf+0x19c>
100031f0:	f000 fc30 	bl	10003a54 <_vsnprintf+0x9fc>
100031f4:	2310      	movs	r3, #16
100031f6:	000a      	movs	r2, r1
100031f8:	439a      	bics	r2, r3
100031fa:	920b      	str	r2, [sp, #44]	; 0x2c
100031fc:	2869      	cmp	r0, #105	; 0x69
100031fe:	d001      	beq.n	10003204 <_vsnprintf+0x1ac>
10003200:	f000 fca9 	bl	10003b56 <_vsnprintf+0xafe>
10003204:	230a      	movs	r3, #10
10003206:	930c      	str	r3, [sp, #48]	; 0x30
10003208:	054b      	lsls	r3, r1, #21
1000320a:	d500      	bpl.n	1000320e <_vsnprintf+0x1b6>
1000320c:	e1d0      	b.n	100035b0 <_vsnprintf+0x558>
1000320e:	9a0b      	ldr	r2, [sp, #44]	; 0x2c
10003210:	2380      	movs	r3, #128	; 0x80
10003212:	0011      	movs	r1, r2
10003214:	009b      	lsls	r3, r3, #2
10003216:	4019      	ands	r1, r3
10003218:	468b      	mov	fp, r1
1000321a:	421a      	tst	r2, r3
1000321c:	d000      	beq.n	10003220 <_vsnprintf+0x1c8>
1000321e:	e2a1      	b.n	10003764 <_vsnprintf+0x70c>
10003220:	2380      	movs	r3, #128	; 0x80
10003222:	0011      	movs	r1, r2
10003224:	005b      	lsls	r3, r3, #1
10003226:	4019      	ands	r1, r3
10003228:	468a      	mov	sl, r1
1000322a:	421a      	tst	r2, r3
1000322c:	d000      	beq.n	10003230 <_vsnprintf+0x1d8>
1000322e:	e3b6      	b.n	1000399e <_vsnprintf+0x946>
10003230:	0013      	movs	r3, r2
10003232:	065b      	lsls	r3, r3, #25
10003234:	d500      	bpl.n	10003238 <_vsnprintf+0x1e0>
10003236:	e2ed      	b.n	10003814 <_vsnprintf+0x7bc>
10003238:	0013      	movs	r3, r2
1000323a:	9909      	ldr	r1, [sp, #36]	; 0x24
1000323c:	061b      	lsls	r3, r3, #24
1000323e:	d401      	bmi.n	10003244 <_vsnprintf+0x1ec>
10003240:	f000 fc76 	bl	10003b30 <_vsnprintf+0xad8>
10003244:	c908      	ldmia	r1!, {r3}
10003246:	b21b      	sxth	r3, r3
10003248:	17d8      	asrs	r0, r3, #31
1000324a:	181a      	adds	r2, r3, r0
1000324c:	4042      	eors	r2, r0
1000324e:	b292      	uxth	r2, r2
10003250:	9109      	str	r1, [sp, #36]	; 0x24
10003252:	4693      	mov	fp, r2
10003254:	0fda      	lsrs	r2, r3, #31
10003256:	9212      	str	r2, [sp, #72]	; 0x48
10003258:	2b00      	cmp	r3, #0
1000325a:	d109      	bne.n	10003270 <_vsnprintf+0x218>
1000325c:	2380      	movs	r3, #128	; 0x80
1000325e:	2210      	movs	r2, #16
10003260:	990b      	ldr	r1, [sp, #44]	; 0x2c
10003262:	00db      	lsls	r3, r3, #3
10003264:	400b      	ands	r3, r1
10003266:	4391      	bics	r1, r2
10003268:	910b      	str	r1, [sp, #44]	; 0x2c
1000326a:	2b00      	cmp	r3, #0
1000326c:	d000      	beq.n	10003270 <_vsnprintf+0x218>
1000326e:	e2e4      	b.n	1000383a <_vsnprintf+0x7e2>
10003270:	9a0b      	ldr	r2, [sp, #44]	; 0x2c
10003272:	2361      	movs	r3, #97	; 0x61
10003274:	0692      	lsls	r2, r2, #26
10003276:	d500      	bpl.n	1000327a <_vsnprintf+0x222>
10003278:	2341      	movs	r3, #65	; 0x41
1000327a:	a90e      	add	r1, sp, #56	; 0x38
1000327c:	221f      	movs	r2, #31
1000327e:	468c      	mov	ip, r1
10003280:	b2db      	uxtb	r3, r3
10003282:	4462      	add	r2, ip
10003284:	3b0a      	subs	r3, #10
10003286:	465f      	mov	r7, fp
10003288:	9513      	str	r5, [sp, #76]	; 0x4c
1000328a:	46a3      	mov	fp, r4
1000328c:	4655      	mov	r5, sl
1000328e:	9c0c      	ldr	r4, [sp, #48]	; 0x30
10003290:	46b2      	mov	sl, r6
10003292:	930d      	str	r3, [sp, #52]	; 0x34
10003294:	0016      	movs	r6, r2
10003296:	e00a      	b.n	100032ae <_vsnprintf+0x256>
10003298:	3330      	adds	r3, #48	; 0x30
1000329a:	b2db      	uxtb	r3, r3
1000329c:	3501      	adds	r5, #1
1000329e:	5573      	strb	r3, [r6, r5]
100032a0:	42a7      	cmp	r7, r4
100032a2:	d200      	bcs.n	100032a6 <_vsnprintf+0x24e>
100032a4:	e2ed      	b.n	10003882 <_vsnprintf+0x82a>
100032a6:	2d20      	cmp	r5, #32
100032a8:	d100      	bne.n	100032ac <_vsnprintf+0x254>
100032aa:	e2ea      	b.n	10003882 <_vsnprintf+0x82a>
100032ac:	0007      	movs	r7, r0
100032ae:	0021      	movs	r1, r4
100032b0:	0038      	movs	r0, r7
100032b2:	f000 fce1 	bl	10003c78 <__wrap___aeabi_uidiv>
100032b6:	b2cb      	uxtb	r3, r1
100032b8:	2909      	cmp	r1, #9
100032ba:	d9ed      	bls.n	10003298 <_vsnprintf+0x240>
100032bc:	9a0d      	ldr	r2, [sp, #52]	; 0x34
100032be:	4694      	mov	ip, r2
100032c0:	4463      	add	r3, ip
100032c2:	b2db      	uxtb	r3, r3
100032c4:	e7ea      	b.n	1000329c <_vsnprintf+0x244>
100032c6:	2380      	movs	r3, #128	; 0x80
100032c8:	009b      	lsls	r3, r3, #2
100032ca:	7870      	ldrb	r0, [r6, #1]
100032cc:	4319      	orrs	r1, r3
100032ce:	3601      	adds	r6, #1
100032d0:	e72f      	b.n	10003132 <_vsnprintf+0xda>
100032d2:	7870      	ldrb	r0, [r6, #1]
100032d4:	2868      	cmp	r0, #104	; 0x68
100032d6:	d100      	bne.n	100032da <_vsnprintf+0x282>
100032d8:	e1cd      	b.n	10003676 <_vsnprintf+0x61e>
100032da:	2380      	movs	r3, #128	; 0x80
100032dc:	3601      	adds	r6, #1
100032de:	4319      	orrs	r1, r3
100032e0:	e727      	b.n	10003132 <_vsnprintf+0xda>
100032e2:	7870      	ldrb	r0, [r6, #1]
100032e4:	286c      	cmp	r0, #108	; 0x6c
100032e6:	d100      	bne.n	100032ea <_vsnprintf+0x292>
100032e8:	e1bf      	b.n	1000366a <_vsnprintf+0x612>
100032ea:	2380      	movs	r3, #128	; 0x80
100032ec:	005b      	lsls	r3, r3, #1
100032ee:	4319      	orrs	r1, r3
100032f0:	3601      	adds	r6, #1
100032f2:	e71e      	b.n	10003132 <_vsnprintf+0xda>
100032f4:	2846      	cmp	r0, #70	; 0x46
100032f6:	d100      	bne.n	100032fa <_vsnprintf+0x2a2>
100032f8:	e19b      	b.n	10003632 <_vsnprintf+0x5da>
100032fa:	2207      	movs	r2, #7
100032fc:	9b09      	ldr	r3, [sp, #36]	; 0x24
100032fe:	9104      	str	r1, [sp, #16]
10003300:	3307      	adds	r3, #7
10003302:	4393      	bics	r3, r2
10003304:	9a0a      	ldr	r2, [sp, #40]	; 0x28
10003306:	0019      	movs	r1, r3
10003308:	9203      	str	r2, [sp, #12]
1000330a:	4642      	mov	r2, r8
1000330c:	9202      	str	r2, [sp, #8]
1000330e:	c90c      	ldmia	r1!, {r2, r3}
10003310:	9808      	ldr	r0, [sp, #32]
10003312:	9200      	str	r2, [sp, #0]
10003314:	9301      	str	r3, [sp, #4]
10003316:	9109      	str	r1, [sp, #36]	; 0x24
10003318:	002a      	movs	r2, r5
1000331a:	464b      	mov	r3, r9
1000331c:	0021      	movs	r1, r4
1000331e:	f7ff fccf 	bl	10002cc0 <_ftoa>
10003322:	3601      	adds	r6, #1
10003324:	0005      	movs	r5, r0
10003326:	e6bc      	b.n	100030a2 <_vsnprintf+0x4a>
10003328:	002a      	movs	r2, r5
1000332a:	1c6f      	adds	r7, r5, #1
1000332c:	464b      	mov	r3, r9
1000332e:	9d08      	ldr	r5, [sp, #32]
10003330:	0021      	movs	r1, r4
10003332:	2025      	movs	r0, #37	; 0x25
10003334:	47a8      	blx	r5
10003336:	3601      	adds	r6, #1
10003338:	003d      	movs	r5, r7
1000333a:	e6b2      	b.n	100030a2 <_vsnprintf+0x4a>
1000333c:	078b      	lsls	r3, r1, #30
1000333e:	d400      	bmi.n	10003342 <_vsnprintf+0x2ea>
10003340:	e1ad      	b.n	1000369e <_vsnprintf+0x646>
10003342:	9b09      	ldr	r3, [sp, #36]	; 0x24
10003344:	002a      	movs	r2, r5
10003346:	469a      	mov	sl, r3
10003348:	1c6b      	adds	r3, r5, #1
1000334a:	4698      	mov	r8, r3
1000334c:	4653      	mov	r3, sl
1000334e:	cb01      	ldmia	r3!, {r0}
10003350:	0021      	movs	r1, r4
10003352:	469a      	mov	sl, r3
10003354:	9f08      	ldr	r7, [sp, #32]
10003356:	464b      	mov	r3, r9
10003358:	b2c0      	uxtb	r0, r0
1000335a:	47b8      	blx	r7
1000335c:	9b0a      	ldr	r3, [sp, #40]	; 0x28
1000335e:	469c      	mov	ip, r3
10003360:	4465      	add	r5, ip
10003362:	2b01      	cmp	r3, #1
10003364:	d800      	bhi.n	10003368 <_vsnprintf+0x310>
10003366:	e286      	b.n	10003876 <_vsnprintf+0x81e>
10003368:	9b08      	ldr	r3, [sp, #32]
1000336a:	4647      	mov	r7, r8
1000336c:	46b0      	mov	r8, r6
1000336e:	0026      	movs	r6, r4
10003370:	464c      	mov	r4, r9
10003372:	4699      	mov	r9, r3
10003374:	003a      	movs	r2, r7
10003376:	0023      	movs	r3, r4
10003378:	3701      	adds	r7, #1
1000337a:	0031      	movs	r1, r6
1000337c:	2020      	movs	r0, #32
1000337e:	47c8      	blx	r9
10003380:	42af      	cmp	r7, r5
10003382:	d1f7      	bne.n	10003374 <_vsnprintf+0x31c>
10003384:	46a1      	mov	r9, r4
10003386:	4653      	mov	r3, sl
10003388:	0034      	movs	r4, r6
1000338a:	4646      	mov	r6, r8
1000338c:	9309      	str	r3, [sp, #36]	; 0x24
1000338e:	3601      	adds	r6, #1
10003390:	e687      	b.n	100030a2 <_vsnprintf+0x4a>
10003392:	46c0      	nop			; (mov r8, r8)
10003394:	10003059 	.word	0x10003059
10003398:	20002bcc 	.word	0x20002bcc
1000339c:	10007918 	.word	0x10007918
100033a0:	1000795c 	.word	0x1000795c
100033a4:	100079a8 	.word	0x100079a8
100033a8:	9b09      	ldr	r3, [sp, #36]	; 0x24
100033aa:	cb04      	ldmia	r3!, {r2}
100033ac:	469b      	mov	fp, r3
100033ae:	4643      	mov	r3, r8
100033b0:	9209      	str	r2, [sp, #36]	; 0x24
100033b2:	2b00      	cmp	r3, #0
100033b4:	d100      	bne.n	100033b8 <_vsnprintf+0x360>
100033b6:	e0c6      	b.n	10003546 <_vsnprintf+0x4ee>
100033b8:	7813      	ldrb	r3, [r2, #0]
100033ba:	469c      	mov	ip, r3
100033bc:	2b00      	cmp	r3, #0
100033be:	d100      	bne.n	100033c2 <_vsnprintf+0x36a>
100033c0:	e3bd      	b.n	10003b3e <_vsnprintf+0xae6>
100033c2:	4643      	mov	r3, r8
100033c4:	3b01      	subs	r3, #1
100033c6:	9a09      	ldr	r2, [sp, #36]	; 0x24
100033c8:	3301      	adds	r3, #1
100033ca:	18d0      	adds	r0, r2, r3
100033cc:	9f0a      	ldr	r7, [sp, #40]	; 0x28
100033ce:	0013      	movs	r3, r2
100033d0:	e001      	b.n	100033d6 <_vsnprintf+0x37e>
100033d2:	4283      	cmp	r3, r0
100033d4:	d003      	beq.n	100033de <_vsnprintf+0x386>
100033d6:	785a      	ldrb	r2, [r3, #1]
100033d8:	3301      	adds	r3, #1
100033da:	2a00      	cmp	r2, #0
100033dc:	d1f9      	bne.n	100033d2 <_vsnprintf+0x37a>
100033de:	9a09      	ldr	r2, [sp, #36]	; 0x24
100033e0:	970a      	str	r7, [sp, #40]	; 0x28
100033e2:	1a9b      	subs	r3, r3, r2
100033e4:	930b      	str	r3, [sp, #44]	; 0x2c
100033e6:	2380      	movs	r3, #128	; 0x80
100033e8:	000a      	movs	r2, r1
100033ea:	00db      	lsls	r3, r3, #3
100033ec:	401a      	ands	r2, r3
100033ee:	920c      	str	r2, [sp, #48]	; 0x30
100033f0:	4219      	tst	r1, r3
100033f2:	d004      	beq.n	100033fe <_vsnprintf+0x3a6>
100033f4:	9b0b      	ldr	r3, [sp, #44]	; 0x2c
100033f6:	4543      	cmp	r3, r8
100033f8:	d901      	bls.n	100033fe <_vsnprintf+0x3a6>
100033fa:	4643      	mov	r3, r8
100033fc:	930b      	str	r3, [sp, #44]	; 0x2c
100033fe:	2302      	movs	r3, #2
10003400:	001a      	movs	r2, r3
10003402:	400a      	ands	r2, r1
10003404:	920d      	str	r2, [sp, #52]	; 0x34
10003406:	420b      	tst	r3, r1
10003408:	d100      	bne.n	1000340c <_vsnprintf+0x3b4>
1000340a:	e187      	b.n	1000371c <_vsnprintf+0x6c4>
1000340c:	4660      	mov	r0, ip
1000340e:	2800      	cmp	r0, #0
10003410:	d100      	bne.n	10003414 <_vsnprintf+0x3bc>
10003412:	e168      	b.n	100036e6 <_vsnprintf+0x68e>
10003414:	9b0c      	ldr	r3, [sp, #48]	; 0x30
10003416:	2b00      	cmp	r3, #0
10003418:	d100      	bne.n	1000341c <_vsnprintf+0x3c4>
1000341a:	e10d      	b.n	10003638 <_vsnprintf+0x5e0>
1000341c:	44a8      	add	r8, r5
1000341e:	46c2      	mov	sl, r8
10003420:	9b09      	ldr	r3, [sp, #36]	; 0x24
10003422:	4657      	mov	r7, sl
10003424:	1b5b      	subs	r3, r3, r5
10003426:	4698      	mov	r8, r3
10003428:	9b08      	ldr	r3, [sp, #32]
1000342a:	46b2      	mov	sl, r6
1000342c:	002a      	movs	r2, r5
1000342e:	0026      	movs	r6, r4
10003430:	464c      	mov	r4, r9
10003432:	4699      	mov	r9, r3
10003434:	e009      	b.n	1000344a <_vsnprintf+0x3f2>
10003436:	0023      	movs	r3, r4
10003438:	0031      	movs	r1, r6
1000343a:	1c55      	adds	r5, r2, #1
1000343c:	47c8      	blx	r9
1000343e:	4643      	mov	r3, r8
10003440:	5d58      	ldrb	r0, [r3, r5]
10003442:	2800      	cmp	r0, #0
10003444:	d100      	bne.n	10003448 <_vsnprintf+0x3f0>
10003446:	e126      	b.n	10003696 <_vsnprintf+0x63e>
10003448:	002a      	movs	r2, r5
1000344a:	4297      	cmp	r7, r2
1000344c:	d1f3      	bne.n	10003436 <_vsnprintf+0x3de>
1000344e:	46a1      	mov	r9, r4
10003450:	003d      	movs	r5, r7
10003452:	0034      	movs	r4, r6
10003454:	4656      	mov	r6, sl
10003456:	9b0d      	ldr	r3, [sp, #52]	; 0x34
10003458:	2b00      	cmp	r3, #0
1000345a:	d000      	beq.n	1000345e <_vsnprintf+0x406>
1000345c:	e143      	b.n	100036e6 <_vsnprintf+0x68e>
1000345e:	465b      	mov	r3, fp
10003460:	3601      	adds	r6, #1
10003462:	9309      	str	r3, [sp, #36]	; 0x24
10003464:	e61d      	b.n	100030a2 <_vsnprintf+0x4a>
10003466:	9b09      	ldr	r3, [sp, #36]	; 0x24
10003468:	001a      	movs	r2, r3
1000346a:	ca08      	ldmia	r2!, {r3}
1000346c:	4692      	mov	sl, r2
1000346e:	2b00      	cmp	r3, #0
10003470:	d048      	beq.n	10003504 <_vsnprintf+0x4ac>
10003472:	2221      	movs	r2, #33	; 0x21
10003474:	4311      	orrs	r1, r2
10003476:	468b      	mov	fp, r1
10003478:	a80e      	add	r0, sp, #56	; 0x38
1000347a:	4684      	mov	ip, r0
1000347c:	211f      	movs	r1, #31
1000347e:	4461      	add	r1, ip
10003480:	9509      	str	r5, [sp, #36]	; 0x24
10003482:	2200      	movs	r2, #0
10003484:	270f      	movs	r7, #15
10003486:	46a4      	mov	ip, r4
10003488:	000d      	movs	r5, r1
1000348a:	e002      	b.n	10003492 <_vsnprintf+0x43a>
1000348c:	2a20      	cmp	r2, #32
1000348e:	d00c      	beq.n	100034aa <_vsnprintf+0x452>
10003490:	000b      	movs	r3, r1
10003492:	003c      	movs	r4, r7
10003494:	401c      	ands	r4, r3
10003496:	0020      	movs	r0, r4
10003498:	3037      	adds	r0, #55	; 0x37
1000349a:	2c09      	cmp	r4, #9
1000349c:	d800      	bhi.n	100034a0 <_vsnprintf+0x448>
1000349e:	3807      	subs	r0, #7
100034a0:	3201      	adds	r2, #1
100034a2:	54a8      	strb	r0, [r5, r2]
100034a4:	0919      	lsrs	r1, r3, #4
100034a6:	2b0f      	cmp	r3, #15
100034a8:	d8f0      	bhi.n	1000348c <_vsnprintf+0x434>
100034aa:	4664      	mov	r4, ip
100034ac:	9d09      	ldr	r5, [sp, #36]	; 0x24
100034ae:	e032      	b.n	10003516 <_vsnprintf+0x4be>
100034b0:	4bdc      	ldr	r3, [pc, #880]	; (10003824 <_vsnprintf+0x7cc>)
100034b2:	7820      	ldrb	r0, [r4, #0]
100034b4:	9308      	str	r3, [sp, #32]
100034b6:	2300      	movs	r3, #0
100034b8:	469a      	mov	sl, r3
100034ba:	2800      	cmp	r0, #0
100034bc:	d000      	beq.n	100034c0 <_vsnprintf+0x468>
100034be:	e5e4      	b.n	1000308a <_vsnprintf+0x32>
100034c0:	2400      	movs	r4, #0
100034c2:	e665      	b.n	10003190 <_vsnprintf+0x138>
100034c4:	4643      	mov	r3, r8
100034c6:	0006      	movs	r6, r0
100034c8:	9f0a      	ldr	r7, [sp, #40]	; 0x28
100034ca:	0098      	lsls	r0, r3, #2
100034cc:	18c0      	adds	r0, r0, r3
100034ce:	3201      	adds	r2, #1
100034d0:	0040      	lsls	r0, r0, #1
100034d2:	1980      	adds	r0, r0, r6
100034d4:	7816      	ldrb	r6, [r2, #0]
100034d6:	0003      	movs	r3, r0
100034d8:	0030      	movs	r0, r6
100034da:	3830      	subs	r0, #48	; 0x30
100034dc:	3b30      	subs	r3, #48	; 0x30
100034de:	2809      	cmp	r0, #9
100034e0:	d9f3      	bls.n	100034ca <_vsnprintf+0x472>
100034e2:	0030      	movs	r0, r6
100034e4:	4698      	mov	r8, r3
100034e6:	0016      	movs	r6, r2
100034e8:	970a      	str	r7, [sp, #40]	; 0x28
100034ea:	e600      	b.n	100030ee <_vsnprintf+0x96>
100034ec:	9b09      	ldr	r3, [sp, #36]	; 0x24
100034ee:	3602      	adds	r6, #2
100034f0:	cb04      	ldmia	r3!, {r2}
100034f2:	4690      	mov	r8, r2
100034f4:	43d2      	mvns	r2, r2
100034f6:	4640      	mov	r0, r8
100034f8:	17d2      	asrs	r2, r2, #31
100034fa:	4010      	ands	r0, r2
100034fc:	4680      	mov	r8, r0
100034fe:	9309      	str	r3, [sp, #36]	; 0x24
10003500:	7830      	ldrb	r0, [r6, #0]
10003502:	e5f4      	b.n	100030ee <_vsnprintf+0x96>
10003504:	2210      	movs	r2, #16
10003506:	0008      	movs	r0, r1
10003508:	4390      	bics	r0, r2
1000350a:	3211      	adds	r2, #17
1000350c:	4310      	orrs	r0, r2
1000350e:	4683      	mov	fp, r0
10003510:	2200      	movs	r2, #0
10003512:	0549      	lsls	r1, r1, #21
10003514:	d5b0      	bpl.n	10003478 <_vsnprintf+0x420>
10003516:	465b      	mov	r3, fp
10003518:	9306      	str	r3, [sp, #24]
1000351a:	2308      	movs	r3, #8
1000351c:	9305      	str	r3, [sp, #20]
1000351e:	4643      	mov	r3, r8
10003520:	9304      	str	r3, [sp, #16]
10003522:	2310      	movs	r3, #16
10003524:	9303      	str	r3, [sp, #12]
10003526:	2300      	movs	r3, #0
10003528:	9302      	str	r3, [sp, #8]
1000352a:	ab16      	add	r3, sp, #88	; 0x58
1000352c:	9201      	str	r2, [sp, #4]
1000352e:	9300      	str	r3, [sp, #0]
10003530:	002a      	movs	r2, r5
10003532:	464b      	mov	r3, r9
10003534:	0021      	movs	r1, r4
10003536:	9808      	ldr	r0, [sp, #32]
10003538:	f7ff f8ae 	bl	10002698 <_ntoa_format>
1000353c:	4653      	mov	r3, sl
1000353e:	0005      	movs	r5, r0
10003540:	3601      	adds	r6, #1
10003542:	9309      	str	r3, [sp, #36]	; 0x24
10003544:	e5ad      	b.n	100030a2 <_vsnprintf+0x4a>
10003546:	7813      	ldrb	r3, [r2, #0]
10003548:	469c      	mov	ip, r3
1000354a:	2b00      	cmp	r3, #0
1000354c:	d100      	bne.n	10003550 <_vsnprintf+0x4f8>
1000354e:	e2f7      	b.n	10003b40 <_vsnprintf+0xae8>
10003550:	2302      	movs	r3, #2
10003552:	425b      	negs	r3, r3
10003554:	e737      	b.n	100033c6 <_vsnprintf+0x36e>
10003556:	2320      	movs	r3, #32
10003558:	0002      	movs	r2, r0
1000355a:	439a      	bics	r2, r3
1000355c:	2a47      	cmp	r2, #71	; 0x47
1000355e:	d104      	bne.n	1000356a <_vsnprintf+0x512>
10003560:	2380      	movs	r3, #128	; 0x80
10003562:	011b      	lsls	r3, r3, #4
10003564:	4319      	orrs	r1, r3
10003566:	2302      	movs	r3, #2
10003568:	4398      	bics	r0, r3
1000356a:	2845      	cmp	r0, #69	; 0x45
1000356c:	d101      	bne.n	10003572 <_vsnprintf+0x51a>
1000356e:	2320      	movs	r3, #32
10003570:	4319      	orrs	r1, r3
10003572:	2207      	movs	r2, #7
10003574:	9b09      	ldr	r3, [sp, #36]	; 0x24
10003576:	9104      	str	r1, [sp, #16]
10003578:	3307      	adds	r3, #7
1000357a:	4393      	bics	r3, r2
1000357c:	9a0a      	ldr	r2, [sp, #40]	; 0x28
1000357e:	0019      	movs	r1, r3
10003580:	9203      	str	r2, [sp, #12]
10003582:	4642      	mov	r2, r8
10003584:	9202      	str	r2, [sp, #8]
10003586:	c90c      	ldmia	r1!, {r2, r3}
10003588:	9808      	ldr	r0, [sp, #32]
1000358a:	9200      	str	r2, [sp, #0]
1000358c:	9301      	str	r3, [sp, #4]
1000358e:	9109      	str	r1, [sp, #36]	; 0x24
10003590:	002a      	movs	r2, r5
10003592:	464b      	mov	r3, r9
10003594:	0021      	movs	r1, r4
10003596:	f7ff f96d 	bl	10002874 <_etoa>
1000359a:	3601      	adds	r6, #1
1000359c:	0005      	movs	r5, r0
1000359e:	e580      	b.n	100030a2 <_vsnprintf+0x4a>
100035a0:	2310      	movs	r3, #16
100035a2:	930c      	str	r3, [sp, #48]	; 0x30
100035a4:	230c      	movs	r3, #12
100035a6:	000a      	movs	r2, r1
100035a8:	439a      	bics	r2, r3
100035aa:	920b      	str	r2, [sp, #44]	; 0x2c
100035ac:	054b      	lsls	r3, r1, #21
100035ae:	d503      	bpl.n	100035b8 <_vsnprintf+0x560>
100035b0:	2301      	movs	r3, #1
100035b2:	9a0b      	ldr	r2, [sp, #44]	; 0x2c
100035b4:	439a      	bics	r2, r3
100035b6:	920b      	str	r2, [sp, #44]	; 0x2c
100035b8:	2869      	cmp	r0, #105	; 0x69
100035ba:	d100      	bne.n	100035be <_vsnprintf+0x566>
100035bc:	e627      	b.n	1000320e <_vsnprintf+0x1b6>
100035be:	2864      	cmp	r0, #100	; 0x64
100035c0:	d100      	bne.n	100035c4 <_vsnprintf+0x56c>
100035c2:	e624      	b.n	1000320e <_vsnprintf+0x1b6>
100035c4:	9a0b      	ldr	r2, [sp, #44]	; 0x2c
100035c6:	2380      	movs	r3, #128	; 0x80
100035c8:	0011      	movs	r1, r2
100035ca:	009b      	lsls	r3, r3, #2
100035cc:	4019      	ands	r1, r3
100035ce:	468b      	mov	fp, r1
100035d0:	421a      	tst	r2, r3
100035d2:	d000      	beq.n	100035d6 <_vsnprintf+0x57e>
100035d4:	e166      	b.n	100038a4 <_vsnprintf+0x84c>
100035d6:	2380      	movs	r3, #128	; 0x80
100035d8:	0011      	movs	r1, r2
100035da:	005b      	lsls	r3, r3, #1
100035dc:	4019      	ands	r1, r3
100035de:	468a      	mov	sl, r1
100035e0:	421a      	tst	r2, r3
100035e2:	d000      	beq.n	100035e6 <_vsnprintf+0x58e>
100035e4:	e239      	b.n	10003a5a <_vsnprintf+0xa02>
100035e6:	0013      	movs	r3, r2
100035e8:	065b      	lsls	r3, r3, #25
100035ea:	d500      	bpl.n	100035ee <_vsnprintf+0x596>
100035ec:	e13c      	b.n	10003868 <_vsnprintf+0x810>
100035ee:	0013      	movs	r3, r2
100035f0:	061b      	lsls	r3, r3, #24
100035f2:	d400      	bmi.n	100035f6 <_vsnprintf+0x59e>
100035f4:	e2a6      	b.n	10003b44 <_vsnprintf+0xaec>
100035f6:	9b09      	ldr	r3, [sp, #36]	; 0x24
100035f8:	cb04      	ldmia	r3!, {r2}
100035fa:	0412      	lsls	r2, r2, #16
100035fc:	0c12      	lsrs	r2, r2, #16
100035fe:	4693      	mov	fp, r2
10003600:	9309      	str	r3, [sp, #36]	; 0x24
10003602:	465b      	mov	r3, fp
10003604:	2b00      	cmp	r3, #0
10003606:	d000      	beq.n	1000360a <_vsnprintf+0x5b2>
10003608:	e19a      	b.n	10003940 <_vsnprintf+0x8e8>
1000360a:	9a0b      	ldr	r2, [sp, #44]	; 0x2c
1000360c:	3310      	adds	r3, #16
1000360e:	0011      	movs	r1, r2
10003610:	4399      	bics	r1, r3
10003612:	910b      	str	r1, [sp, #44]	; 0x2c
10003614:	0552      	lsls	r2, r2, #21
10003616:	d400      	bmi.n	1000361a <_vsnprintf+0x5c2>
10003618:	e192      	b.n	10003940 <_vsnprintf+0x8e8>
1000361a:	2300      	movs	r3, #0
1000361c:	469a      	mov	sl, r3
1000361e:	9b0b      	ldr	r3, [sp, #44]	; 0x2c
10003620:	9306      	str	r3, [sp, #24]
10003622:	9b0a      	ldr	r3, [sp, #40]	; 0x28
10003624:	9305      	str	r3, [sp, #20]
10003626:	4643      	mov	r3, r8
10003628:	9304      	str	r3, [sp, #16]
1000362a:	9b0c      	ldr	r3, [sp, #48]	; 0x30
1000362c:	9303      	str	r3, [sp, #12]
1000362e:	2300      	movs	r3, #0
10003630:	e10c      	b.n	1000384c <_vsnprintf+0x7f4>
10003632:	2320      	movs	r3, #32
10003634:	4319      	orrs	r1, r3
10003636:	e660      	b.n	100032fa <_vsnprintf+0x2a2>
10003638:	9b09      	ldr	r3, [sp, #36]	; 0x24
1000363a:	9a0a      	ldr	r2, [sp, #40]	; 0x28
1000363c:	1b5b      	subs	r3, r3, r5
1000363e:	4698      	mov	r8, r3
10003640:	464b      	mov	r3, r9
10003642:	4691      	mov	r9, r2
10003644:	001f      	movs	r7, r3
10003646:	46b2      	mov	sl, r6
10003648:	0026      	movs	r6, r4
1000364a:	9c08      	ldr	r4, [sp, #32]
1000364c:	002a      	movs	r2, r5
1000364e:	003b      	movs	r3, r7
10003650:	0031      	movs	r1, r6
10003652:	47a0      	blx	r4
10003654:	4643      	mov	r3, r8
10003656:	3501      	adds	r5, #1
10003658:	5d58      	ldrb	r0, [r3, r5]
1000365a:	2800      	cmp	r0, #0
1000365c:	d1f6      	bne.n	1000364c <_vsnprintf+0x5f4>
1000365e:	464a      	mov	r2, r9
10003660:	0034      	movs	r4, r6
10003662:	46b9      	mov	r9, r7
10003664:	4656      	mov	r6, sl
10003666:	920a      	str	r2, [sp, #40]	; 0x28
10003668:	e6f5      	b.n	10003456 <_vsnprintf+0x3fe>
1000366a:	23c0      	movs	r3, #192	; 0xc0
1000366c:	009b      	lsls	r3, r3, #2
1000366e:	78b0      	ldrb	r0, [r6, #2]
10003670:	4319      	orrs	r1, r3
10003672:	3602      	adds	r6, #2
10003674:	e55d      	b.n	10003132 <_vsnprintf+0xda>
10003676:	23c0      	movs	r3, #192	; 0xc0
10003678:	78b0      	ldrb	r0, [r6, #2]
1000367a:	4319      	orrs	r1, r3
1000367c:	3602      	adds	r6, #2
1000367e:	e558      	b.n	10003132 <_vsnprintf+0xda>
10003680:	230c      	movs	r3, #12
10003682:	000a      	movs	r2, r1
10003684:	439a      	bics	r2, r3
10003686:	3314      	adds	r3, #20
10003688:	431a      	orrs	r2, r3
1000368a:	3b10      	subs	r3, #16
1000368c:	920b      	str	r2, [sp, #44]	; 0x2c
1000368e:	930c      	str	r3, [sp, #48]	; 0x30
10003690:	054b      	lsls	r3, r1, #21
10003692:	d48d      	bmi.n	100035b0 <_vsnprintf+0x558>
10003694:	e796      	b.n	100035c4 <_vsnprintf+0x56c>
10003696:	46a1      	mov	r9, r4
10003698:	0034      	movs	r4, r6
1000369a:	4656      	mov	r6, sl
1000369c:	e6db      	b.n	10003456 <_vsnprintf+0x3fe>
1000369e:	9a0a      	ldr	r2, [sp, #40]	; 0x28
100036a0:	2a01      	cmp	r2, #1
100036a2:	d800      	bhi.n	100036a6 <_vsnprintf+0x64e>
100036a4:	e253      	b.n	10003b4e <_vsnprintf+0xaf6>
100036a6:	1e6b      	subs	r3, r5, #1
100036a8:	189f      	adds	r7, r3, r2
100036aa:	9b08      	ldr	r3, [sp, #32]
100036ac:	46b0      	mov	r8, r6
100036ae:	0026      	movs	r6, r4
100036b0:	464c      	mov	r4, r9
100036b2:	4699      	mov	r9, r3
100036b4:	002a      	movs	r2, r5
100036b6:	0023      	movs	r3, r4
100036b8:	3501      	adds	r5, #1
100036ba:	0031      	movs	r1, r6
100036bc:	2020      	movs	r0, #32
100036be:	47c8      	blx	r9
100036c0:	42bd      	cmp	r5, r7
100036c2:	d1f7      	bne.n	100036b4 <_vsnprintf+0x65c>
100036c4:	46a1      	mov	r9, r4
100036c6:	0034      	movs	r4, r6
100036c8:	4646      	mov	r6, r8
100036ca:	9b09      	ldr	r3, [sp, #36]	; 0x24
100036cc:	003a      	movs	r2, r7
100036ce:	cb01      	ldmia	r3!, {r0}
100036d0:	0021      	movs	r1, r4
100036d2:	4698      	mov	r8, r3
100036d4:	1c7d      	adds	r5, r7, #1
100036d6:	464b      	mov	r3, r9
100036d8:	9f08      	ldr	r7, [sp, #32]
100036da:	b2c0      	uxtb	r0, r0
100036dc:	47b8      	blx	r7
100036de:	4643      	mov	r3, r8
100036e0:	3601      	adds	r6, #1
100036e2:	9309      	str	r3, [sp, #36]	; 0x24
100036e4:	e4dd      	b.n	100030a2 <_vsnprintf+0x4a>
100036e6:	9b0b      	ldr	r3, [sp, #44]	; 0x2c
100036e8:	9a0a      	ldr	r2, [sp, #40]	; 0x28
100036ea:	46a8      	mov	r8, r5
100036ec:	429a      	cmp	r2, r3
100036ee:	d800      	bhi.n	100036f2 <_vsnprintf+0x69a>
100036f0:	e6b5      	b.n	1000345e <_vsnprintf+0x406>
100036f2:	4694      	mov	ip, r2
100036f4:	4465      	add	r5, ip
100036f6:	1aed      	subs	r5, r5, r3
100036f8:	9b08      	ldr	r3, [sp, #32]
100036fa:	4647      	mov	r7, r8
100036fc:	46b0      	mov	r8, r6
100036fe:	0026      	movs	r6, r4
10003700:	464c      	mov	r4, r9
10003702:	4699      	mov	r9, r3
10003704:	003a      	movs	r2, r7
10003706:	0023      	movs	r3, r4
10003708:	3701      	adds	r7, #1
1000370a:	0031      	movs	r1, r6
1000370c:	2020      	movs	r0, #32
1000370e:	47c8      	blx	r9
10003710:	42af      	cmp	r7, r5
10003712:	d1f7      	bne.n	10003704 <_vsnprintf+0x6ac>
10003714:	46a1      	mov	r9, r4
10003716:	0034      	movs	r4, r6
10003718:	4646      	mov	r6, r8
1000371a:	e6a0      	b.n	1000345e <_vsnprintf+0x406>
1000371c:	9a0b      	ldr	r2, [sp, #44]	; 0x2c
1000371e:	990a      	ldr	r1, [sp, #40]	; 0x28
10003720:	1c53      	adds	r3, r2, #1
10003722:	4291      	cmp	r1, r2
10003724:	d800      	bhi.n	10003728 <_vsnprintf+0x6d0>
10003726:	e214      	b.n	10003b52 <_vsnprintf+0xafa>
10003728:	194b      	adds	r3, r1, r5
1000372a:	1a9b      	subs	r3, r3, r2
1000372c:	001f      	movs	r7, r3
1000372e:	9b08      	ldr	r3, [sp, #32]
10003730:	46b2      	mov	sl, r6
10003732:	0026      	movs	r6, r4
10003734:	464c      	mov	r4, r9
10003736:	4699      	mov	r9, r3
10003738:	002a      	movs	r2, r5
1000373a:	0023      	movs	r3, r4
1000373c:	3501      	adds	r5, #1
1000373e:	0031      	movs	r1, r6
10003740:	2020      	movs	r0, #32
10003742:	47c8      	blx	r9
10003744:	42bd      	cmp	r5, r7
10003746:	d1f7      	bne.n	10003738 <_vsnprintf+0x6e0>
10003748:	9b0a      	ldr	r3, [sp, #40]	; 0x28
1000374a:	46a1      	mov	r9, r4
1000374c:	3301      	adds	r3, #1
1000374e:	930b      	str	r3, [sp, #44]	; 0x2c
10003750:	9b09      	ldr	r3, [sp, #36]	; 0x24
10003752:	0034      	movs	r4, r6
10003754:	781b      	ldrb	r3, [r3, #0]
10003756:	4656      	mov	r6, sl
10003758:	469c      	mov	ip, r3
1000375a:	4660      	mov	r0, ip
1000375c:	2800      	cmp	r0, #0
1000375e:	d000      	beq.n	10003762 <_vsnprintf+0x70a>
10003760:	e658      	b.n	10003414 <_vsnprintf+0x3bc>
10003762:	e67c      	b.n	1000345e <_vsnprintf+0x406>
10003764:	2207      	movs	r2, #7
10003766:	9b09      	ldr	r3, [sp, #36]	; 0x24
10003768:	3307      	adds	r3, #7
1000376a:	4393      	bics	r3, r2
1000376c:	3201      	adds	r2, #1
1000376e:	4694      	mov	ip, r2
10003770:	449c      	add	ip, r3
10003772:	4662      	mov	r2, ip
10003774:	685f      	ldr	r7, [r3, #4]
10003776:	9209      	str	r2, [sp, #36]	; 0x24
10003778:	681a      	ldr	r2, [r3, #0]
1000377a:	17fb      	asrs	r3, r7, #31
1000377c:	9310      	str	r3, [sp, #64]	; 0x40
1000377e:	9311      	str	r3, [sp, #68]	; 0x44
10003780:	9810      	ldr	r0, [sp, #64]	; 0x40
10003782:	9911      	ldr	r1, [sp, #68]	; 0x44
10003784:	0003      	movs	r3, r0
10003786:	4053      	eors	r3, r2
10003788:	930e      	str	r3, [sp, #56]	; 0x38
1000378a:	000b      	movs	r3, r1
1000378c:	407b      	eors	r3, r7
1000378e:	930f      	str	r3, [sp, #60]	; 0x3c
10003790:	4694      	mov	ip, r2
10003792:	9a0e      	ldr	r2, [sp, #56]	; 0x38
10003794:	9b0f      	ldr	r3, [sp, #60]	; 0x3c
10003796:	1a12      	subs	r2, r2, r0
10003798:	418b      	sbcs	r3, r1
1000379a:	920e      	str	r2, [sp, #56]	; 0x38
1000379c:	930f      	str	r3, [sp, #60]	; 0x3c
1000379e:	0ffb      	lsrs	r3, r7, #31
100037a0:	4662      	mov	r2, ip
100037a2:	9312      	str	r3, [sp, #72]	; 0x48
100037a4:	2300      	movs	r3, #0
100037a6:	433a      	orrs	r2, r7
100037a8:	469b      	mov	fp, r3
100037aa:	d03d      	beq.n	10003828 <_vsnprintf+0x7d0>
100037ac:	9a0b      	ldr	r2, [sp, #44]	; 0x2c
100037ae:	2361      	movs	r3, #97	; 0x61
100037b0:	0692      	lsls	r2, r2, #26
100037b2:	d500      	bpl.n	100037b6 <_vsnprintf+0x75e>
100037b4:	2341      	movs	r3, #65	; 0x41
100037b6:	2200      	movs	r2, #0
100037b8:	b2db      	uxtb	r3, r3
100037ba:	a90e      	add	r1, sp, #56	; 0x38
100037bc:	3b0a      	subs	r3, #10
100037be:	468c      	mov	ip, r1
100037c0:	4692      	mov	sl, r2
100037c2:	930d      	str	r3, [sp, #52]	; 0x34
100037c4:	4643      	mov	r3, r8
100037c6:	321f      	adds	r2, #31
100037c8:	4462      	add	r2, ip
100037ca:	9513      	str	r5, [sp, #76]	; 0x4c
100037cc:	9615      	str	r6, [sp, #84]	; 0x54
100037ce:	4655      	mov	r5, sl
100037d0:	9e0e      	ldr	r6, [sp, #56]	; 0x38
100037d2:	9f0f      	ldr	r7, [sp, #60]	; 0x3c
100037d4:	46a2      	mov	sl, r4
100037d6:	4690      	mov	r8, r2
100037d8:	9c0c      	ldr	r4, [sp, #48]	; 0x30
100037da:	9314      	str	r3, [sp, #80]	; 0x50
100037dc:	e00c      	b.n	100037f8 <_vsnprintf+0x7a0>
100037de:	3230      	adds	r2, #48	; 0x30
100037e0:	b2d2      	uxtb	r2, r2
100037e2:	4643      	mov	r3, r8
100037e4:	3501      	adds	r5, #1
100037e6:	555a      	strb	r2, [r3, r5]
100037e8:	45bb      	cmp	fp, r7
100037ea:	d100      	bne.n	100037ee <_vsnprintf+0x796>
100037ec:	e18a      	b.n	10003b04 <_vsnprintf+0xaac>
100037ee:	2d20      	cmp	r5, #32
100037f0:	d100      	bne.n	100037f4 <_vsnprintf+0x79c>
100037f2:	e18a      	b.n	10003b0a <_vsnprintf+0xab2>
100037f4:	0006      	movs	r6, r0
100037f6:	000f      	movs	r7, r1
100037f8:	0022      	movs	r2, r4
100037fa:	2300      	movs	r3, #0
100037fc:	0030      	movs	r0, r6
100037fe:	0039      	movs	r1, r7
10003800:	f000 fa7c 	bl	10003cfc <__wrap___aeabi_uldivmod>
10003804:	b2d2      	uxtb	r2, r2
10003806:	2a09      	cmp	r2, #9
10003808:	d9e9      	bls.n	100037de <_vsnprintf+0x786>
1000380a:	9b0d      	ldr	r3, [sp, #52]	; 0x34
1000380c:	469c      	mov	ip, r3
1000380e:	4462      	add	r2, ip
10003810:	b2d2      	uxtb	r2, r2
10003812:	e7e6      	b.n	100037e2 <_vsnprintf+0x78a>
10003814:	23ff      	movs	r3, #255	; 0xff
10003816:	9909      	ldr	r1, [sp, #36]	; 0x24
10003818:	c904      	ldmia	r1!, {r2}
1000381a:	4013      	ands	r3, r2
1000381c:	001a      	movs	r2, r3
1000381e:	9109      	str	r1, [sp, #36]	; 0x24
10003820:	e517      	b.n	10003252 <_vsnprintf+0x1fa>
10003822:	46c0      	nop			; (mov r8, r8)
10003824:	100025f9 	.word	0x100025f9
10003828:	9a0b      	ldr	r2, [sp, #44]	; 0x2c
1000382a:	3310      	adds	r3, #16
1000382c:	0011      	movs	r1, r2
1000382e:	4399      	bics	r1, r3
10003830:	910b      	str	r1, [sp, #44]	; 0x2c
10003832:	0552      	lsls	r2, r2, #21
10003834:	d5ba      	bpl.n	100037ac <_vsnprintf+0x754>
10003836:	2300      	movs	r3, #0
10003838:	469a      	mov	sl, r3
1000383a:	9b0b      	ldr	r3, [sp, #44]	; 0x2c
1000383c:	9306      	str	r3, [sp, #24]
1000383e:	9b0a      	ldr	r3, [sp, #40]	; 0x28
10003840:	9305      	str	r3, [sp, #20]
10003842:	4643      	mov	r3, r8
10003844:	9304      	str	r3, [sp, #16]
10003846:	9b0c      	ldr	r3, [sp, #48]	; 0x30
10003848:	9303      	str	r3, [sp, #12]
1000384a:	9b12      	ldr	r3, [sp, #72]	; 0x48
1000384c:	9302      	str	r3, [sp, #8]
1000384e:	4653      	mov	r3, sl
10003850:	9301      	str	r3, [sp, #4]
10003852:	ab16      	add	r3, sp, #88	; 0x58
10003854:	002a      	movs	r2, r5
10003856:	9300      	str	r3, [sp, #0]
10003858:	0021      	movs	r1, r4
1000385a:	464b      	mov	r3, r9
1000385c:	9808      	ldr	r0, [sp, #32]
1000385e:	f7fe ff1b 	bl	10002698 <_ntoa_format>
10003862:	3601      	adds	r6, #1
10003864:	0005      	movs	r5, r0
10003866:	e41c      	b.n	100030a2 <_vsnprintf+0x4a>
10003868:	22ff      	movs	r2, #255	; 0xff
1000386a:	9b09      	ldr	r3, [sp, #36]	; 0x24
1000386c:	cb02      	ldmia	r3!, {r1}
1000386e:	4011      	ands	r1, r2
10003870:	468b      	mov	fp, r1
10003872:	9309      	str	r3, [sp, #36]	; 0x24
10003874:	e6c5      	b.n	10003602 <_vsnprintf+0x5aa>
10003876:	4653      	mov	r3, sl
10003878:	4645      	mov	r5, r8
1000387a:	9309      	str	r3, [sp, #36]	; 0x24
1000387c:	3601      	adds	r6, #1
1000387e:	f7ff fc10 	bl	100030a2 <_vsnprintf+0x4a>
10003882:	4656      	mov	r6, sl
10003884:	465c      	mov	r4, fp
10003886:	46aa      	mov	sl, r5
10003888:	9d13      	ldr	r5, [sp, #76]	; 0x4c
1000388a:	e7d6      	b.n	1000383a <_vsnprintf+0x7e2>
1000388c:	2308      	movs	r3, #8
1000388e:	930c      	str	r3, [sp, #48]	; 0x30
10003890:	910b      	str	r1, [sp, #44]	; 0x2c
10003892:	990b      	ldr	r1, [sp, #44]	; 0x2c
10003894:	2864      	cmp	r0, #100	; 0x64
10003896:	d000      	beq.n	1000389a <_vsnprintf+0x842>
10003898:	e684      	b.n	100035a4 <_vsnprintf+0x54c>
1000389a:	9b0b      	ldr	r3, [sp, #44]	; 0x2c
1000389c:	055b      	lsls	r3, r3, #21
1000389e:	d500      	bpl.n	100038a2 <_vsnprintf+0x84a>
100038a0:	e686      	b.n	100035b0 <_vsnprintf+0x558>
100038a2:	e4b4      	b.n	1000320e <_vsnprintf+0x1b6>
100038a4:	2207      	movs	r2, #7
100038a6:	9b09      	ldr	r3, [sp, #36]	; 0x24
100038a8:	3307      	adds	r3, #7
100038aa:	4393      	bics	r3, r2
100038ac:	3201      	adds	r2, #1
100038ae:	4694      	mov	ip, r2
100038b0:	449c      	add	ip, r3
100038b2:	4662      	mov	r2, ip
100038b4:	9209      	str	r2, [sp, #36]	; 0x24
100038b6:	681a      	ldr	r2, [r3, #0]
100038b8:	685b      	ldr	r3, [r3, #4]
100038ba:	0010      	movs	r0, r2
100038bc:	469b      	mov	fp, r3
100038be:	0013      	movs	r3, r2
100038c0:	465a      	mov	r2, fp
100038c2:	4313      	orrs	r3, r2
100038c4:	d107      	bne.n	100038d6 <_vsnprintf+0x87e>
100038c6:	9a0b      	ldr	r2, [sp, #44]	; 0x2c
100038c8:	3310      	adds	r3, #16
100038ca:	0011      	movs	r1, r2
100038cc:	4399      	bics	r1, r3
100038ce:	910b      	str	r1, [sp, #44]	; 0x2c
100038d0:	0552      	lsls	r2, r2, #21
100038d2:	d500      	bpl.n	100038d6 <_vsnprintf+0x87e>
100038d4:	e6a1      	b.n	1000361a <_vsnprintf+0x5c2>
100038d6:	9a0b      	ldr	r2, [sp, #44]	; 0x2c
100038d8:	2361      	movs	r3, #97	; 0x61
100038da:	0692      	lsls	r2, r2, #26
100038dc:	d500      	bpl.n	100038e0 <_vsnprintf+0x888>
100038de:	2341      	movs	r3, #65	; 0x41
100038e0:	2200      	movs	r2, #0
100038e2:	b2db      	uxtb	r3, r3
100038e4:	a90e      	add	r1, sp, #56	; 0x38
100038e6:	3b0a      	subs	r3, #10
100038e8:	468c      	mov	ip, r1
100038ea:	4692      	mov	sl, r2
100038ec:	930d      	str	r3, [sp, #52]	; 0x34
100038ee:	4643      	mov	r3, r8
100038f0:	321f      	adds	r2, #31
100038f2:	4462      	add	r2, ip
100038f4:	465f      	mov	r7, fp
100038f6:	9512      	str	r5, [sp, #72]	; 0x48
100038f8:	46a3      	mov	fp, r4
100038fa:	4655      	mov	r5, sl
100038fc:	0004      	movs	r4, r0
100038fe:	46b2      	mov	sl, r6
10003900:	4690      	mov	r8, r2
10003902:	9e0c      	ldr	r6, [sp, #48]	; 0x30
10003904:	9313      	str	r3, [sp, #76]	; 0x4c
10003906:	e00d      	b.n	10003924 <_vsnprintf+0x8cc>
10003908:	3230      	adds	r2, #48	; 0x30
1000390a:	b2d2      	uxtb	r2, r2
1000390c:	4643      	mov	r3, r8
1000390e:	3501      	adds	r5, #1
10003910:	555a      	strb	r2, [r3, r5]
10003912:	2300      	movs	r3, #0
10003914:	42bb      	cmp	r3, r7
10003916:	d100      	bne.n	1000391a <_vsnprintf+0x8c2>
10003918:	e100      	b.n	10003b1c <_vsnprintf+0xac4>
1000391a:	2d20      	cmp	r5, #32
1000391c:	d100      	bne.n	10003920 <_vsnprintf+0x8c8>
1000391e:	e100      	b.n	10003b22 <_vsnprintf+0xaca>
10003920:	0004      	movs	r4, r0
10003922:	000f      	movs	r7, r1
10003924:	0032      	movs	r2, r6
10003926:	2300      	movs	r3, #0
10003928:	0020      	movs	r0, r4
1000392a:	0039      	movs	r1, r7
1000392c:	f000 f9e6 	bl	10003cfc <__wrap___aeabi_uldivmod>
10003930:	b2d2      	uxtb	r2, r2
10003932:	2a09      	cmp	r2, #9
10003934:	d9e8      	bls.n	10003908 <_vsnprintf+0x8b0>
10003936:	9b0d      	ldr	r3, [sp, #52]	; 0x34
10003938:	469c      	mov	ip, r3
1000393a:	4462      	add	r2, ip
1000393c:	b2d2      	uxtb	r2, r2
1000393e:	e7e5      	b.n	1000390c <_vsnprintf+0x8b4>
10003940:	9a0b      	ldr	r2, [sp, #44]	; 0x2c
10003942:	2361      	movs	r3, #97	; 0x61
10003944:	0692      	lsls	r2, r2, #26
10003946:	d500      	bpl.n	1000394a <_vsnprintf+0x8f2>
10003948:	2341      	movs	r3, #65	; 0x41
1000394a:	b2db      	uxtb	r3, r3
1000394c:	a90e      	add	r1, sp, #56	; 0x38
1000394e:	3b0a      	subs	r3, #10
10003950:	221f      	movs	r2, #31
10003952:	468c      	mov	ip, r1
10003954:	930d      	str	r3, [sp, #52]	; 0x34
10003956:	0023      	movs	r3, r4
10003958:	4462      	add	r2, ip
1000395a:	465c      	mov	r4, fp
1000395c:	9512      	str	r5, [sp, #72]	; 0x48
1000395e:	0017      	movs	r7, r2
10003960:	4655      	mov	r5, sl
10003962:	469b      	mov	fp, r3
10003964:	46b2      	mov	sl, r6
10003966:	9e0c      	ldr	r6, [sp, #48]	; 0x30
10003968:	e008      	b.n	1000397c <_vsnprintf+0x924>
1000396a:	3330      	adds	r3, #48	; 0x30
1000396c:	b2db      	uxtb	r3, r3
1000396e:	3501      	adds	r5, #1
10003970:	557b      	strb	r3, [r7, r5]
10003972:	42b4      	cmp	r4, r6
10003974:	d30e      	bcc.n	10003994 <_vsnprintf+0x93c>
10003976:	2d20      	cmp	r5, #32
10003978:	d00c      	beq.n	10003994 <_vsnprintf+0x93c>
1000397a:	0004      	movs	r4, r0
1000397c:	0031      	movs	r1, r6
1000397e:	0020      	movs	r0, r4
10003980:	f000 f97a 	bl	10003c78 <__wrap___aeabi_uidiv>
10003984:	b2cb      	uxtb	r3, r1
10003986:	2909      	cmp	r1, #9
10003988:	d9ef      	bls.n	1000396a <_vsnprintf+0x912>
1000398a:	9a0d      	ldr	r2, [sp, #52]	; 0x34
1000398c:	4694      	mov	ip, r2
1000398e:	4463      	add	r3, ip
10003990:	b2db      	uxtb	r3, r3
10003992:	e7ec      	b.n	1000396e <_vsnprintf+0x916>
10003994:	4656      	mov	r6, sl
10003996:	465c      	mov	r4, fp
10003998:	46aa      	mov	sl, r5
1000399a:	9d12      	ldr	r5, [sp, #72]	; 0x48
1000399c:	e63f      	b.n	1000361e <_vsnprintf+0x5c6>
1000399e:	9b09      	ldr	r3, [sp, #36]	; 0x24
100039a0:	001a      	movs	r2, r3
100039a2:	ca08      	ldmia	r2!, {r3}
100039a4:	17d9      	asrs	r1, r3, #31
100039a6:	9213      	str	r2, [sp, #76]	; 0x4c
100039a8:	185a      	adds	r2, r3, r1
100039aa:	404a      	eors	r2, r1
100039ac:	4692      	mov	sl, r2
100039ae:	0fda      	lsrs	r2, r3, #31
100039b0:	9212      	str	r2, [sp, #72]	; 0x48
100039b2:	2b00      	cmp	r3, #0
100039b4:	d108      	bne.n	100039c8 <_vsnprintf+0x970>
100039b6:	2380      	movs	r3, #128	; 0x80
100039b8:	2210      	movs	r2, #16
100039ba:	990b      	ldr	r1, [sp, #44]	; 0x2c
100039bc:	00db      	lsls	r3, r3, #3
100039be:	400b      	ands	r3, r1
100039c0:	4391      	bics	r1, r2
100039c2:	910b      	str	r1, [sp, #44]	; 0x2c
100039c4:	2b00      	cmp	r3, #0
100039c6:	d12b      	bne.n	10003a20 <_vsnprintf+0x9c8>
100039c8:	9a0b      	ldr	r2, [sp, #44]	; 0x2c
100039ca:	2361      	movs	r3, #97	; 0x61
100039cc:	0692      	lsls	r2, r2, #26
100039ce:	d500      	bpl.n	100039d2 <_vsnprintf+0x97a>
100039d0:	2341      	movs	r3, #65	; 0x41
100039d2:	aa0e      	add	r2, sp, #56	; 0x38
100039d4:	271f      	movs	r7, #31
100039d6:	4694      	mov	ip, r2
100039d8:	b2db      	uxtb	r3, r3
100039da:	3b0a      	subs	r3, #10
100039dc:	950d      	str	r5, [sp, #52]	; 0x34
100039de:	4467      	add	r7, ip
100039e0:	465d      	mov	r5, fp
100039e2:	9309      	str	r3, [sp, #36]	; 0x24
100039e4:	46a3      	mov	fp, r4
100039e6:	4654      	mov	r4, sl
100039e8:	46b2      	mov	sl, r6
100039ea:	9e0c      	ldr	r6, [sp, #48]	; 0x30
100039ec:	e008      	b.n	10003a00 <_vsnprintf+0x9a8>
100039ee:	3330      	adds	r3, #48	; 0x30
100039f0:	b2db      	uxtb	r3, r3
100039f2:	3501      	adds	r5, #1
100039f4:	557b      	strb	r3, [r7, r5]
100039f6:	42b4      	cmp	r4, r6
100039f8:	d30e      	bcc.n	10003a18 <_vsnprintf+0x9c0>
100039fa:	2d20      	cmp	r5, #32
100039fc:	d00c      	beq.n	10003a18 <_vsnprintf+0x9c0>
100039fe:	0004      	movs	r4, r0
10003a00:	0031      	movs	r1, r6
10003a02:	0020      	movs	r0, r4
10003a04:	f000 f938 	bl	10003c78 <__wrap___aeabi_uidiv>
10003a08:	b2cb      	uxtb	r3, r1
10003a0a:	2909      	cmp	r1, #9
10003a0c:	d9ef      	bls.n	100039ee <_vsnprintf+0x996>
10003a0e:	9a09      	ldr	r2, [sp, #36]	; 0x24
10003a10:	4694      	mov	ip, r2
10003a12:	4463      	add	r3, ip
10003a14:	b2db      	uxtb	r3, r3
10003a16:	e7ec      	b.n	100039f2 <_vsnprintf+0x99a>
10003a18:	4656      	mov	r6, sl
10003a1a:	465c      	mov	r4, fp
10003a1c:	46ab      	mov	fp, r5
10003a1e:	9d0d      	ldr	r5, [sp, #52]	; 0x34
10003a20:	9b0b      	ldr	r3, [sp, #44]	; 0x2c
10003a22:	002a      	movs	r2, r5
10003a24:	9306      	str	r3, [sp, #24]
10003a26:	9b0a      	ldr	r3, [sp, #40]	; 0x28
10003a28:	0021      	movs	r1, r4
10003a2a:	9305      	str	r3, [sp, #20]
10003a2c:	4643      	mov	r3, r8
10003a2e:	9304      	str	r3, [sp, #16]
10003a30:	9b0c      	ldr	r3, [sp, #48]	; 0x30
10003a32:	9808      	ldr	r0, [sp, #32]
10003a34:	9303      	str	r3, [sp, #12]
10003a36:	9b12      	ldr	r3, [sp, #72]	; 0x48
10003a38:	3601      	adds	r6, #1
10003a3a:	9302      	str	r3, [sp, #8]
10003a3c:	465b      	mov	r3, fp
10003a3e:	9301      	str	r3, [sp, #4]
10003a40:	ab16      	add	r3, sp, #88	; 0x58
10003a42:	9300      	str	r3, [sp, #0]
10003a44:	464b      	mov	r3, r9
10003a46:	f7fe fe27 	bl	10002698 <_ntoa_format>
10003a4a:	9b13      	ldr	r3, [sp, #76]	; 0x4c
10003a4c:	0005      	movs	r5, r0
10003a4e:	9309      	str	r3, [sp, #36]	; 0x24
10003a50:	f7ff fb27 	bl	100030a2 <_vsnprintf+0x4a>
10003a54:	2302      	movs	r3, #2
10003a56:	930c      	str	r3, [sp, #48]	; 0x30
10003a58:	e71a      	b.n	10003890 <_vsnprintf+0x838>
10003a5a:	9b09      	ldr	r3, [sp, #36]	; 0x24
10003a5c:	cb04      	ldmia	r3!, {r2}
10003a5e:	4692      	mov	sl, r2
10003a60:	9312      	str	r3, [sp, #72]	; 0x48
10003a62:	2a00      	cmp	r2, #0
10003a64:	d108      	bne.n	10003a78 <_vsnprintf+0xa20>
10003a66:	2380      	movs	r3, #128	; 0x80
10003a68:	2210      	movs	r2, #16
10003a6a:	990b      	ldr	r1, [sp, #44]	; 0x2c
10003a6c:	00db      	lsls	r3, r3, #3
10003a6e:	400b      	ands	r3, r1
10003a70:	4391      	bics	r1, r2
10003a72:	910b      	str	r1, [sp, #44]	; 0x2c
10003a74:	2b00      	cmp	r3, #0
10003a76:	d12b      	bne.n	10003ad0 <_vsnprintf+0xa78>
10003a78:	9a0b      	ldr	r2, [sp, #44]	; 0x2c
10003a7a:	2361      	movs	r3, #97	; 0x61
10003a7c:	0692      	lsls	r2, r2, #26
10003a7e:	d500      	bpl.n	10003a82 <_vsnprintf+0xa2a>
10003a80:	2341      	movs	r3, #65	; 0x41
10003a82:	aa0e      	add	r2, sp, #56	; 0x38
10003a84:	271f      	movs	r7, #31
10003a86:	4694      	mov	ip, r2
10003a88:	b2db      	uxtb	r3, r3
10003a8a:	3b0a      	subs	r3, #10
10003a8c:	950d      	str	r5, [sp, #52]	; 0x34
10003a8e:	4467      	add	r7, ip
10003a90:	465d      	mov	r5, fp
10003a92:	9309      	str	r3, [sp, #36]	; 0x24
10003a94:	46a3      	mov	fp, r4
10003a96:	4654      	mov	r4, sl
10003a98:	46b2      	mov	sl, r6
10003a9a:	9e0c      	ldr	r6, [sp, #48]	; 0x30
10003a9c:	e008      	b.n	10003ab0 <_vsnprintf+0xa58>
10003a9e:	3330      	adds	r3, #48	; 0x30
10003aa0:	b2db      	uxtb	r3, r3
10003aa2:	3501      	adds	r5, #1
10003aa4:	557b      	strb	r3, [r7, r5]
10003aa6:	42b4      	cmp	r4, r6
10003aa8:	d30e      	bcc.n	10003ac8 <_vsnprintf+0xa70>
10003aaa:	2d20      	cmp	r5, #32
10003aac:	d00c      	beq.n	10003ac8 <_vsnprintf+0xa70>
10003aae:	0004      	movs	r4, r0
10003ab0:	0031      	movs	r1, r6
10003ab2:	0020      	movs	r0, r4
10003ab4:	f000 f8e0 	bl	10003c78 <__wrap___aeabi_uidiv>
10003ab8:	b2cb      	uxtb	r3, r1
10003aba:	2909      	cmp	r1, #9
10003abc:	d9ef      	bls.n	10003a9e <_vsnprintf+0xa46>
10003abe:	9a09      	ldr	r2, [sp, #36]	; 0x24
10003ac0:	4694      	mov	ip, r2
10003ac2:	4463      	add	r3, ip
10003ac4:	b2db      	uxtb	r3, r3
10003ac6:	e7ec      	b.n	10003aa2 <_vsnprintf+0xa4a>
10003ac8:	4656      	mov	r6, sl
10003aca:	465c      	mov	r4, fp
10003acc:	46ab      	mov	fp, r5
10003ace:	9d0d      	ldr	r5, [sp, #52]	; 0x34
10003ad0:	9b0b      	ldr	r3, [sp, #44]	; 0x2c
10003ad2:	002a      	movs	r2, r5
10003ad4:	9306      	str	r3, [sp, #24]
10003ad6:	9b0a      	ldr	r3, [sp, #40]	; 0x28
10003ad8:	0021      	movs	r1, r4
10003ada:	9305      	str	r3, [sp, #20]
10003adc:	4643      	mov	r3, r8
10003ade:	9304      	str	r3, [sp, #16]
10003ae0:	9b0c      	ldr	r3, [sp, #48]	; 0x30
10003ae2:	9808      	ldr	r0, [sp, #32]
10003ae4:	9303      	str	r3, [sp, #12]
10003ae6:	2300      	movs	r3, #0
10003ae8:	9302      	str	r3, [sp, #8]
10003aea:	465b      	mov	r3, fp
10003aec:	9301      	str	r3, [sp, #4]
10003aee:	ab16      	add	r3, sp, #88	; 0x58
10003af0:	9300      	str	r3, [sp, #0]
10003af2:	464b      	mov	r3, r9
10003af4:	f7fe fdd0 	bl	10002698 <_ntoa_format>
10003af8:	9b12      	ldr	r3, [sp, #72]	; 0x48
10003afa:	0005      	movs	r5, r0
10003afc:	9309      	str	r3, [sp, #36]	; 0x24
10003afe:	3601      	adds	r6, #1
10003b00:	f7ff facf 	bl	100030a2 <_vsnprintf+0x4a>
10003b04:	42b4      	cmp	r4, r6
10003b06:	d800      	bhi.n	10003b0a <_vsnprintf+0xab2>
10003b08:	e671      	b.n	100037ee <_vsnprintf+0x796>
10003b0a:	9b14      	ldr	r3, [sp, #80]	; 0x50
10003b0c:	4654      	mov	r4, sl
10003b0e:	960e      	str	r6, [sp, #56]	; 0x38
10003b10:	970f      	str	r7, [sp, #60]	; 0x3c
10003b12:	46aa      	mov	sl, r5
10003b14:	4698      	mov	r8, r3
10003b16:	9e15      	ldr	r6, [sp, #84]	; 0x54
10003b18:	9d13      	ldr	r5, [sp, #76]	; 0x4c
10003b1a:	e68e      	b.n	1000383a <_vsnprintf+0x7e2>
10003b1c:	42a6      	cmp	r6, r4
10003b1e:	d800      	bhi.n	10003b22 <_vsnprintf+0xaca>
10003b20:	e6fb      	b.n	1000391a <_vsnprintf+0x8c2>
10003b22:	9b13      	ldr	r3, [sp, #76]	; 0x4c
10003b24:	4656      	mov	r6, sl
10003b26:	4698      	mov	r8, r3
10003b28:	46aa      	mov	sl, r5
10003b2a:	465c      	mov	r4, fp
10003b2c:	9d12      	ldr	r5, [sp, #72]	; 0x48
10003b2e:	e576      	b.n	1000361e <_vsnprintf+0x5c6>
10003b30:	c908      	ldmia	r1!, {r3}
10003b32:	17d8      	asrs	r0, r3, #31
10003b34:	181a      	adds	r2, r3, r0
10003b36:	4042      	eors	r2, r0
10003b38:	9109      	str	r1, [sp, #36]	; 0x24
10003b3a:	f7ff fb8a 	bl	10003252 <_vsnprintf+0x1fa>
10003b3e:	2300      	movs	r3, #0
10003b40:	930b      	str	r3, [sp, #44]	; 0x2c
10003b42:	e450      	b.n	100033e6 <_vsnprintf+0x38e>
10003b44:	9b09      	ldr	r3, [sp, #36]	; 0x24
10003b46:	cb04      	ldmia	r3!, {r2}
10003b48:	4693      	mov	fp, r2
10003b4a:	9309      	str	r3, [sp, #36]	; 0x24
10003b4c:	e559      	b.n	10003602 <_vsnprintf+0x5aa>
10003b4e:	002f      	movs	r7, r5
10003b50:	e5bb      	b.n	100036ca <_vsnprintf+0x672>
10003b52:	930b      	str	r3, [sp, #44]	; 0x2c
10003b54:	e601      	b.n	1000375a <_vsnprintf+0x702>
10003b56:	3b06      	subs	r3, #6
10003b58:	930c      	str	r3, [sp, #48]	; 0x30
10003b5a:	e69a      	b.n	10003892 <_vsnprintf+0x83a>

10003b5c <__wrap_sprintf>:
10003b5c:	b40e      	push	{r1, r2, r3}
10003b5e:	2201      	movs	r2, #1
10003b60:	b510      	push	{r4, lr}
10003b62:	b085      	sub	sp, #20
10003b64:	ac07      	add	r4, sp, #28
10003b66:	cc08      	ldmia	r4!, {r3}
10003b68:	0001      	movs	r1, r0
10003b6a:	9400      	str	r4, [sp, #0]
10003b6c:	4252      	negs	r2, r2
10003b6e:	4804      	ldr	r0, [pc, #16]	; (10003b80 <__wrap_sprintf+0x24>)
10003b70:	9403      	str	r4, [sp, #12]
10003b72:	f7ff fa71 	bl	10003058 <_vsnprintf>
10003b76:	b005      	add	sp, #20
10003b78:	bc10      	pop	{r4}
10003b7a:	bc08      	pop	{r3}
10003b7c:	b003      	add	sp, #12
10003b7e:	4718      	bx	r3
10003b80:	100025f1 	.word	0x100025f1

10003b84 <weak_raw_vprintf>:
10003b84:	b510      	push	{r4, lr}
10003b86:	4a09      	ldr	r2, [pc, #36]	; (10003bac <weak_raw_vprintf+0x28>)
10003b88:	0003      	movs	r3, r0
10003b8a:	6814      	ldr	r4, [r2, #0]
10003b8c:	b084      	sub	sp, #16
10003b8e:	2c00      	cmp	r4, #0
10003b90:	d008      	beq.n	10003ba4 <weak_raw_vprintf+0x20>
10003b92:	2201      	movs	r2, #1
10003b94:	9100      	str	r1, [sp, #0]
10003b96:	4806      	ldr	r0, [pc, #24]	; (10003bb0 <weak_raw_vprintf+0x2c>)
10003b98:	4252      	negs	r2, r2
10003b9a:	a903      	add	r1, sp, #12
10003b9c:	47a0      	blx	r4
10003b9e:	2001      	movs	r0, #1
10003ba0:	b004      	add	sp, #16
10003ba2:	bd10      	pop	{r4, pc}
10003ba4:	f000 ffe2 	bl	10004b6c <__wrap_puts>
10003ba8:	2000      	movs	r0, #0
10003baa:	e7f9      	b.n	10003ba0 <weak_raw_vprintf+0x1c>
10003bac:	20002bcc 	.word	0x20002bcc
10003bb0:	10002865 	.word	0x10002865

10003bb4 <__aeabi_bits_init>:
10003bb4:	4801      	ldr	r0, [pc, #4]	; (10003bbc <__aeabi_bits_init+0x8>)
10003bb6:	2104      	movs	r1, #4
10003bb8:	4b01      	ldr	r3, [pc, #4]	; (10003bc0 <__aeabi_bits_init+0xc>)
10003bba:	4718      	bx	r3
10003bbc:	200019e0 	.word	0x200019e0
10003bc0:	10003be5 	.word	0x10003be5

10003bc4 <rom_func_lookup>:
10003bc4:	2314      	movs	r3, #20
10003bc6:	b510      	push	{r4, lr}
10003bc8:	0001      	movs	r1, r0
10003bca:	8818      	ldrh	r0, [r3, #0]
10003bcc:	3304      	adds	r3, #4
10003bce:	881b      	ldrh	r3, [r3, #0]
10003bd0:	4798      	blx	r3
10003bd2:	bd10      	pop	{r4, pc}

10003bd4 <rom_data_lookup>:
10003bd4:	2316      	movs	r3, #22
10003bd6:	b510      	push	{r4, lr}
10003bd8:	0001      	movs	r1, r0
10003bda:	8818      	ldrh	r0, [r3, #0]
10003bdc:	3302      	adds	r3, #2
10003bde:	881b      	ldrh	r3, [r3, #0]
10003be0:	4798      	blx	r3
10003be2:	bd10      	pop	{r4, pc}

10003be4 <rom_funcs_lookup>:
10003be4:	b5f8      	push	{r3, r4, r5, r6, r7, lr}
10003be6:	4647      	mov	r7, r8
10003be8:	46ce      	mov	lr, r9
10003bea:	b580      	push	{r7, lr}
10003bec:	1e0f      	subs	r7, r1, #0
10003bee:	d019      	beq.n	10003c24 <rom_funcs_lookup+0x40>
10003bf0:	2314      	movs	r3, #20
10003bf2:	4699      	mov	r9, r3
10003bf4:	3304      	adds	r3, #4
10003bf6:	0004      	movs	r4, r0
10003bf8:	2500      	movs	r5, #0
10003bfa:	2601      	movs	r6, #1
10003bfc:	4698      	mov	r8, r3
10003bfe:	464b      	mov	r3, r9
10003c00:	8818      	ldrh	r0, [r3, #0]
10003c02:	4643      	mov	r3, r8
10003c04:	6821      	ldr	r1, [r4, #0]
10003c06:	881b      	ldrh	r3, [r3, #0]
10003c08:	4798      	blx	r3
10003c0a:	c401      	stmia	r4!, {r0}
10003c0c:	1e43      	subs	r3, r0, #1
10003c0e:	4198      	sbcs	r0, r3
10003c10:	3501      	adds	r5, #1
10003c12:	4240      	negs	r0, r0
10003c14:	4006      	ands	r6, r0
10003c16:	42af      	cmp	r7, r5
10003c18:	d1f1      	bne.n	10003bfe <rom_funcs_lookup+0x1a>
10003c1a:	0030      	movs	r0, r6
10003c1c:	bcc0      	pop	{r6, r7}
10003c1e:	46b9      	mov	r9, r7
10003c20:	46b0      	mov	r8, r6
10003c22:	bdf8      	pop	{r3, r4, r5, r6, r7, pc}
10003c24:	2601      	movs	r6, #1
10003c26:	e7f8      	b.n	10003c1a <rom_funcs_lookup+0x36>

10003c28 <__wrap___aeabi_idiv>:
10003c28:	4a12      	ldr	r2, [pc, #72]	; (10003c74 <divmod_s32s32_savestate+0x18>)
10003c2a:	6f93      	ldr	r3, [r2, #120]	; 0x78
10003c2c:	089b      	lsrs	r3, r3, #2
10003c2e:	d215      	bcs.n	10003c5c <divmod_s32s32_savestate>

10003c30 <divmod_s32s32_unsafe>:
10003c30:	6690      	str	r0, [r2, #104]	; 0x68
10003c32:	66d1      	str	r1, [r2, #108]	; 0x6c
10003c34:	2900      	cmp	r1, #0
10003c36:	d005      	beq.n	10003c44 <divmod_s32s32_unsafe+0x14>
10003c38:	e7ff      	b.n	10003c3a <divmod_s32s32_unsafe+0xa>
10003c3a:	e7ff      	b.n	10003c3c <divmod_s32s32_unsafe+0xc>
10003c3c:	e7ff      	b.n	10003c3e <divmod_s32s32_unsafe+0xe>
10003c3e:	6f51      	ldr	r1, [r2, #116]	; 0x74
10003c40:	6f10      	ldr	r0, [r2, #112]	; 0x70
10003c42:	4770      	bx	lr
10003c44:	b504      	push	{r2, lr}
10003c46:	2180      	movs	r1, #128	; 0x80
10003c48:	0609      	lsls	r1, r1, #24
10003c4a:	17c2      	asrs	r2, r0, #31
10003c4c:	4051      	eors	r1, r2
10003c4e:	2800      	cmp	r0, #0
10003c50:	d000      	beq.n	10003c54 <divmod_s32s32_unsafe+0x24>
10003c52:	43c8      	mvns	r0, r1
10003c54:	f003 fdf4 	bl	10007840 <____aeabi_idiv0_veneer>
10003c58:	2100      	movs	r1, #0
10003c5a:	bd04      	pop	{r2, pc}

10003c5c <divmod_s32s32_savestate>:
10003c5c:	b5f0      	push	{r4, r5, r6, r7, lr}
10003c5e:	6e14      	ldr	r4, [r2, #96]	; 0x60
10003c60:	6e55      	ldr	r5, [r2, #100]	; 0x64
10003c62:	6f57      	ldr	r7, [r2, #116]	; 0x74
10003c64:	6f16      	ldr	r6, [r2, #112]	; 0x70
10003c66:	f7ff ffe3 	bl	10003c30 <divmod_s32s32_unsafe>
10003c6a:	6614      	str	r4, [r2, #96]	; 0x60
10003c6c:	6655      	str	r5, [r2, #100]	; 0x64
10003c6e:	6757      	str	r7, [r2, #116]	; 0x74
10003c70:	6716      	str	r6, [r2, #112]	; 0x70
10003c72:	bdf0      	pop	{r4, r5, r6, r7, pc}
10003c74:	d0000000 	.word	0xd0000000

10003c78 <__wrap___aeabi_uidiv>:
10003c78:	4a11      	ldr	r2, [pc, #68]	; (10003cc0 <divmod_u32u32_savestate+0x18>)
10003c7a:	6f93      	ldr	r3, [r2, #120]	; 0x78
10003c7c:	089b      	lsrs	r3, r3, #2
10003c7e:	d213      	bcs.n	10003ca8 <divmod_u32u32_savestate>

10003c80 <divmod_u32u32_unsafe>:
10003c80:	6610      	str	r0, [r2, #96]	; 0x60
10003c82:	6651      	str	r1, [r2, #100]	; 0x64
10003c84:	2900      	cmp	r1, #0
10003c86:	d005      	beq.n	10003c94 <divmod_u32u32_unsafe+0x14>
10003c88:	e7ff      	b.n	10003c8a <divmod_u32u32_unsafe+0xa>
10003c8a:	e7ff      	b.n	10003c8c <divmod_u32u32_unsafe+0xc>
10003c8c:	e7ff      	b.n	10003c8e <divmod_u32u32_unsafe+0xe>
10003c8e:	6f51      	ldr	r1, [r2, #116]	; 0x74
10003c90:	6f10      	ldr	r0, [r2, #112]	; 0x70
10003c92:	4770      	bx	lr
10003c94:	b504      	push	{r2, lr}
10003c96:	2800      	cmp	r0, #0
10003c98:	d001      	beq.n	10003c9e <divmod_u32u32_unsafe+0x1e>
10003c9a:	2000      	movs	r0, #0
10003c9c:	43c0      	mvns	r0, r0
10003c9e:	f003 fdcf 	bl	10007840 <____aeabi_idiv0_veneer>
10003ca2:	2100      	movs	r1, #0
10003ca4:	bd04      	pop	{r2, pc}
10003ca6:	46c0      	nop			; (mov r8, r8)

10003ca8 <divmod_u32u32_savestate>:
10003ca8:	b5f0      	push	{r4, r5, r6, r7, lr}
10003caa:	6e14      	ldr	r4, [r2, #96]	; 0x60
10003cac:	6e55      	ldr	r5, [r2, #100]	; 0x64
10003cae:	6f57      	ldr	r7, [r2, #116]	; 0x74
10003cb0:	6f16      	ldr	r6, [r2, #112]	; 0x70
10003cb2:	f7ff ffe5 	bl	10003c80 <divmod_u32u32_unsafe>
10003cb6:	6614      	str	r4, [r2, #96]	; 0x60
10003cb8:	6655      	str	r5, [r2, #100]	; 0x64
10003cba:	6757      	str	r7, [r2, #116]	; 0x74
10003cbc:	6716      	str	r6, [r2, #112]	; 0x70
10003cbe:	bdf0      	pop	{r4, r5, r6, r7, pc}
10003cc0:	d0000000 	.word	0xd0000000

10003cc4 <__wrap___aeabi_ldivmod>:
10003cc4:	4694      	mov	ip, r2
10003cc6:	4a4e      	ldr	r2, [pc, #312]	; (10003e00 <udiv0+0x1a>)
10003cc8:	6f92      	ldr	r2, [r2, #120]	; 0x78
10003cca:	0892      	lsrs	r2, r2, #2
10003ccc:	4662      	mov	r2, ip
10003cce:	d201      	bcs.n	10003cd4 <divmod_s64s64_savestate>
10003cd0:	e030      	b.n	10003d34 <divmod_s64s64_unsafe>
10003cd2:	46c0      	nop			; (mov r8, r8)

10003cd4 <divmod_s64s64_savestate>:
10003cd4:	b5f0      	push	{r4, r5, r6, r7, lr}
10003cd6:	4e4a      	ldr	r6, [pc, #296]	; (10003e00 <udiv0+0x1a>)
10003cd8:	6fb5      	ldr	r5, [r6, #120]	; 0x78
10003cda:	086d      	lsrs	r5, r5, #1
10003cdc:	d3fc      	bcc.n	10003cd8 <divmod_s64s64_savestate+0x4>
10003cde:	6e34      	ldr	r4, [r6, #96]	; 0x60
10003ce0:	6e75      	ldr	r5, [r6, #100]	; 0x64
10003ce2:	6f77      	ldr	r7, [r6, #116]	; 0x74
10003ce4:	6f36      	ldr	r6, [r6, #112]	; 0x70
10003ce6:	f000 f825 	bl	10003d34 <divmod_s64s64_unsafe>
10003cea:	4694      	mov	ip, r2
10003cec:	4a44      	ldr	r2, [pc, #272]	; (10003e00 <udiv0+0x1a>)
10003cee:	6614      	str	r4, [r2, #96]	; 0x60
10003cf0:	6655      	str	r5, [r2, #100]	; 0x64
10003cf2:	6757      	str	r7, [r2, #116]	; 0x74
10003cf4:	6716      	str	r6, [r2, #112]	; 0x70
10003cf6:	4662      	mov	r2, ip
10003cf8:	bdf0      	pop	{r4, r5, r6, r7, pc}
10003cfa:	46c0      	nop			; (mov r8, r8)

10003cfc <__wrap___aeabi_uldivmod>:
10003cfc:	4694      	mov	ip, r2
10003cfe:	4a40      	ldr	r2, [pc, #256]	; (10003e00 <udiv0+0x1a>)
10003d00:	6f92      	ldr	r2, [r2, #120]	; 0x78
10003d02:	0892      	lsrs	r2, r2, #2
10003d04:	4662      	mov	r2, ip
10003d06:	d201      	bcs.n	10003d0c <divmod_u64u64_savestate>
10003d08:	e058      	b.n	10003dbc <divmod_u64u64_unsafe>
10003d0a:	46c0      	nop			; (mov r8, r8)

10003d0c <divmod_u64u64_savestate>:
10003d0c:	b5f0      	push	{r4, r5, r6, r7, lr}
10003d0e:	4e3c      	ldr	r6, [pc, #240]	; (10003e00 <udiv0+0x1a>)
10003d10:	6fb5      	ldr	r5, [r6, #120]	; 0x78
10003d12:	086d      	lsrs	r5, r5, #1
10003d14:	d3fc      	bcc.n	10003d10 <divmod_u64u64_savestate+0x4>
10003d16:	6e34      	ldr	r4, [r6, #96]	; 0x60
10003d18:	6e75      	ldr	r5, [r6, #100]	; 0x64
10003d1a:	6f77      	ldr	r7, [r6, #116]	; 0x74
10003d1c:	6f36      	ldr	r6, [r6, #112]	; 0x70
10003d1e:	f000 f84d 	bl	10003dbc <divmod_u64u64_unsafe>
10003d22:	4694      	mov	ip, r2
10003d24:	4a36      	ldr	r2, [pc, #216]	; (10003e00 <udiv0+0x1a>)
10003d26:	6614      	str	r4, [r2, #96]	; 0x60
10003d28:	6655      	str	r5, [r2, #100]	; 0x64
10003d2a:	6757      	str	r7, [r2, #116]	; 0x74
10003d2c:	6716      	str	r6, [r2, #112]	; 0x70
10003d2e:	4662      	mov	r2, ip
10003d30:	bdf0      	pop	{r4, r5, r6, r7, pc}
10003d32:	46c0      	nop			; (mov r8, r8)

10003d34 <divmod_s64s64_unsafe>:
10003d34:	2b00      	cmp	r3, #0
10003d36:	db24      	blt.n	10003d82 <l41_1+0x26>
10003d38:	d011      	beq.n	10003d5e <l41_1+0x2>
10003d3a:	2900      	cmp	r1, #0
10003d3c:	da3e      	bge.n	10003dbc <divmod_u64u64_unsafe>
10003d3e:	b500      	push	{lr}
10003d40:	43c9      	mvns	r1, r1
10003d42:	4240      	negs	r0, r0
10003d44:	d100      	bne.n	10003d48 <l39_1>
10003d46:	3101      	adds	r1, #1

10003d48 <l39_1>:
10003d48:	f000 f838 	bl	10003dbc <divmod_u64u64_unsafe>
10003d4c:	43c9      	mvns	r1, r1
10003d4e:	4240      	negs	r0, r0
10003d50:	d100      	bne.n	10003d54 <l40_1>
10003d52:	3101      	adds	r1, #1

10003d54 <l40_1>:
10003d54:	43db      	mvns	r3, r3
10003d56:	4252      	negs	r2, r2
10003d58:	d100      	bne.n	10003d5c <l41_1>
10003d5a:	3301      	adds	r3, #1

10003d5c <l41_1>:
10003d5c:	bd00      	pop	{pc}
10003d5e:	2a00      	cmp	r2, #0
10003d60:	d1eb      	bne.n	10003d3a <divmod_s64s64_unsafe+0x6>
10003d62:	2800      	cmp	r0, #0
10003d64:	d101      	bne.n	10003d6a <l41_1+0xe>
10003d66:	2900      	cmp	r1, #0
10003d68:	d005      	beq.n	10003d76 <l41_1+0x1a>
10003d6a:	2000      	movs	r0, #0
10003d6c:	0fc9      	lsrs	r1, r1, #31
10003d6e:	07c9      	lsls	r1, r1, #31
10003d70:	d101      	bne.n	10003d76 <l41_1+0x1a>
10003d72:	43c0      	mvns	r0, r0
10003d74:	0841      	lsrs	r1, r0, #1
10003d76:	b500      	push	{lr}
10003d78:	f003 fd5a 	bl	10007830 <____aeabi_ldiv0_veneer>
10003d7c:	2200      	movs	r2, #0
10003d7e:	2300      	movs	r3, #0
10003d80:	bd00      	pop	{pc}
10003d82:	b500      	push	{lr}
10003d84:	2900      	cmp	r1, #0
10003d86:	db0a      	blt.n	10003d9e <l43_1+0x2>
10003d88:	43db      	mvns	r3, r3
10003d8a:	4252      	negs	r2, r2
10003d8c:	d100      	bne.n	10003d90 <l42_1>
10003d8e:	3301      	adds	r3, #1

10003d90 <l42_1>:
10003d90:	f000 f814 	bl	10003dbc <divmod_u64u64_unsafe>
10003d94:	43c9      	mvns	r1, r1
10003d96:	4240      	negs	r0, r0
10003d98:	d100      	bne.n	10003d9c <l43_1>
10003d9a:	3101      	adds	r1, #1

10003d9c <l43_1>:
10003d9c:	bd00      	pop	{pc}
10003d9e:	43c9      	mvns	r1, r1
10003da0:	4240      	negs	r0, r0
10003da2:	d100      	bne.n	10003da6 <l44_1>
10003da4:	3101      	adds	r1, #1

10003da6 <l44_1>:
10003da6:	43db      	mvns	r3, r3
10003da8:	4252      	negs	r2, r2
10003daa:	d100      	bne.n	10003dae <l45_1>
10003dac:	3301      	adds	r3, #1

10003dae <l45_1>:
10003dae:	f000 f805 	bl	10003dbc <divmod_u64u64_unsafe>
10003db2:	43db      	mvns	r3, r3
10003db4:	4252      	negs	r2, r2
10003db6:	d100      	bne.n	10003dba <l46_1>
10003db8:	3301      	adds	r3, #1

10003dba <l46_1>:
10003dba:	bd00      	pop	{pc}

10003dbc <divmod_u64u64_unsafe>:
10003dbc:	2900      	cmp	r1, #0
10003dbe:	d123      	bne.n	10003e08 <y64>
10003dc0:	2b00      	cmp	r3, #0
10003dc2:	d118      	bne.n	10003df6 <udiv0+0x10>
10003dc4:	2a00      	cmp	r2, #0
10003dc6:	d00c      	beq.n	10003de2 <divmod_u64u64_unsafe+0x26>
10003dc8:	46bc      	mov	ip, r7
10003dca:	4f0d      	ldr	r7, [pc, #52]	; (10003e00 <udiv0+0x1a>)
10003dcc:	6638      	str	r0, [r7, #96]	; 0x60
10003dce:	667a      	str	r2, [r7, #100]	; 0x64
10003dd0:	2100      	movs	r1, #0
10003dd2:	2300      	movs	r3, #0
10003dd4:	e7ff      	b.n	10003dd6 <divmod_u64u64_unsafe+0x1a>
10003dd6:	e7ff      	b.n	10003dd8 <divmod_u64u64_unsafe+0x1c>
10003dd8:	e7ff      	b.n	10003dda <divmod_u64u64_unsafe+0x1e>
10003dda:	6f7a      	ldr	r2, [r7, #116]	; 0x74
10003ddc:	6f38      	ldr	r0, [r7, #112]	; 0x70
10003dde:	4667      	mov	r7, ip
10003de0:	4770      	bx	lr
10003de2:	2800      	cmp	r0, #0
10003de4:	d001      	beq.n	10003dea <udiv0+0x4>

10003de6 <udiv0>:
10003de6:	4807      	ldr	r0, [pc, #28]	; (10003e04 <udiv0+0x1e>)
10003de8:	0001      	movs	r1, r0
10003dea:	b500      	push	{lr}
10003dec:	f003 fd20 	bl	10007830 <____aeabi_ldiv0_veneer>
10003df0:	2200      	movs	r2, #0
10003df2:	2300      	movs	r3, #0
10003df4:	bd00      	pop	{pc}
10003df6:	0002      	movs	r2, r0
10003df8:	000b      	movs	r3, r1
10003dfa:	2000      	movs	r0, #0
10003dfc:	2100      	movs	r1, #0
10003dfe:	4770      	bx	lr
10003e00:	d0000000 	.word	0xd0000000
10003e04:	ffffffff 	.word	0xffffffff

10003e08 <y64>:
10003e08:	2b00      	cmp	r3, #0
10003e0a:	d000      	beq.n	10003e0e <y64+0x6>
10003e0c:	e0bf      	b.n	10003f8e <y64_x48>
10003e0e:	0c13      	lsrs	r3, r2, #16
10003e10:	d128      	bne.n	10003e64 <y64_x32>
10003e12:	2a00      	cmp	r2, #0
10003e14:	d0e7      	beq.n	10003de6 <udiv0>
10003e16:	b480      	push	{r7}
10003e18:	4f11      	ldr	r7, [pc, #68]	; (10003e60 <y64+0x58>)
10003e1a:	6639      	str	r1, [r7, #96]	; 0x60
10003e1c:	667a      	str	r2, [r7, #100]	; 0x64
10003e1e:	e7ff      	b.n	10003e20 <y64+0x18>
10003e20:	e7ff      	b.n	10003e22 <y64+0x1a>
10003e22:	b430      	push	{r4, r5}
10003e24:	0c04      	lsrs	r4, r0, #16
10003e26:	6f7b      	ldr	r3, [r7, #116]	; 0x74
10003e28:	6f39      	ldr	r1, [r7, #112]	; 0x70
10003e2a:	041b      	lsls	r3, r3, #16
10003e2c:	4323      	orrs	r3, r4
10003e2e:	663b      	str	r3, [r7, #96]	; 0x60
10003e30:	667a      	str	r2, [r7, #100]	; 0x64
10003e32:	e7ff      	b.n	10003e34 <y64+0x2c>
10003e34:	e7ff      	b.n	10003e36 <y64+0x2e>
10003e36:	e7ff      	b.n	10003e38 <y64+0x30>
10003e38:	46c0      	nop			; (mov r8, r8)
10003e3a:	b284      	uxth	r4, r0
10003e3c:	6f7b      	ldr	r3, [r7, #116]	; 0x74
10003e3e:	6f3d      	ldr	r5, [r7, #112]	; 0x70
10003e40:	041b      	lsls	r3, r3, #16
10003e42:	4323      	orrs	r3, r4
10003e44:	663b      	str	r3, [r7, #96]	; 0x60
10003e46:	667a      	str	r2, [r7, #100]	; 0x64
10003e48:	e7ff      	b.n	10003e4a <y64+0x42>
10003e4a:	e7ff      	b.n	10003e4c <y64+0x44>
10003e4c:	46c0      	nop			; (mov r8, r8)
10003e4e:	2300      	movs	r3, #0
10003e50:	042c      	lsls	r4, r5, #16
10003e52:	0c2d      	lsrs	r5, r5, #16
10003e54:	6f7a      	ldr	r2, [r7, #116]	; 0x74
10003e56:	6f38      	ldr	r0, [r7, #112]	; 0x70
10003e58:	1900      	adds	r0, r0, r4
10003e5a:	4169      	adcs	r1, r5
10003e5c:	bcb0      	pop	{r4, r5, r7}
10003e5e:	4770      	bx	lr
10003e60:	d0000000 	.word	0xd0000000

10003e64 <y64_x32>:
10003e64:	b5f0      	push	{r4, r5, r6, r7, lr}
10003e66:	4694      	mov	ip, r2
10003e68:	2500      	movs	r5, #0
10003e6a:	0e14      	lsrs	r4, r2, #24
10003e6c:	d101      	bne.n	10003e72 <y64_x32+0xe>
10003e6e:	0212      	lsls	r2, r2, #8
10003e70:	3508      	adds	r5, #8
10003e72:	0f14      	lsrs	r4, r2, #28
10003e74:	d101      	bne.n	10003e7a <y64_x32+0x16>
10003e76:	0112      	lsls	r2, r2, #4
10003e78:	3504      	adds	r5, #4
10003e7a:	0f94      	lsrs	r4, r2, #30
10003e7c:	d101      	bne.n	10003e82 <y64_x32+0x1e>
10003e7e:	0092      	lsls	r2, r2, #2
10003e80:	3502      	adds	r5, #2
10003e82:	0fd4      	lsrs	r4, r2, #31
10003e84:	d101      	bne.n	10003e8a <y64_x32+0x26>
10003e86:	0052      	lsls	r2, r2, #1
10003e88:	3501      	adds	r5, #1
10003e8a:	0bd4      	lsrs	r4, r2, #15
10003e8c:	3401      	adds	r4, #1
10003e8e:	4f25      	ldr	r7, [pc, #148]	; (10003f24 <y64_x32+0xc0>)
10003e90:	667c      	str	r4, [r7, #100]	; 0x64
10003e92:	4c25      	ldr	r4, [pc, #148]	; (10003f28 <y64_x32+0xc4>)
10003e94:	663c      	str	r4, [r7, #96]	; 0x60
10003e96:	0c0e      	lsrs	r6, r1, #16
10003e98:	b293      	uxth	r3, r2
10003e9a:	e7ff      	b.n	10003e9c <y64_x32+0x38>
10003e9c:	e7ff      	b.n	10003e9e <y64_x32+0x3a>
10003e9e:	e7ff      	b.n	10003ea0 <y64_x32+0x3c>
10003ea0:	6f3c      	ldr	r4, [r7, #112]	; 0x70
10003ea2:	4366      	muls	r6, r4
10003ea4:	0c36      	lsrs	r6, r6, #16
10003ea6:	0377      	lsls	r7, r6, #13
10003ea8:	46be      	mov	lr, r7
10003eaa:	4373      	muls	r3, r6
10003eac:	0bdf      	lsrs	r7, r3, #15
10003eae:	045b      	lsls	r3, r3, #17
10003eb0:	1ac0      	subs	r0, r0, r3
10003eb2:	41b9      	sbcs	r1, r7
10003eb4:	0c13      	lsrs	r3, r2, #16
10003eb6:	4373      	muls	r3, r6
10003eb8:	18db      	adds	r3, r3, r3
10003eba:	1ac9      	subs	r1, r1, r3
10003ebc:	08ce      	lsrs	r6, r1, #3
10003ebe:	4366      	muls	r6, r4
10003ec0:	0c36      	lsrs	r6, r6, #16
10003ec2:	44b6      	add	lr, r6
10003ec4:	b293      	uxth	r3, r2
10003ec6:	4373      	muls	r3, r6
10003ec8:	0f1f      	lsrs	r7, r3, #28
10003eca:	011b      	lsls	r3, r3, #4
10003ecc:	1ac0      	subs	r0, r0, r3
10003ece:	41b9      	sbcs	r1, r7
10003ed0:	0c13      	lsrs	r3, r2, #16
10003ed2:	4373      	muls	r3, r6
10003ed4:	0b1f      	lsrs	r7, r3, #12
10003ed6:	051b      	lsls	r3, r3, #20
10003ed8:	1ac0      	subs	r0, r0, r3
10003eda:	41b9      	sbcs	r1, r7
10003edc:	0d86      	lsrs	r6, r0, #22
10003ede:	028f      	lsls	r7, r1, #10
10003ee0:	433e      	orrs	r6, r7
10003ee2:	4366      	muls	r6, r4
10003ee4:	0c36      	lsrs	r6, r6, #16
10003ee6:	2d09      	cmp	r5, #9
10003ee8:	db24      	blt.n	10003f34 <last0>
10003eea:	0a52      	lsrs	r2, r2, #9
10003eec:	4372      	muls	r2, r6
10003eee:	1a80      	subs	r0, r0, r2
10003ef0:	0377      	lsls	r7, r6, #13
10003ef2:	0a46      	lsrs	r6, r0, #9
10003ef4:	4366      	muls	r6, r4
10003ef6:	0c36      	lsrs	r6, r6, #16
10003ef8:	2316      	movs	r3, #22
10003efa:	1b5b      	subs	r3, r3, r5
10003efc:	40de      	lsrs	r6, r3
10003efe:	40df      	lsrs	r7, r3
10003f00:	19bf      	adds	r7, r7, r6
10003f02:	4664      	mov	r4, ip
10003f04:	4366      	muls	r6, r4
10003f06:	1b82      	subs	r2, r0, r6
10003f08:	4670      	mov	r0, lr
10003f0a:	3504      	adds	r5, #4
10003f0c:	3306      	adds	r3, #6
10003f0e:	0001      	movs	r1, r0
10003f10:	40d9      	lsrs	r1, r3
10003f12:	40a8      	lsls	r0, r5
10003f14:	19c0      	adds	r0, r0, r7
10003f16:	d300      	bcc.n	10003f1a <y64_x32+0xb6>
10003f18:	3101      	adds	r1, #1
10003f1a:	42a2      	cmp	r2, r4
10003f1c:	d206      	bcs.n	10003f2c <y64_x32+0xc8>
10003f1e:	2300      	movs	r3, #0
10003f20:	bdf0      	pop	{r4, r5, r6, r7, pc}
10003f22:	0000      	.short	0x0000
10003f24:	d0000000 	.word	0xd0000000
10003f28:	ffffffff 	.word	0xffffffff
10003f2c:	1b12      	subs	r2, r2, r4
10003f2e:	3001      	adds	r0, #1
10003f30:	d3f3      	bcc.n	10003f1a <y64_x32+0xb6>
10003f32:	e7f1      	b.n	10003f18 <y64_x32+0xb4>

10003f34 <last0>:
10003f34:	2709      	movs	r7, #9
10003f36:	1b7f      	subs	r7, r7, r5
10003f38:	40fe      	lsrs	r6, r7
10003f3a:	4664      	mov	r4, ip
10003f3c:	b2a2      	uxth	r2, r4
10003f3e:	4372      	muls	r2, r6
10003f40:	1a80      	subs	r0, r0, r2
10003f42:	d200      	bcs.n	10003f46 <last0+0x12>
10003f44:	3901      	subs	r1, #1
10003f46:	0c22      	lsrs	r2, r4, #16
10003f48:	4372      	muls	r2, r6
10003f4a:	0c13      	lsrs	r3, r2, #16
10003f4c:	0412      	lsls	r2, r2, #16
10003f4e:	1a82      	subs	r2, r0, r2
10003f50:	4199      	sbcs	r1, r3
10003f52:	000b      	movs	r3, r1
10003f54:	4670      	mov	r0, lr
10003f56:	3504      	adds	r5, #4
10003f58:	3713      	adds	r7, #19
10003f5a:	0001      	movs	r1, r0
10003f5c:	40f9      	lsrs	r1, r7
10003f5e:	40a8      	lsls	r0, r5
10003f60:	1980      	adds	r0, r0, r6
10003f62:	d300      	bcc.n	10003f66 <last0+0x32>
10003f64:	3101      	adds	r1, #1
10003f66:	2b00      	cmp	r3, #0
10003f68:	d102      	bne.n	10003f70 <last0+0x3c>
10003f6a:	42a2      	cmp	r2, r4
10003f6c:	d20a      	bcs.n	10003f84 <last0+0x50>
10003f6e:	bdf0      	pop	{r4, r5, r6, r7, pc}
10003f70:	3001      	adds	r0, #1
10003f72:	d300      	bcc.n	10003f76 <last0+0x42>
10003f74:	3101      	adds	r1, #1
10003f76:	1b12      	subs	r2, r2, r4
10003f78:	d2fa      	bcs.n	10003f70 <last0+0x3c>
10003f7a:	3b01      	subs	r3, #1
10003f7c:	d1f8      	bne.n	10003f70 <last0+0x3c>
10003f7e:	42a2      	cmp	r2, r4
10003f80:	d200      	bcs.n	10003f84 <last0+0x50>
10003f82:	bdf0      	pop	{r4, r5, r6, r7, pc}
10003f84:	3001      	adds	r0, #1
10003f86:	d300      	bcc.n	10003f8a <last0+0x56>
10003f88:	3101      	adds	r1, #1
10003f8a:	1b12      	subs	r2, r2, r4
10003f8c:	e7f7      	b.n	10003f7e <last0+0x4a>

10003f8e <y64_x48>:
10003f8e:	b5f0      	push	{r4, r5, r6, r7, lr}
10003f90:	0c1c      	lsrs	r4, r3, #16
10003f92:	d000      	beq.n	10003f96 <y64_x48+0x8>
10003f94:	e080      	b.n	10004098 <y64_x64>
10003f96:	b40c      	push	{r2, r3}
10003f98:	2500      	movs	r5, #0
10003f9a:	0a1c      	lsrs	r4, r3, #8
10003f9c:	d104      	bne.n	10003fa8 <y64_x48+0x1a>
10003f9e:	021b      	lsls	r3, r3, #8
10003fa0:	0e16      	lsrs	r6, r2, #24
10003fa2:	4333      	orrs	r3, r6
10003fa4:	0212      	lsls	r2, r2, #8
10003fa6:	3508      	adds	r5, #8
10003fa8:	0b1c      	lsrs	r4, r3, #12
10003faa:	d104      	bne.n	10003fb6 <y64_x48+0x28>
10003fac:	011b      	lsls	r3, r3, #4
10003fae:	0f16      	lsrs	r6, r2, #28
10003fb0:	4333      	orrs	r3, r6
10003fb2:	0112      	lsls	r2, r2, #4
10003fb4:	3504      	adds	r5, #4
10003fb6:	0b9c      	lsrs	r4, r3, #14
10003fb8:	d104      	bne.n	10003fc4 <y64_x48+0x36>
10003fba:	009b      	lsls	r3, r3, #2
10003fbc:	0f96      	lsrs	r6, r2, #30
10003fbe:	4333      	orrs	r3, r6
10003fc0:	0092      	lsls	r2, r2, #2
10003fc2:	3502      	adds	r5, #2
10003fc4:	0bdc      	lsrs	r4, r3, #15
10003fc6:	d102      	bne.n	10003fce <y64_x48+0x40>
10003fc8:	1892      	adds	r2, r2, r2
10003fca:	415b      	adcs	r3, r3
10003fcc:	3501      	adds	r5, #1
10003fce:	001c      	movs	r4, r3
10003fd0:	1897      	adds	r7, r2, r2
10003fd2:	4164      	adcs	r4, r4
10003fd4:	3401      	adds	r4, #1
10003fd6:	4f46      	ldr	r7, [pc, #280]	; (100040f0 <y64_x64+0x58>)
10003fd8:	667c      	str	r4, [r7, #100]	; 0x64
10003fda:	4c46      	ldr	r4, [pc, #280]	; (100040f4 <y64_x64+0x5c>)
10003fdc:	663c      	str	r4, [r7, #96]	; 0x60
10003fde:	0c0e      	lsrs	r6, r1, #16
10003fe0:	e7ff      	b.n	10003fe2 <y64_x48+0x54>
10003fe2:	e7ff      	b.n	10003fe4 <y64_x48+0x56>
10003fe4:	e7ff      	b.n	10003fe6 <y64_x48+0x58>
10003fe6:	46c0      	nop			; (mov r8, r8)
10003fe8:	6f3c      	ldr	r4, [r7, #112]	; 0x70
10003fea:	4366      	muls	r6, r4
10003fec:	0c36      	lsrs	r6, r6, #16
10003fee:	0377      	lsls	r7, r6, #13
10003ff0:	46be      	mov	lr, r7
10003ff2:	b297      	uxth	r7, r2
10003ff4:	4377      	muls	r7, r6
10003ff6:	1bc0      	subs	r0, r0, r7
10003ff8:	d200      	bcs.n	10003ffc <y64_x48+0x6e>
10003ffa:	3901      	subs	r1, #1
10003ffc:	1bc0      	subs	r0, r0, r7
10003ffe:	d200      	bcs.n	10004002 <y64_x48+0x74>
10004000:	3901      	subs	r1, #1
10004002:	b29f      	uxth	r7, r3
10004004:	4377      	muls	r7, r6
10004006:	1bc9      	subs	r1, r1, r7
10004008:	1bc9      	subs	r1, r1, r7
1000400a:	0c17      	lsrs	r7, r2, #16
1000400c:	4377      	muls	r7, r6
1000400e:	047e      	lsls	r6, r7, #17
10004010:	0bff      	lsrs	r7, r7, #15
10004012:	1b80      	subs	r0, r0, r6
10004014:	41b9      	sbcs	r1, r7
10004016:	08ce      	lsrs	r6, r1, #3
10004018:	4366      	muls	r6, r4
1000401a:	0c36      	lsrs	r6, r6, #16
1000401c:	2d0c      	cmp	r5, #12
1000401e:	db33      	blt.n	10004088 <last1>
10004020:	44b6      	add	lr, r6
10004022:	0b12      	lsrs	r2, r2, #12
10004024:	051f      	lsls	r7, r3, #20
10004026:	433a      	orrs	r2, r7
10004028:	0b1b      	lsrs	r3, r3, #12
1000402a:	b297      	uxth	r7, r2
1000402c:	4377      	muls	r7, r6
1000402e:	1bc0      	subs	r0, r0, r7
10004030:	d200      	bcs.n	10004034 <y64_x48+0xa6>
10004032:	3901      	subs	r1, #1
10004034:	b29f      	uxth	r7, r3
10004036:	4377      	muls	r7, r6
10004038:	1bc9      	subs	r1, r1, r7
1000403a:	0c17      	lsrs	r7, r2, #16
1000403c:	4377      	muls	r7, r6
1000403e:	043e      	lsls	r6, r7, #16
10004040:	0c3f      	lsrs	r7, r7, #16
10004042:	1b80      	subs	r0, r0, r6
10004044:	41b9      	sbcs	r1, r7
10004046:	0d86      	lsrs	r6, r0, #22
10004048:	028f      	lsls	r7, r1, #10
1000404a:	433e      	orrs	r6, r7
1000404c:	4366      	muls	r6, r4
1000404e:	2729      	movs	r7, #41	; 0x29
10004050:	1b7f      	subs	r7, r7, r5
10004052:	40fe      	lsrs	r6, r7
10004054:	3d0c      	subs	r5, #12
10004056:	4677      	mov	r7, lr
10004058:	40af      	lsls	r7, r5
1000405a:	19bf      	adds	r7, r7, r6
1000405c:	bc30      	pop	{r4, r5}
1000405e:	b2a2      	uxth	r2, r4
10004060:	b2ab      	uxth	r3, r5
10004062:	4372      	muls	r2, r6
10004064:	4373      	muls	r3, r6
10004066:	1a80      	subs	r0, r0, r2
10004068:	4199      	sbcs	r1, r3
1000406a:	0c22      	lsrs	r2, r4, #16
1000406c:	4372      	muls	r2, r6
1000406e:	0c13      	lsrs	r3, r2, #16
10004070:	0412      	lsls	r2, r2, #16
10004072:	1a80      	subs	r0, r0, r2
10004074:	4199      	sbcs	r1, r3
10004076:	0002      	movs	r2, r0
10004078:	000b      	movs	r3, r1
1000407a:	3701      	adds	r7, #1
1000407c:	1b00      	subs	r0, r0, r4
1000407e:	41a9      	sbcs	r1, r5
10004080:	d2f9      	bcs.n	10004076 <y64_x48+0xe8>
10004082:	1e78      	subs	r0, r7, #1
10004084:	2100      	movs	r1, #0
10004086:	bdf0      	pop	{r4, r5, r6, r7, pc}

10004088 <last1>:
10004088:	270c      	movs	r7, #12
1000408a:	1b7f      	subs	r7, r7, r5
1000408c:	40fe      	lsrs	r6, r7
1000408e:	4677      	mov	r7, lr
10004090:	0b7f      	lsrs	r7, r7, #13
10004092:	40af      	lsls	r7, r5
10004094:	19ff      	adds	r7, r7, r7
10004096:	e7e0      	b.n	1000405a <y64_x48+0xcc>

10004098 <y64_x64>:
10004098:	2400      	movs	r4, #0
1000409a:	1c5d      	adds	r5, r3, #1
1000409c:	d007      	beq.n	100040ae <y64_x64+0x16>
1000409e:	4f14      	ldr	r7, [pc, #80]	; (100040f0 <y64_x64+0x58>)
100040a0:	667d      	str	r5, [r7, #100]	; 0x64
100040a2:	6639      	str	r1, [r7, #96]	; 0x60
100040a4:	e7ff      	b.n	100040a6 <y64_x64+0xe>
100040a6:	e7ff      	b.n	100040a8 <y64_x64+0x10>
100040a8:	e7ff      	b.n	100040aa <y64_x64+0x12>
100040aa:	e7ff      	b.n	100040ac <y64_x64+0x14>
100040ac:	6f3c      	ldr	r4, [r7, #112]	; 0x70
100040ae:	b295      	uxth	r5, r2
100040b0:	b29e      	uxth	r6, r3
100040b2:	4365      	muls	r5, r4
100040b4:	4366      	muls	r6, r4
100040b6:	1b40      	subs	r0, r0, r5
100040b8:	41b1      	sbcs	r1, r6
100040ba:	0c15      	lsrs	r5, r2, #16
100040bc:	0c1e      	lsrs	r6, r3, #16
100040be:	4365      	muls	r5, r4
100040c0:	4366      	muls	r6, r4
100040c2:	0436      	lsls	r6, r6, #16
100040c4:	0c2f      	lsrs	r7, r5, #16
100040c6:	433e      	orrs	r6, r7
100040c8:	042d      	lsls	r5, r5, #16
100040ca:	1b40      	subs	r0, r0, r5
100040cc:	41b1      	sbcs	r1, r6
100040ce:	4299      	cmp	r1, r3
100040d0:	d204      	bcs.n	100040dc <y64_x64+0x44>
100040d2:	0002      	movs	r2, r0
100040d4:	000b      	movs	r3, r1
100040d6:	0020      	movs	r0, r4
100040d8:	2100      	movs	r1, #0
100040da:	bdf0      	pop	{r4, r5, r6, r7, pc}
100040dc:	d101      	bne.n	100040e2 <y64_x64+0x4a>
100040de:	4290      	cmp	r0, r2
100040e0:	d3f7      	bcc.n	100040d2 <y64_x64+0x3a>
100040e2:	1a80      	subs	r0, r0, r2
100040e4:	4199      	sbcs	r1, r3
100040e6:	3401      	adds	r4, #1
100040e8:	4299      	cmp	r1, r3
100040ea:	d3f2      	bcc.n	100040d2 <y64_x64+0x3a>
100040ec:	e7f6      	b.n	100040dc <y64_x64+0x44>
100040ee:	0000      	.short	0x0000
100040f0:	d0000000 	.word	0xd0000000
100040f4:	ffffffff 	.word	0xffffffff

100040f8 <__wrap___aeabi_drsub>:
100040f8:	4048      	eors	r0, r1
100040fa:	4041      	eors	r1, r0
100040fc:	4048      	eors	r0, r1

100040fe <__wrap___aeabi_dsub>:
100040fe:	b418      	push	{r3, r4}
10004100:	4b1b      	ldr	r3, [pc, #108]	; (10004170 <__wrap___aeabi_dmul+0x12>)
10004102:	685b      	ldr	r3, [r3, #4]
10004104:	46fc      	mov	ip, pc
10004106:	9301      	str	r3, [sp, #4]
10004108:	bd08      	pop	{r3, pc}
1000410a:	df04      	.short	0xdf04
1000410c:	10004397 	.word	0x10004397

10004110 <__wrap___aeabi_dadd>:
10004110:	b418      	push	{r3, r4}
10004112:	4b17      	ldr	r3, [pc, #92]	; (10004170 <__wrap___aeabi_dmul+0x12>)
10004114:	681b      	ldr	r3, [r3, #0]
10004116:	46fc      	mov	ip, pc
10004118:	9301      	str	r3, [sp, #4]
1000411a:	bd08      	pop	{r3, pc}
1000411c:	43a1df00 	.word	0x43a1df00
10004120:	1000      	.short	0x1000

10004122 <__wrap___aeabi_ddiv>:
10004122:	4694      	mov	ip, r2
10004124:	4a13      	ldr	r2, [pc, #76]	; (10004174 <__wrap___aeabi_dmul+0x16>)
10004126:	6f92      	ldr	r2, [r2, #120]	; 0x78
10004128:	0892      	lsrs	r2, r2, #2
1000412a:	d209      	bcs.n	10004140 <ddiv_save_state>
1000412c:	4662      	mov	r2, ip

1000412e <ddiv_shim_call>:
1000412e:	b418      	push	{r3, r4}
10004130:	4b0f      	ldr	r3, [pc, #60]	; (10004170 <__wrap___aeabi_dmul+0x12>)
10004132:	68db      	ldr	r3, [r3, #12]
10004134:	46fc      	mov	ip, pc
10004136:	9301      	str	r3, [sp, #4]
10004138:	bd08      	pop	{r3, pc}
1000413a:	df0c      	.short	0xdf0c
1000413c:	10004659 	.word	0x10004659

10004140 <ddiv_save_state>:
10004140:	4a0c      	ldr	r2, [pc, #48]	; (10004174 <__wrap___aeabi_dmul+0x16>)
10004142:	b5f0      	push	{r4, r5, r6, r7, lr}
10004144:	6e14      	ldr	r4, [r2, #96]	; 0x60
10004146:	6e55      	ldr	r5, [r2, #100]	; 0x64
10004148:	6f57      	ldr	r7, [r2, #116]	; 0x74
1000414a:	6f16      	ldr	r6, [r2, #112]	; 0x70
1000414c:	4662      	mov	r2, ip
1000414e:	f7ff ffee 	bl	1000412e <ddiv_shim_call>
10004152:	4a08      	ldr	r2, [pc, #32]	; (10004174 <__wrap___aeabi_dmul+0x16>)
10004154:	6614      	str	r4, [r2, #96]	; 0x60
10004156:	6655      	str	r5, [r2, #100]	; 0x64
10004158:	6757      	str	r7, [r2, #116]	; 0x74
1000415a:	6716      	str	r6, [r2, #112]	; 0x70
1000415c:	bdf0      	pop	{r4, r5, r6, r7, pc}

1000415e <__wrap___aeabi_dmul>:
1000415e:	b418      	push	{r3, r4}
10004160:	4b03      	ldr	r3, [pc, #12]	; (10004170 <__wrap___aeabi_dmul+0x12>)
10004162:	689b      	ldr	r3, [r3, #8]
10004164:	46fc      	mov	ip, pc
10004166:	9301      	str	r3, [sp, #4]
10004168:	bd08      	pop	{r3, pc}
1000416a:	df08      	.short	0xdf08
1000416c:	100044fd 	.word	0x100044fd
10004170:	20001fa0 	.word	0x20001fa0
10004174:	d0000000 	.word	0xd0000000

10004178 <__wrap___aeabi_cdrcmple>:
10004178:	b5ff      	push	{r0, r1, r2, r3, r4, r5, r6, r7, lr}
1000417a:	4050      	eors	r0, r2
1000417c:	4042      	eors	r2, r0
1000417e:	4050      	eors	r0, r2
10004180:	4059      	eors	r1, r3
10004182:	404b      	eors	r3, r1
10004184:	4059      	eors	r1, r3
10004186:	e000      	b.n	1000418a <__aeabi_dfcmple_guts>

10004188 <__wrap___aeabi_cdcmpeq>:
10004188:	b5ff      	push	{r0, r1, r2, r3, r4, r5, r6, r7, lr}

1000418a <__aeabi_dfcmple_guts>:
1000418a:	4f15      	ldr	r7, [pc, #84]	; (100041e0 <__aeabi_dfcmple_guts+0x56>)
1000418c:	004c      	lsls	r4, r1, #1
1000418e:	0d64      	lsrs	r4, r4, #21
10004190:	d003      	beq.n	1000419a <__aeabi_dfcmple_guts+0x10>
10004192:	42bc      	cmp	r4, r7
10004194:	d104      	bne.n	100041a0 <__aeabi_dfcmple_guts+0x16>
10004196:	030c      	lsls	r4, r1, #12
10004198:	d814      	bhi.n	100041c4 <__aeabi_dfcmple_guts+0x3a>
1000419a:	2000      	movs	r0, #0
1000419c:	0d09      	lsrs	r1, r1, #20
1000419e:	0509      	lsls	r1, r1, #20
100041a0:	005c      	lsls	r4, r3, #1
100041a2:	0d64      	lsrs	r4, r4, #21
100041a4:	d003      	beq.n	100041ae <__aeabi_dfcmple_guts+0x24>
100041a6:	42bc      	cmp	r4, r7
100041a8:	d104      	bne.n	100041b4 <__aeabi_dfcmple_guts+0x2a>
100041aa:	031c      	lsls	r4, r3, #12
100041ac:	d80a      	bhi.n	100041c4 <__aeabi_dfcmple_guts+0x3a>
100041ae:	2200      	movs	r2, #0
100041b0:	0d1b      	lsrs	r3, r3, #20
100041b2:	051b      	lsls	r3, r3, #20
100041b4:	2601      	movs	r6, #1
100041b6:	404b      	eors	r3, r1
100041b8:	d409      	bmi.n	100041ce <__aeabi_dfcmple_guts+0x44>
100041ba:	404b      	eors	r3, r1
100041bc:	d503      	bpl.n	100041c6 <__aeabi_dfcmple_guts+0x3c>
100041be:	428b      	cmp	r3, r1
100041c0:	d100      	bne.n	100041c4 <__aeabi_dfcmple_guts+0x3a>
100041c2:	4282      	cmp	r2, r0
100041c4:	bdff      	pop	{r0, r1, r2, r3, r4, r5, r6, r7, pc}
100041c6:	4299      	cmp	r1, r3
100041c8:	d1fc      	bne.n	100041c4 <__aeabi_dfcmple_guts+0x3a>
100041ca:	4290      	cmp	r0, r2
100041cc:	bdff      	pop	{r0, r1, r2, r3, r4, r5, r6, r7, pc}
100041ce:	430b      	orrs	r3, r1
100041d0:	18db      	adds	r3, r3, r3
100041d2:	4303      	orrs	r3, r0
100041d4:	4313      	orrs	r3, r2
100041d6:	d0f5      	beq.n	100041c4 <__aeabi_dfcmple_guts+0x3a>
100041d8:	43c9      	mvns	r1, r1
100041da:	1849      	adds	r1, r1, r1
100041dc:	bdff      	pop	{r0, r1, r2, r3, r4, r5, r6, r7, pc}
100041de:	0000      	.short	0x0000
100041e0:	000007ff 	.word	0x000007ff

100041e4 <__wrap___aeabi_dcmplt>:
100041e4:	b500      	push	{lr}
100041e6:	f7ff ffcf 	bl	10004188 <__wrap___aeabi_cdcmpeq>
100041ea:	4180      	sbcs	r0, r0
100041ec:	bd00      	pop	{pc}
100041ee:	46c0      	nop			; (mov r8, r8)

100041f0 <__wrap___aeabi_dcmple>:
100041f0:	b500      	push	{lr}
100041f2:	f7ff ffc9 	bl	10004188 <__wrap___aeabi_cdcmpeq>
100041f6:	d901      	bls.n	100041fc <__wrap___aeabi_dcmple+0xc>
100041f8:	2000      	movs	r0, #0
100041fa:	bd00      	pop	{pc}
100041fc:	2001      	movs	r0, #1
100041fe:	bd00      	pop	{pc}

10004200 <__wrap___aeabi_dcmpge>:
10004200:	b500      	push	{lr}
10004202:	f7ff ffb9 	bl	10004178 <__wrap___aeabi_cdrcmple>
10004206:	d901      	bls.n	1000420c <__wrap___aeabi_dcmpge+0xc>
10004208:	2000      	movs	r0, #0
1000420a:	bd00      	pop	{pc}
1000420c:	2001      	movs	r0, #1
1000420e:	bd00      	pop	{pc}

10004210 <__wrap___aeabi_dcmpgt>:
10004210:	b500      	push	{lr}
10004212:	f7ff ffb1 	bl	10004178 <__wrap___aeabi_cdrcmple>
10004216:	4180      	sbcs	r0, r0
10004218:	bd00      	pop	{pc}

1000421a <__wrap___aeabi_dcmpun>:
1000421a:	2001      	movs	r0, #1
1000421c:	0540      	lsls	r0, r0, #21
1000421e:	004a      	lsls	r2, r1, #1
10004220:	1812      	adds	r2, r2, r0
10004222:	d804      	bhi.n	1000422e <__wrap___aeabi_dcmpun+0x14>
10004224:	005a      	lsls	r2, r3, #1
10004226:	1812      	adds	r2, r2, r0
10004228:	d801      	bhi.n	1000422e <__wrap___aeabi_dcmpun+0x14>
1000422a:	2000      	movs	r0, #0
1000422c:	4770      	bx	lr
1000422e:	2001      	movs	r0, #1
10004230:	4770      	bx	lr
10004232:	2000      	movs	r0, #0
10004234:	4770      	bx	lr
	...

10004238 <__wrap___aeabi_ui2d>:
10004238:	2100      	movs	r1, #0
1000423a:	2800      	cmp	r0, #0
1000423c:	d105      	bne.n	1000424a <__wrap___aeabi_i2d+0xa>
1000423e:	4770      	bx	lr

10004240 <__wrap___aeabi_i2d>:
10004240:	17c1      	asrs	r1, r0, #31
10004242:	4048      	eors	r0, r1
10004244:	1a40      	subs	r0, r0, r1
10004246:	d0fa      	beq.n	1000423e <__wrap___aeabi_ui2d+0x6>
10004248:	07c9      	lsls	r1, r1, #31
1000424a:	b513      	push	{r0, r1, r4, lr}
1000424c:	4b06      	ldr	r3, [pc, #24]	; (10004268 <__wrap___aeabi_i2d+0x28>)
1000424e:	681b      	ldr	r3, [r3, #0]
10004250:	4798      	blx	r3
10004252:	bc0c      	pop	{r2, r3}
10004254:	1c44      	adds	r4, r0, #1
10004256:	40a2      	lsls	r2, r4
10004258:	0510      	lsls	r0, r2, #20
1000425a:	0b12      	lsrs	r2, r2, #12
1000425c:	4903      	ldr	r1, [pc, #12]	; (1000426c <__wrap___aeabi_i2d+0x2c>)
1000425e:	1b09      	subs	r1, r1, r4
10004260:	0509      	lsls	r1, r1, #20
10004262:	4319      	orrs	r1, r3
10004264:	4311      	orrs	r1, r2
10004266:	bd10      	pop	{r4, pc}
10004268:	20002bf8 	.word	0x20002bf8
1000426c:	0000041f 	.word	0x0000041f

10004270 <__wrap___aeabi_d2iz>:
10004270:	b510      	push	{r4, lr}
10004272:	004c      	lsls	r4, r1, #1
10004274:	0d62      	lsrs	r2, r4, #21
10004276:	2380      	movs	r3, #128	; 0x80
10004278:	18d2      	adds	r2, r2, r3
1000427a:	00db      	lsls	r3, r3, #3
1000427c:	1ad2      	subs	r2, r2, r3
1000427e:	055b      	lsls	r3, r3, #21
10004280:	2a7e      	cmp	r2, #126	; 0x7e
10004282:	dd10      	ble.n	100042a6 <__wrap___aeabi_d2iz+0x36>
10004284:	3a9e      	subs	r2, #158	; 0x9e
10004286:	da13      	bge.n	100042b0 <__wrap___aeabi_d2iz+0x40>
10004288:	17cc      	asrs	r4, r1, #31
1000428a:	0309      	lsls	r1, r1, #12
1000428c:	0849      	lsrs	r1, r1, #1
1000428e:	4319      	orrs	r1, r3
10004290:	4252      	negs	r2, r2
10004292:	40d1      	lsrs	r1, r2
10004294:	0064      	lsls	r4, r4, #1
10004296:	3401      	adds	r4, #1
10004298:	3215      	adds	r2, #21
1000429a:	2a20      	cmp	r2, #32
1000429c:	da05      	bge.n	100042aa <__wrap___aeabi_d2iz+0x3a>
1000429e:	40d0      	lsrs	r0, r2
100042a0:	4308      	orrs	r0, r1
100042a2:	4360      	muls	r0, r4
100042a4:	bd10      	pop	{r4, pc}
100042a6:	2000      	movs	r0, #0
100042a8:	bd10      	pop	{r4, pc}
100042aa:	4608      	mov	r0, r1
100042ac:	4360      	muls	r0, r4
100042ae:	bd10      	pop	{r4, pc}
100042b0:	0fc8      	lsrs	r0, r1, #31
100042b2:	18c0      	adds	r0, r0, r3
100042b4:	3801      	subs	r0, #1
100042b6:	bd10      	pop	{r4, pc}

100042b8 <__wrap___aeabi_d2uiz>:
100042b8:	b418      	push	{r3, r4}
100042ba:	4b04      	ldr	r3, [pc, #16]	; (100042cc <__wrap___aeabi_d2uiz+0x14>)
100042bc:	6a5b      	ldr	r3, [r3, #36]	; 0x24
100042be:	46fc      	mov	ip, pc
100042c0:	9301      	str	r3, [sp, #4]
100042c2:	bd08      	pop	{r3, pc}
100042c4:	4809df24 	.word	0x4809df24
100042c8:	00001000 	.word	0x00001000
100042cc:	20001fa0 	.word	0x20001fa0

100042d0 <__aeabi_double_init>:
100042d0:	2313      	movs	r3, #19
100042d2:	b570      	push	{r4, r5, r6, lr}
100042d4:	781d      	ldrb	r5, [r3, #0]
100042d6:	2d01      	cmp	r5, #1
100042d8:	d015      	beq.n	10004306 <__aeabi_double_init+0x36>
100042da:	dd10      	ble.n	100042fe <__aeabi_double_init+0x2e>
100042dc:	481c      	ldr	r0, [pc, #112]	; (10004350 <__aeabi_double_init+0x80>)
100042de:	f7ff fc79 	bl	10003bd4 <rom_data_lookup>
100042e2:	4c1c      	ldr	r4, [pc, #112]	; (10004354 <__aeabi_double_init+0x84>)
100042e4:	0001      	movs	r1, r0
100042e6:	2280      	movs	r2, #128	; 0x80
100042e8:	0020      	movs	r0, r4
100042ea:	f000 fb5b 	bl	100049a4 <__wrap___aeabi_memcpy>
100042ee:	2d02      	cmp	r5, #2
100042f0:	d006      	beq.n	10004300 <__aeabi_double_init+0x30>
100042f2:	4819      	ldr	r0, [pc, #100]	; (10004358 <__aeabi_double_init+0x88>)
100042f4:	f7ff fc66 	bl	10003bc4 <rom_func_lookup>
100042f8:	4b18      	ldr	r3, [pc, #96]	; (1000435c <__aeabi_double_init+0x8c>)
100042fa:	6018      	str	r0, [r3, #0]
100042fc:	bd70      	pop	{r4, r5, r6, pc}
100042fe:	4c15      	ldr	r4, [pc, #84]	; (10004354 <__aeabi_double_init+0x84>)
10004300:	4b17      	ldr	r3, [pc, #92]	; (10004360 <__aeabi_double_init+0x90>)
10004302:	64a3      	str	r3, [r4, #72]	; 0x48
10004304:	e7f5      	b.n	100042f2 <__aeabi_double_init+0x22>
10004306:	4b16      	ldr	r3, [pc, #88]	; (10004360 <__aeabi_double_init+0x90>)
10004308:	4c12      	ldr	r4, [pc, #72]	; (10004354 <__aeabi_double_init+0x84>)
1000430a:	6023      	str	r3, [r4, #0]
1000430c:	6063      	str	r3, [r4, #4]
1000430e:	60a3      	str	r3, [r4, #8]
10004310:	60e3      	str	r3, [r4, #12]
10004312:	6123      	str	r3, [r4, #16]
10004314:	6163      	str	r3, [r4, #20]
10004316:	61a3      	str	r3, [r4, #24]
10004318:	61e3      	str	r3, [r4, #28]
1000431a:	6223      	str	r3, [r4, #32]
1000431c:	6263      	str	r3, [r4, #36]	; 0x24
1000431e:	62a3      	str	r3, [r4, #40]	; 0x28
10004320:	62e3      	str	r3, [r4, #44]	; 0x2c
10004322:	6323      	str	r3, [r4, #48]	; 0x30
10004324:	6363      	str	r3, [r4, #52]	; 0x34
10004326:	63a3      	str	r3, [r4, #56]	; 0x38
10004328:	63e3      	str	r3, [r4, #60]	; 0x3c
1000432a:	6423      	str	r3, [r4, #64]	; 0x40
1000432c:	6463      	str	r3, [r4, #68]	; 0x44
1000432e:	64a3      	str	r3, [r4, #72]	; 0x48
10004330:	64e3      	str	r3, [r4, #76]	; 0x4c
10004332:	6523      	str	r3, [r4, #80]	; 0x50
10004334:	6563      	str	r3, [r4, #84]	; 0x54
10004336:	65a3      	str	r3, [r4, #88]	; 0x58
10004338:	65e3      	str	r3, [r4, #92]	; 0x5c
1000433a:	6623      	str	r3, [r4, #96]	; 0x60
1000433c:	6663      	str	r3, [r4, #100]	; 0x64
1000433e:	66a3      	str	r3, [r4, #104]	; 0x68
10004340:	66e3      	str	r3, [r4, #108]	; 0x6c
10004342:	6723      	str	r3, [r4, #112]	; 0x70
10004344:	6763      	str	r3, [r4, #116]	; 0x74
10004346:	67a3      	str	r3, [r4, #120]	; 0x78
10004348:	67e3      	str	r3, [r4, #124]	; 0x7c
1000434a:	64a3      	str	r3, [r4, #72]	; 0x48
1000434c:	e7d1      	b.n	100042f2 <__aeabi_double_init+0x22>
1000434e:	46c0      	nop			; (mov r8, r8)
10004350:	00004453 	.word	0x00004453
10004354:	20001fa0 	.word	0x20001fa0
10004358:	0000334c 	.word	0x0000334c
1000435c:	20002bf8 	.word	0x20002bf8
10004360:	10004365 	.word	0x10004365

10004364 <double_table_shim_on_use_helper>:
10004364:	b507      	push	{r0, r1, r2, lr}
10004366:	4660      	mov	r0, ip
10004368:	8801      	ldrh	r1, [r0, #0]
1000436a:	0a0a      	lsrs	r2, r1, #8
1000436c:	3002      	adds	r0, #2
1000436e:	2adf      	cmp	r2, #223	; 0xdf
10004370:	d1fa      	bne.n	10004368 <double_table_shim_on_use_helper+0x4>
10004372:	b2c9      	uxtb	r1, r1
10004374:	0882      	lsrs	r2, r0, #2
10004376:	d304      	bcc.n	10004382 <double_table_shim_on_use_helper+0x1e>
10004378:	8802      	ldrh	r2, [r0, #0]
1000437a:	8840      	ldrh	r0, [r0, #2]
1000437c:	0400      	lsls	r0, r0, #16
1000437e:	4310      	orrs	r0, r2
10004380:	e000      	b.n	10004384 <double_table_shim_on_use_helper+0x20>
10004382:	6800      	ldr	r0, [r0, #0]
10004384:	4a01      	ldr	r2, [pc, #4]	; (1000438c <double_table_shim_on_use_helper+0x28>)
10004386:	5050      	str	r0, [r2, r1]
10004388:	9003      	str	r0, [sp, #12]
1000438a:	bd07      	pop	{r0, r1, r2, pc}
1000438c:	20001fa0 	.word	0x20001fa0

10004390 <drsub_shim>:
10004390:	b40f      	push	{r0, r1, r2, r3}
10004392:	bc03      	pop	{r0, r1}
10004394:	bc0c      	pop	{r2, r3}

10004396 <dsub_shim>:
10004396:	b5f0      	push	{r4, r5, r6, r7, lr}
10004398:	2401      	movs	r4, #1
1000439a:	07e4      	lsls	r4, r4, #31
1000439c:	4063      	eors	r3, r4
1000439e:	e000      	b.n	100043a2 <da_entry>

100043a0 <dadd_shim>:
100043a0:	b5f0      	push	{r4, r5, r6, r7, lr}

100043a2 <da_entry>:
100043a2:	0d0c      	lsrs	r4, r1, #20
100043a4:	0fcf      	lsrs	r7, r1, #31
100043a6:	1e66      	subs	r6, r4, #1
100043a8:	0536      	lsls	r6, r6, #20
100043aa:	1b89      	subs	r1, r1, r6
100043ac:	0564      	lsls	r4, r4, #21
100043ae:	d303      	bcc.n	100043b8 <l7_1>
100043b0:	43c9      	mvns	r1, r1
100043b2:	4240      	negs	r0, r0
100043b4:	d300      	bcc.n	100043b8 <l7_1>
100043b6:	3101      	adds	r1, #1

100043b8 <l7_1>:
100043b8:	0d64      	lsrs	r4, r4, #21
100043ba:	d003      	beq.n	100043c4 <l7_2>
100043bc:	1c66      	adds	r6, r4, #1
100043be:	0af6      	lsrs	r6, r6, #11
100043c0:	d007      	beq.n	100043d2 <l7_3>
100043c2:	1be4      	subs	r4, r4, r7

100043c4 <l7_2>:
100043c4:	2000      	movs	r0, #0
100043c6:	007f      	lsls	r7, r7, #1
100043c8:	1c79      	adds	r1, r7, #1
100043ca:	0789      	lsls	r1, r1, #30
100043cc:	1289      	asrs	r1, r1, #10
100043ce:	3c80      	subs	r4, #128	; 0x80
100043d0:	0324      	lsls	r4, r4, #12

100043d2 <l7_3>:
100043d2:	0d1d      	lsrs	r5, r3, #20
100043d4:	0fdf      	lsrs	r7, r3, #31
100043d6:	1e6e      	subs	r6, r5, #1
100043d8:	0536      	lsls	r6, r6, #20
100043da:	1b9b      	subs	r3, r3, r6
100043dc:	056d      	lsls	r5, r5, #21
100043de:	d303      	bcc.n	100043e8 <l8_1>
100043e0:	43db      	mvns	r3, r3
100043e2:	4252      	negs	r2, r2
100043e4:	d300      	bcc.n	100043e8 <l8_1>
100043e6:	3301      	adds	r3, #1

100043e8 <l8_1>:
100043e8:	0d6d      	lsrs	r5, r5, #21
100043ea:	d003      	beq.n	100043f4 <l8_2>
100043ec:	1c6e      	adds	r6, r5, #1
100043ee:	0af6      	lsrs	r6, r6, #11
100043f0:	d007      	beq.n	10004402 <l8_3>
100043f2:	1bed      	subs	r5, r5, r7

100043f4 <l8_2>:
100043f4:	2200      	movs	r2, #0
100043f6:	007f      	lsls	r7, r7, #1
100043f8:	1c7b      	adds	r3, r7, #1
100043fa:	079b      	lsls	r3, r3, #30
100043fc:	129b      	asrs	r3, r3, #10
100043fe:	3d80      	subs	r5, #128	; 0x80
10004400:	032d      	lsls	r5, r5, #12

10004402 <l8_3>:
10004402:	1b2f      	subs	r7, r5, r4
10004404:	1b66      	subs	r6, r4, r5
10004406:	d458      	bmi.n	100044ba <da_ygtx>
10004408:	46a4      	mov	ip, r4
1000440a:	2e20      	cmp	r6, #32
1000440c:	da46      	bge.n	1000449c <da_xrgty>
1000440e:	3720      	adds	r7, #32
10004410:	0014      	movs	r4, r2
10004412:	40bc      	lsls	r4, r7

10004414 <da_xgty0>:
10004414:	001d      	movs	r5, r3
10004416:	40bd      	lsls	r5, r7
10004418:	40f2      	lsrs	r2, r6
1000441a:	4133      	asrs	r3, r6
1000441c:	432a      	orrs	r2, r5

1000441e <da_add>:
1000441e:	1880      	adds	r0, r0, r2
10004420:	4159      	adcs	r1, r3

10004422 <da_pack>:
10004422:	0fcb      	lsrs	r3, r1, #31
10004424:	d005      	beq.n	10004432 <da_pack+0x10>
10004426:	43c9      	mvns	r1, r1
10004428:	43c0      	mvns	r0, r0
1000442a:	2200      	movs	r2, #0
1000442c:	4264      	negs	r4, r4
1000442e:	4150      	adcs	r0, r2
10004430:	4151      	adcs	r1, r2
10004432:	4662      	mov	r2, ip
10004434:	0d4d      	lsrs	r5, r1, #21
10004436:	d128      	bne.n	1000448a <da_0>
10004438:	0d0d      	lsrs	r5, r1, #20
1000443a:	d107      	bne.n	1000444c <da_1>
1000443c:	2800      	cmp	r0, #0
1000443e:	d01f      	beq.n	10004480 <da_5>

10004440 <da_2>:
10004440:	1924      	adds	r4, r4, r4
10004442:	4140      	adcs	r0, r0
10004444:	4149      	adcs	r1, r1
10004446:	3a01      	subs	r2, #1
10004448:	0d0d      	lsrs	r5, r1, #20
1000444a:	d0f9      	beq.n	10004440 <da_2>

1000444c <da_1>:
1000444c:	0064      	lsls	r4, r4, #1
1000444e:	d306      	bcc.n	1000445e <da_3>

10004450 <da_4>:
10004450:	3001      	adds	r0, #1
10004452:	d300      	bcc.n	10004456 <da_4+0x6>
10004454:	3101      	adds	r1, #1
10004456:	2c00      	cmp	r4, #0
10004458:	d101      	bne.n	1000445e <da_3>
1000445a:	0840      	lsrs	r0, r0, #1
1000445c:	0040      	lsls	r0, r0, #1

1000445e <da_3>:
1000445e:	3a01      	subs	r2, #1
10004460:	d40b      	bmi.n	1000447a <da_6>
10004462:	1c94      	adds	r4, r2, #2
10004464:	0ae4      	lsrs	r4, r4, #11
10004466:	d104      	bne.n	10004472 <da_7>
10004468:	0512      	lsls	r2, r2, #20
1000446a:	4411      	add	r1, r2
1000446c:	07db      	lsls	r3, r3, #31
1000446e:	4419      	add	r1, r3
10004470:	bdf0      	pop	{r4, r5, r6, r7, pc}

10004472 <da_7>:
10004472:	07d9      	lsls	r1, r3, #31
10004474:	4b20      	ldr	r3, [pc, #128]	; (100044f8 <da_xmgty+0x4>)
10004476:	4319      	orrs	r1, r3
10004478:	e000      	b.n	1000447c <da_6+0x2>

1000447a <da_6>:
1000447a:	07d9      	lsls	r1, r3, #31
1000447c:	2000      	movs	r0, #0
1000447e:	bdf0      	pop	{r4, r5, r6, r7, pc}

10004480 <da_5>:
10004480:	2900      	cmp	r1, #0
10004482:	d1dd      	bne.n	10004440 <da_2>
10004484:	2c00      	cmp	r4, #0
10004486:	d1db      	bne.n	10004440 <da_2>
10004488:	bdf0      	pop	{r4, r5, r6, r7, pc}

1000448a <da_0>:
1000448a:	3201      	adds	r2, #1
1000448c:	07c6      	lsls	r6, r0, #31
1000448e:	0840      	lsrs	r0, r0, #1
10004490:	07cd      	lsls	r5, r1, #31
10004492:	4328      	orrs	r0, r5
10004494:	0849      	lsrs	r1, r1, #1
10004496:	2e00      	cmp	r6, #0
10004498:	d0e1      	beq.n	1000445e <da_3>
1000449a:	e7d9      	b.n	10004450 <da_4>

1000449c <da_xrgty>:
1000449c:	2e3c      	cmp	r6, #60	; 0x3c
1000449e:	da29      	bge.n	100044f4 <da_xmgty>
100044a0:	3e20      	subs	r6, #32
100044a2:	3740      	adds	r7, #64	; 0x40
100044a4:	0014      	movs	r4, r2
100044a6:	40bc      	lsls	r4, r7
100044a8:	d000      	beq.n	100044ac <da_xrgty+0x10>
100044aa:	2401      	movs	r4, #1
100044ac:	40f2      	lsrs	r2, r6
100044ae:	4314      	orrs	r4, r2
100044b0:	001a      	movs	r2, r3
100044b2:	40bb      	lsls	r3, r7
100044b4:	431c      	orrs	r4, r3
100044b6:	17d3      	asrs	r3, r2, #31
100044b8:	e7ac      	b.n	10004414 <da_xgty0>

100044ba <da_ygtx>:
100044ba:	46ac      	mov	ip, r5
100044bc:	2f20      	cmp	r7, #32
100044be:	da08      	bge.n	100044d2 <da_yrgtx>
100044c0:	3620      	adds	r6, #32
100044c2:	0004      	movs	r4, r0
100044c4:	40b4      	lsls	r4, r6

100044c6 <da_ygtx0>:
100044c6:	000d      	movs	r5, r1
100044c8:	40b5      	lsls	r5, r6
100044ca:	40f8      	lsrs	r0, r7
100044cc:	4139      	asrs	r1, r7
100044ce:	4328      	orrs	r0, r5
100044d0:	e7a5      	b.n	1000441e <da_add>

100044d2 <da_yrgtx>:
100044d2:	2f3c      	cmp	r7, #60	; 0x3c
100044d4:	da0c      	bge.n	100044f0 <da_ymgtx>
100044d6:	3f20      	subs	r7, #32
100044d8:	3640      	adds	r6, #64	; 0x40
100044da:	0004      	movs	r4, r0
100044dc:	40b4      	lsls	r4, r6
100044de:	d000      	beq.n	100044e2 <da_yrgtx+0x10>
100044e0:	2401      	movs	r4, #1
100044e2:	40f8      	lsrs	r0, r7
100044e4:	4304      	orrs	r4, r0
100044e6:	0008      	movs	r0, r1
100044e8:	40b1      	lsls	r1, r6
100044ea:	430c      	orrs	r4, r1
100044ec:	17c1      	asrs	r1, r0, #31
100044ee:	e7ea      	b.n	100044c6 <da_ygtx0>

100044f0 <da_ymgtx>:
100044f0:	0010      	movs	r0, r2
100044f2:	0019      	movs	r1, r3

100044f4 <da_xmgty>:
100044f4:	2400      	movs	r4, #0
100044f6:	e794      	b.n	10004422 <da_pack>
100044f8:	7ff00000 	.word	0x7ff00000

100044fc <dmul_shim>:
100044fc:	b5f0      	push	{r4, r5, r6, r7, lr}
100044fe:	0d0c      	lsrs	r4, r1, #20
10004500:	1e66      	subs	r6, r4, #1
10004502:	0536      	lsls	r6, r6, #20
10004504:	1b89      	subs	r1, r1, r6
10004506:	0ae6      	lsrs	r6, r4, #11
10004508:	0564      	lsls	r4, r4, #21
1000450a:	0d64      	lsrs	r4, r4, #21
1000450c:	d002      	beq.n	10004514 <l11_1>
1000450e:	1c65      	adds	r5, r4, #1
10004510:	0aed      	lsrs	r5, r5, #11
10004512:	d004      	beq.n	1000451e <l11_2>

10004514 <l11_1>:
10004514:	2000      	movs	r0, #0
10004516:	2101      	movs	r1, #1
10004518:	0509      	lsls	r1, r1, #20
1000451a:	3c80      	subs	r4, #128	; 0x80
1000451c:	0324      	lsls	r4, r4, #12

1000451e <l11_2>:
1000451e:	46a4      	mov	ip, r4
10004520:	0d1c      	lsrs	r4, r3, #20
10004522:	1e67      	subs	r7, r4, #1
10004524:	053f      	lsls	r7, r7, #20
10004526:	1bdb      	subs	r3, r3, r7
10004528:	0ae7      	lsrs	r7, r4, #11
1000452a:	0564      	lsls	r4, r4, #21
1000452c:	0d64      	lsrs	r4, r4, #21
1000452e:	d002      	beq.n	10004536 <l12_1>
10004530:	1c65      	adds	r5, r4, #1
10004532:	0aed      	lsrs	r5, r5, #11
10004534:	d004      	beq.n	10004540 <l12_2>

10004536 <l12_1>:
10004536:	2200      	movs	r2, #0
10004538:	2301      	movs	r3, #1
1000453a:	051b      	lsls	r3, r3, #20
1000453c:	3c80      	subs	r4, #128	; 0x80
1000453e:	0324      	lsls	r4, r4, #12

10004540 <l12_2>:
10004540:	4077      	eors	r7, r6
10004542:	4464      	add	r4, ip
10004544:	b497      	push	{r0, r1, r2, r4, r7}
10004546:	b284      	uxth	r4, r0
10004548:	b296      	uxth	r6, r2
1000454a:	4374      	muls	r4, r6
1000454c:	0c07      	lsrs	r7, r0, #16
1000454e:	437e      	muls	r6, r7
10004550:	0c15      	lsrs	r5, r2, #16
10004552:	436f      	muls	r7, r5
10004554:	b280      	uxth	r0, r0
10004556:	4368      	muls	r0, r5
10004558:	1836      	adds	r6, r6, r0
1000455a:	d302      	bcc.n	10004562 <l13_1>
1000455c:	2001      	movs	r0, #1
1000455e:	0400      	lsls	r0, r0, #16
10004560:	183f      	adds	r7, r7, r0

10004562 <l13_1>:
10004562:	0430      	lsls	r0, r6, #16
10004564:	0c35      	lsrs	r5, r6, #16
10004566:	1900      	adds	r0, r0, r4
10004568:	417d      	adcs	r5, r7
1000456a:	4684      	mov	ip, r0
1000456c:	b288      	uxth	r0, r1
1000456e:	b29a      	uxth	r2, r3
10004570:	4350      	muls	r0, r2
10004572:	0c0c      	lsrs	r4, r1, #16
10004574:	4362      	muls	r2, r4
10004576:	0c1f      	lsrs	r7, r3, #16
10004578:	437c      	muls	r4, r7
1000457a:	b28e      	uxth	r6, r1
1000457c:	437e      	muls	r6, r7
1000457e:	1992      	adds	r2, r2, r6
10004580:	d302      	bcc.n	10004588 <l14_1>
10004582:	2601      	movs	r6, #1
10004584:	0436      	lsls	r6, r6, #16
10004586:	19a4      	adds	r4, r4, r6

10004588 <l14_1>:
10004588:	0416      	lsls	r6, r2, #16
1000458a:	0c17      	lsrs	r7, r2, #16
1000458c:	1836      	adds	r6, r6, r0
1000458e:	4167      	adcs	r7, r4
10004590:	bc01      	pop	{r0}
10004592:	b281      	uxth	r1, r0
10004594:	b29a      	uxth	r2, r3
10004596:	4351      	muls	r1, r2
10004598:	0c04      	lsrs	r4, r0, #16
1000459a:	4362      	muls	r2, r4
1000459c:	0c1b      	lsrs	r3, r3, #16
1000459e:	435c      	muls	r4, r3
100045a0:	b280      	uxth	r0, r0
100045a2:	4358      	muls	r0, r3
100045a4:	1812      	adds	r2, r2, r0
100045a6:	d302      	bcc.n	100045ae <l15_1>
100045a8:	2001      	movs	r0, #1
100045aa:	0400      	lsls	r0, r0, #16
100045ac:	1824      	adds	r4, r4, r0

100045ae <l15_1>:
100045ae:	0410      	lsls	r0, r2, #16
100045b0:	0c13      	lsrs	r3, r2, #16
100045b2:	1840      	adds	r0, r0, r1
100045b4:	4163      	adcs	r3, r4
100045b6:	182d      	adds	r5, r5, r0
100045b8:	415e      	adcs	r6, r3
100045ba:	2000      	movs	r0, #0
100045bc:	4147      	adcs	r7, r0
100045be:	bc06      	pop	{r1, r2}
100045c0:	b288      	uxth	r0, r1
100045c2:	b293      	uxth	r3, r2
100045c4:	4358      	muls	r0, r3
100045c6:	0c0c      	lsrs	r4, r1, #16
100045c8:	4363      	muls	r3, r4
100045ca:	0c12      	lsrs	r2, r2, #16
100045cc:	4354      	muls	r4, r2
100045ce:	b289      	uxth	r1, r1
100045d0:	4351      	muls	r1, r2
100045d2:	185b      	adds	r3, r3, r1
100045d4:	d302      	bcc.n	100045dc <l16_1>
100045d6:	2101      	movs	r1, #1
100045d8:	0409      	lsls	r1, r1, #16
100045da:	1864      	adds	r4, r4, r1

100045dc <l16_1>:
100045dc:	0419      	lsls	r1, r3, #16
100045de:	0c1a      	lsrs	r2, r3, #16
100045e0:	1809      	adds	r1, r1, r0
100045e2:	4162      	adcs	r2, r4
100045e4:	186d      	adds	r5, r5, r1
100045e6:	4156      	adcs	r6, r2
100045e8:	2000      	movs	r0, #0
100045ea:	4147      	adcs	r7, r0
100045ec:	bc18      	pop	{r3, r4}
100045ee:	02f9      	lsls	r1, r7, #11
100045f0:	0d72      	lsrs	r2, r6, #21
100045f2:	4311      	orrs	r1, r2
100045f4:	02f0      	lsls	r0, r6, #11
100045f6:	0d6a      	lsrs	r2, r5, #21
100045f8:	4310      	orrs	r0, r2
100045fa:	02ed      	lsls	r5, r5, #11
100045fc:	0d0a      	lsrs	r2, r1, #20
100045fe:	d103      	bne.n	10004608 <l16_1+0x2c>
10004600:	196d      	adds	r5, r5, r5
10004602:	4140      	adcs	r0, r0
10004604:	4149      	adcs	r1, r1
10004606:	3b01      	subs	r3, #1
10004608:	4e12      	ldr	r6, [pc, #72]	; (10004654 <dm_1+0xa>)
1000460a:	1b9b      	subs	r3, r3, r6
1000460c:	0076      	lsls	r6, r6, #1
1000460e:	42b3      	cmp	r3, r6
10004610:	d20e      	bcs.n	10004630 <dm_0>
10004612:	006d      	lsls	r5, r5, #1
10004614:	d307      	bcc.n	10004626 <l16_1+0x4a>
10004616:	3001      	adds	r0, #1
10004618:	2600      	movs	r6, #0
1000461a:	4171      	adcs	r1, r6
1000461c:	4666      	mov	r6, ip
1000461e:	4335      	orrs	r5, r6
10004620:	d101      	bne.n	10004626 <l16_1+0x4a>
10004622:	0840      	lsrs	r0, r0, #1
10004624:	0040      	lsls	r0, r0, #1
10004626:	051b      	lsls	r3, r3, #20
10004628:	18c9      	adds	r1, r1, r3

1000462a <dm_2>:
1000462a:	07e4      	lsls	r4, r4, #31
1000462c:	4421      	add	r1, r4
1000462e:	bdf0      	pop	{r4, r5, r6, r7, pc}

10004630 <dm_0>:
10004630:	da0b      	bge.n	1000464a <dm_1>
10004632:	3301      	adds	r3, #1
10004634:	d106      	bne.n	10004644 <dm_0+0x14>
10004636:	3001      	adds	r0, #1
10004638:	d104      	bne.n	10004644 <dm_0+0x14>
1000463a:	3101      	adds	r1, #1
1000463c:	0d4f      	lsrs	r7, r1, #21
1000463e:	d001      	beq.n	10004644 <dm_0+0x14>
10004640:	0849      	lsrs	r1, r1, #1
10004642:	e7f2      	b.n	1000462a <dm_2>
10004644:	07e1      	lsls	r1, r4, #31
10004646:	2000      	movs	r0, #0
10004648:	bdf0      	pop	{r4, r5, r6, r7, pc}

1000464a <dm_1>:
1000464a:	3601      	adds	r6, #1
1000464c:	0531      	lsls	r1, r6, #20
1000464e:	2000      	movs	r0, #0
10004650:	e7eb      	b.n	1000462a <dm_2>
10004652:	0000      	.short	0x0000
10004654:	000003ff 	.word	0x000003ff

10004658 <ddiv_shim>:
10004658:	b5f0      	push	{r4, r5, r6, r7, lr}

1000465a <ddiv0>:
1000465a:	0d1c      	lsrs	r4, r3, #20
1000465c:	1e67      	subs	r7, r4, #1
1000465e:	053f      	lsls	r7, r7, #20
10004660:	1bdb      	subs	r3, r3, r7
10004662:	0ae7      	lsrs	r7, r4, #11
10004664:	0564      	lsls	r4, r4, #21
10004666:	0d64      	lsrs	r4, r4, #21
10004668:	d002      	beq.n	10004670 <l19_1>
1000466a:	1c66      	adds	r6, r4, #1
1000466c:	0af6      	lsrs	r6, r6, #11
1000466e:	d004      	beq.n	1000467a <l19_2>

10004670 <l19_1>:
10004670:	2200      	movs	r2, #0
10004672:	2301      	movs	r3, #1
10004674:	051b      	lsls	r3, r3, #20
10004676:	3c80      	subs	r4, #128	; 0x80
10004678:	0324      	lsls	r4, r4, #12

1000467a <l19_2>:
1000467a:	25d0      	movs	r5, #208	; 0xd0
1000467c:	062d      	lsls	r5, r5, #24
1000467e:	2600      	movs	r6, #0
10004680:	43f6      	mvns	r6, r6
10004682:	662e      	str	r6, [r5, #96]	; 0x60
10004684:	091e      	lsrs	r6, r3, #4
10004686:	666e      	str	r6, [r5, #100]	; 0x64
10004688:	0fce      	lsrs	r6, r1, #31
1000468a:	19f6      	adds	r6, r6, r7
1000468c:	46b4      	mov	ip, r6
1000468e:	0049      	lsls	r1, r1, #1
10004690:	0d4f      	lsrs	r7, r1, #21
10004692:	d002      	beq.n	1000469a <l19_2+0x20>
10004694:	1c7e      	adds	r6, r7, #1
10004696:	0af6      	lsrs	r6, r6, #11
10004698:	d003      	beq.n	100046a2 <l19_2+0x28>
1000469a:	2000      	movs	r0, #0
1000469c:	2100      	movs	r1, #0
1000469e:	3f40      	subs	r7, #64	; 0x40
100046a0:	033f      	lsls	r7, r7, #12
100046a2:	1b3e      	subs	r6, r7, r4
100046a4:	00b6      	lsls	r6, r6, #2
100046a6:	44b4      	add	ip, r6
100046a8:	3f01      	subs	r7, #1
100046aa:	057f      	lsls	r7, r7, #21
100046ac:	1bc9      	subs	r1, r1, r7
100046ae:	0849      	lsrs	r1, r1, #1
100046b0:	6f2e      	ldr	r6, [r5, #112]	; 0x70
100046b2:	3601      	adds	r6, #1
100046b4:	0876      	lsrs	r6, r6, #1
100046b6:	029c      	lsls	r4, r3, #10
100046b8:	0d95      	lsrs	r5, r2, #22
100046ba:	4325      	orrs	r5, r4
100046bc:	4375      	muls	r5, r6
100046be:	13ed      	asrs	r5, r5, #15
100046c0:	4375      	muls	r5, r6
100046c2:	13ad      	asrs	r5, r5, #14
100046c4:	3501      	adds	r5, #1
100046c6:	106d      	asrs	r5, r5, #1
100046c8:	03f6      	lsls	r6, r6, #15
100046ca:	1b76      	subs	r6, r6, r5
100046cc:	b40c      	push	{r2, r3}
100046ce:	02cc      	lsls	r4, r1, #11
100046d0:	0d45      	lsrs	r5, r0, #21
100046d2:	432c      	orrs	r4, r5
100046d4:	b2a2      	uxth	r2, r4
100046d6:	b2b3      	uxth	r3, r6
100046d8:	435a      	muls	r2, r3
100046da:	0c27      	lsrs	r7, r4, #16
100046dc:	437b      	muls	r3, r7
100046de:	0c35      	lsrs	r5, r6, #16
100046e0:	436f      	muls	r7, r5
100046e2:	b2a4      	uxth	r4, r4
100046e4:	436c      	muls	r4, r5
100046e6:	191b      	adds	r3, r3, r4
100046e8:	d302      	bcc.n	100046f0 <l20_1>
100046ea:	2401      	movs	r4, #1
100046ec:	0424      	lsls	r4, r4, #16
100046ee:	193f      	adds	r7, r7, r4

100046f0 <l20_1>:
100046f0:	041c      	lsls	r4, r3, #16
100046f2:	0c1d      	lsrs	r5, r3, #16
100046f4:	18a4      	adds	r4, r4, r2
100046f6:	417d      	adcs	r5, r7
100046f8:	1924      	adds	r4, r4, r4
100046fa:	416d      	adcs	r5, r5
100046fc:	9a00      	ldr	r2, [sp, #0]
100046fe:	b291      	uxth	r1, r2
10004700:	b2ac      	uxth	r4, r5
10004702:	4361      	muls	r1, r4
10004704:	0c17      	lsrs	r7, r2, #16
10004706:	437c      	muls	r4, r7
10004708:	0c2b      	lsrs	r3, r5, #16
1000470a:	435f      	muls	r7, r3
1000470c:	b292      	uxth	r2, r2
1000470e:	435a      	muls	r2, r3
10004710:	18a4      	adds	r4, r4, r2
10004712:	d302      	bcc.n	1000471a <l21_1>
10004714:	2201      	movs	r2, #1
10004716:	0412      	lsls	r2, r2, #16
10004718:	18bf      	adds	r7, r7, r2

1000471a <l21_1>:
1000471a:	0422      	lsls	r2, r4, #16
1000471c:	0c23      	lsrs	r3, r4, #16
1000471e:	1852      	adds	r2, r2, r1
10004720:	417b      	adcs	r3, r7
10004722:	9c01      	ldr	r4, [sp, #4]
10004724:	436c      	muls	r4, r5
10004726:	191b      	adds	r3, r3, r4
10004728:	0e52      	lsrs	r2, r2, #25
1000472a:	01d9      	lsls	r1, r3, #7
1000472c:	430a      	orrs	r2, r1
1000472e:	0144      	lsls	r4, r0, #5
10004730:	1aa0      	subs	r0, r4, r2
10004732:	b281      	uxth	r1, r0
10004734:	b2b2      	uxth	r2, r6
10004736:	4351      	muls	r1, r2
10004738:	1403      	asrs	r3, r0, #16
1000473a:	435a      	muls	r2, r3
1000473c:	0c36      	lsrs	r6, r6, #16
1000473e:	4373      	muls	r3, r6
10004740:	b287      	uxth	r7, r0
10004742:	4377      	muls	r7, r6
10004744:	17d6      	asrs	r6, r2, #31
10004746:	19d2      	adds	r2, r2, r7
10004748:	2700      	movs	r7, #0
1000474a:	417e      	adcs	r6, r7
1000474c:	0436      	lsls	r6, r6, #16
1000474e:	199b      	adds	r3, r3, r6
10004750:	0417      	lsls	r7, r2, #16
10004752:	0c16      	lsrs	r6, r2, #16
10004754:	187f      	adds	r7, r7, r1
10004756:	415e      	adcs	r6, r3
10004758:	1673      	asrs	r3, r6, #25
1000475a:	18ed      	adds	r5, r5, r3
1000475c:	01f3      	lsls	r3, r6, #7
1000475e:	2600      	movs	r6, #0
10004760:	3380      	adds	r3, #128	; 0x80
10004762:	4175      	adcs	r5, r6
10004764:	0fa9      	lsrs	r1, r5, #30
10004766:	d106      	bne.n	10004776 <dd_0>
10004768:	0064      	lsls	r4, r4, #1
1000476a:	0a69      	lsrs	r1, r5, #9
1000476c:	05e8      	lsls	r0, r5, #23
1000476e:	0a5b      	lsrs	r3, r3, #9
10004770:	4318      	orrs	r0, r3
10004772:	d209      	bcs.n	10004788 <dd_1>
10004774:	e02f      	b.n	100047d6 <dd_2>

10004776 <dd_0>:
10004776:	2204      	movs	r2, #4
10004778:	4494      	add	ip, r2
1000477a:	3380      	adds	r3, #128	; 0x80
1000477c:	4175      	adcs	r5, r6
1000477e:	0aa9      	lsrs	r1, r5, #10
10004780:	05a8      	lsls	r0, r5, #22
10004782:	0a9b      	lsrs	r3, r3, #10
10004784:	4318      	orrs	r0, r3
10004786:	d326      	bcc.n	100047d6 <dd_2>

10004788 <dd_1>:
10004788:	4140      	adcs	r0, r0
1000478a:	4149      	adcs	r1, r1
1000478c:	0424      	lsls	r4, r4, #16
1000478e:	9a00      	ldr	r2, [sp, #0]
10004790:	9b01      	ldr	r3, [sp, #4]
10004792:	000d      	movs	r5, r1
10004794:	4355      	muls	r5, r2
10004796:	1b64      	subs	r4, r4, r5
10004798:	4343      	muls	r3, r0
1000479a:	1ae4      	subs	r4, r4, r3
1000479c:	b295      	uxth	r5, r2
1000479e:	b286      	uxth	r6, r0
100047a0:	4375      	muls	r5, r6
100047a2:	0c17      	lsrs	r7, r2, #16
100047a4:	437e      	muls	r6, r7
100047a6:	0c03      	lsrs	r3, r0, #16
100047a8:	435f      	muls	r7, r3
100047aa:	b292      	uxth	r2, r2
100047ac:	435a      	muls	r2, r3
100047ae:	18b6      	adds	r6, r6, r2
100047b0:	d302      	bcc.n	100047b8 <l23_1>
100047b2:	2201      	movs	r2, #1
100047b4:	0412      	lsls	r2, r2, #16
100047b6:	18bf      	adds	r7, r7, r2

100047b8 <l23_1>:
100047b8:	0432      	lsls	r2, r6, #16
100047ba:	0c33      	lsrs	r3, r6, #16
100047bc:	1952      	adds	r2, r2, r5
100047be:	417b      	adcs	r3, r7
100047c0:	4252      	negs	r2, r2
100047c2:	419c      	sbcs	r4, r3
100047c4:	2c00      	cmp	r4, #0
100047c6:	d402      	bmi.n	100047ce <l23_1+0x16>
100047c8:	2200      	movs	r2, #0
100047ca:	3001      	adds	r0, #1
100047cc:	4151      	adcs	r1, r2
100047ce:	0840      	lsrs	r0, r0, #1
100047d0:	07ca      	lsls	r2, r1, #31
100047d2:	4310      	orrs	r0, r2
100047d4:	0849      	lsrs	r1, r1, #1

100047d6 <dd_2>:
100047d6:	b002      	add	sp, #8
100047d8:	4662      	mov	r2, ip
100047da:	07d7      	lsls	r7, r2, #31
100047dc:	1092      	asrs	r2, r2, #2
100047de:	4b08      	ldr	r3, [pc, #32]	; (10004800 <dd_4+0x6>)
100047e0:	18d2      	adds	r2, r2, r3
100047e2:	4b08      	ldr	r3, [pc, #32]	; (10004804 <dd_4+0xa>)
100047e4:	429a      	cmp	r2, r3
100047e6:	d203      	bcs.n	100047f0 <dd_3>
100047e8:	0512      	lsls	r2, r2, #20
100047ea:	1889      	adds	r1, r1, r2

100047ec <dd_5>:
100047ec:	19c9      	adds	r1, r1, r7
100047ee:	bdf0      	pop	{r4, r5, r6, r7, pc}

100047f0 <dd_3>:
100047f0:	2000      	movs	r0, #0
100047f2:	2a00      	cmp	r2, #0
100047f4:	dc01      	bgt.n	100047fa <dd_4>
100047f6:	0039      	movs	r1, r7
100047f8:	bdf0      	pop	{r4, r5, r6, r7, pc}

100047fa <dd_4>:
100047fa:	3301      	adds	r3, #1
100047fc:	0519      	lsls	r1, r3, #20
100047fe:	e7f5      	b.n	100047ec <dd_5>
10004800:	000003fd 	.word	0x000003fd
10004804:	000007fe 	.word	0x000007fe

10004808 <double2uint_shim>:
10004808:	2200      	movs	r2, #0

1000480a <double2ufix_shim>:
1000480a:	b500      	push	{lr}
1000480c:	3220      	adds	r2, #32
1000480e:	f000 f804 	bl	1000481a <double2ufix64_shim>
10004812:	0008      	movs	r0, r1
10004814:	bd00      	pop	{pc}
	...

10004818 <double2uint64_shim>:
10004818:	2200      	movs	r2, #0

1000481a <double2ufix64_shim>:
1000481a:	150b      	asrs	r3, r1, #20
1000481c:	d40a      	bmi.n	10004834 <ret_dzero>

1000481e <d2fix>:
1000481e:	b510      	push	{r4, lr}
10004820:	4694      	mov	ip, r2
10004822:	f000 f831 	bl	10004888 <dunpacks>
10004826:	1414      	asrs	r4, r2, #16
10004828:	3401      	adds	r4, #1
1000482a:	da00      	bge.n	1000482e <d2fix+0x10>
1000482c:	2100      	movs	r1, #0
1000482e:	17cb      	asrs	r3, r1, #31
10004830:	4c14      	ldr	r4, [pc, #80]	; (10004884 <d2fix_a+0x4a>)
10004832:	4720      	bx	r4

10004834 <ret_dzero>:
10004834:	2000      	movs	r0, #0
10004836:	2100      	movs	r1, #0
10004838:	4770      	bx	lr

1000483a <d2fix_a>:
1000483a:	4462      	add	r2, ip
1000483c:	3a34      	subs	r2, #52	; 0x34
1000483e:	d40c      	bmi.n	1000485a <d2fix_a+0x20>
10004840:	2a0c      	cmp	r2, #12
10004842:	da07      	bge.n	10004854 <d2fix_a+0x1a>
10004844:	0004      	movs	r4, r0
10004846:	4091      	lsls	r1, r2
10004848:	4090      	lsls	r0, r2
1000484a:	4252      	negs	r2, r2
1000484c:	3220      	adds	r2, #32
1000484e:	40d4      	lsrs	r4, r2
10004850:	4321      	orrs	r1, r4
10004852:	bd10      	pop	{r4, pc}
10004854:	43d8      	mvns	r0, r3
10004856:	43d9      	mvns	r1, r3
10004858:	bd10      	pop	{r4, pc}
1000485a:	3220      	adds	r2, #32
1000485c:	d407      	bmi.n	1000486e <d2fix_a+0x34>
1000485e:	460c      	mov	r4, r1
10004860:	4094      	lsls	r4, r2
10004862:	4252      	negs	r2, r2
10004864:	3220      	adds	r2, #32
10004866:	4111      	asrs	r1, r2
10004868:	40d0      	lsrs	r0, r2
1000486a:	4320      	orrs	r0, r4
1000486c:	bd10      	pop	{r4, pc}
1000486e:	0008      	movs	r0, r1
10004870:	17c9      	asrs	r1, r1, #31
10004872:	3220      	adds	r2, #32
10004874:	d403      	bmi.n	1000487e <d2fix_a+0x44>
10004876:	4252      	negs	r2, r2
10004878:	3220      	adds	r2, #32
1000487a:	4110      	asrs	r0, r2
1000487c:	bd10      	pop	{r4, pc}
1000487e:	0018      	movs	r0, r3
10004880:	0019      	movs	r1, r3
10004882:	bd10      	pop	{r4, pc}
10004884:	1000483b 	.word	0x1000483b

10004888 <dunpacks>:
10004888:	0d0a      	lsrs	r2, r1, #20
1000488a:	0fcc      	lsrs	r4, r1, #31
1000488c:	1e53      	subs	r3, r2, #1
1000488e:	051b      	lsls	r3, r3, #20
10004890:	1ac9      	subs	r1, r1, r3
10004892:	0552      	lsls	r2, r2, #21
10004894:	d303      	bcc.n	1000489e <l59_1>
10004896:	43c9      	mvns	r1, r1
10004898:	4240      	negs	r0, r0
1000489a:	d300      	bcc.n	1000489e <l59_1>
1000489c:	3101      	adds	r1, #1

1000489e <l59_1>:
1000489e:	0d52      	lsrs	r2, r2, #21
100048a0:	d003      	beq.n	100048aa <l59_2>
100048a2:	1c53      	adds	r3, r2, #1
100048a4:	0adb      	lsrs	r3, r3, #11
100048a6:	d007      	beq.n	100048b8 <l59_3>
100048a8:	1b12      	subs	r2, r2, r4

100048aa <l59_2>:
100048aa:	2000      	movs	r0, #0
100048ac:	0064      	lsls	r4, r4, #1
100048ae:	1c61      	adds	r1, r4, #1
100048b0:	0789      	lsls	r1, r1, #30
100048b2:	1289      	asrs	r1, r1, #10
100048b4:	3a80      	subs	r2, #128	; 0x80
100048b6:	0312      	lsls	r2, r2, #12

100048b8 <l59_3>:
100048b8:	4b01      	ldr	r3, [pc, #4]	; (100048c0 <l59_3+0x8>)
100048ba:	1ad2      	subs	r2, r2, r3
100048bc:	4770      	bx	lr
100048be:	0000      	.short	0x0000
100048c0:	000003ff 	.word	0x000003ff

100048c4 <__wrap___aeabi_lmul>:
100048c4:	4351      	muls	r1, r2
100048c6:	4343      	muls	r3, r0
100048c8:	18c9      	adds	r1, r1, r3
100048ca:	468c      	mov	ip, r1
100048cc:	0c11      	lsrs	r1, r2, #16
100048ce:	b283      	uxth	r3, r0
100048d0:	434b      	muls	r3, r1
100048d2:	b410      	push	{r4}
100048d4:	0c04      	lsrs	r4, r0, #16
100048d6:	4361      	muls	r1, r4
100048d8:	b292      	uxth	r2, r2
100048da:	b280      	uxth	r0, r0
100048dc:	4350      	muls	r0, r2
100048de:	4362      	muls	r2, r4
100048e0:	041c      	lsls	r4, r3, #16
100048e2:	0c1b      	lsrs	r3, r3, #16
100048e4:	1900      	adds	r0, r0, r4
100048e6:	bc10      	pop	{r4}
100048e8:	4159      	adcs	r1, r3
100048ea:	0413      	lsls	r3, r2, #16
100048ec:	0c12      	lsrs	r2, r2, #16
100048ee:	18c0      	adds	r0, r0, r3
100048f0:	4151      	adcs	r1, r2
100048f2:	4461      	add	r1, ip
100048f4:	4770      	bx	lr
	...

100048f8 <__aeabi_float_init>:
100048f8:	2313      	movs	r3, #19
100048fa:	b510      	push	{r4, lr}
100048fc:	4812      	ldr	r0, [pc, #72]	; (10004948 <__aeabi_float_init+0x50>)
100048fe:	781c      	ldrb	r4, [r3, #0]
10004900:	f7ff f968 	bl	10003bd4 <rom_data_lookup>
10004904:	0001      	movs	r1, r0
10004906:	2c01      	cmp	r4, #1
10004908:	d00a      	beq.n	10004920 <__aeabi_float_init+0x28>
1000490a:	dd03      	ble.n	10004914 <__aeabi_float_init+0x1c>
1000490c:	2280      	movs	r2, #128	; 0x80
1000490e:	480f      	ldr	r0, [pc, #60]	; (1000494c <__aeabi_float_init+0x54>)
10004910:	f000 f848 	bl	100049a4 <__wrap___aeabi_memcpy>
10004914:	480e      	ldr	r0, [pc, #56]	; (10004950 <__aeabi_float_init+0x58>)
10004916:	f7ff f955 	bl	10003bc4 <rom_func_lookup>
1000491a:	4b0e      	ldr	r3, [pc, #56]	; (10004954 <__aeabi_float_init+0x5c>)
1000491c:	6018      	str	r0, [r3, #0]
1000491e:	bd10      	pop	{r4, pc}
10004920:	4c0a      	ldr	r4, [pc, #40]	; (1000494c <__aeabi_float_init+0x54>)
10004922:	2254      	movs	r2, #84	; 0x54
10004924:	0020      	movs	r0, r4
10004926:	f000 f83d 	bl	100049a4 <__wrap___aeabi_memcpy>
1000492a:	4b0b      	ldr	r3, [pc, #44]	; (10004958 <__aeabi_float_init+0x60>)
1000492c:	6563      	str	r3, [r4, #84]	; 0x54
1000492e:	65a3      	str	r3, [r4, #88]	; 0x58
10004930:	65e3      	str	r3, [r4, #92]	; 0x5c
10004932:	6623      	str	r3, [r4, #96]	; 0x60
10004934:	6663      	str	r3, [r4, #100]	; 0x64
10004936:	66a3      	str	r3, [r4, #104]	; 0x68
10004938:	66e3      	str	r3, [r4, #108]	; 0x6c
1000493a:	6723      	str	r3, [r4, #112]	; 0x70
1000493c:	6763      	str	r3, [r4, #116]	; 0x74
1000493e:	67a3      	str	r3, [r4, #120]	; 0x78
10004940:	67e3      	str	r3, [r4, #124]	; 0x7c
10004942:	6223      	str	r3, [r4, #32]
10004944:	61e3      	str	r3, [r4, #28]
10004946:	e7e5      	b.n	10004914 <__aeabi_float_init+0x1c>
10004948:	00004653 	.word	0x00004653
1000494c:	200020a0 	.word	0x200020a0
10004950:	0000334c 	.word	0x0000334c
10004954:	20002bf8 	.word	0x20002bf8
10004958:	1000495d 	.word	0x1000495d

1000495c <float_table_shim_on_use_helper>:
1000495c:	b507      	push	{r0, r1, r2, lr}
1000495e:	4660      	mov	r0, ip
10004960:	8801      	ldrh	r1, [r0, #0]
10004962:	0a0a      	lsrs	r2, r1, #8
10004964:	3002      	adds	r0, #2
10004966:	2adf      	cmp	r2, #223	; 0xdf
10004968:	d1fa      	bne.n	10004960 <float_table_shim_on_use_helper+0x4>
1000496a:	b2c9      	uxtb	r1, r1
1000496c:	0882      	lsrs	r2, r0, #2
1000496e:	d304      	bcc.n	1000497a <float_table_shim_on_use_helper+0x1e>
10004970:	8802      	ldrh	r2, [r0, #0]
10004972:	8840      	ldrh	r0, [r0, #2]
10004974:	0400      	lsls	r0, r0, #16
10004976:	4310      	orrs	r0, r2
10004978:	e000      	b.n	1000497c <float_table_shim_on_use_helper+0x20>
1000497a:	6800      	ldr	r0, [r0, #0]
1000497c:	4a01      	ldr	r2, [pc, #4]	; (10004984 <float_table_shim_on_use_helper+0x28>)
1000497e:	5050      	str	r0, [r2, r1]
10004980:	9003      	str	r0, [sp, #12]
10004982:	bd07      	pop	{r0, r1, r2, pc}
10004984:	200020a0 	.word	0x200020a0

10004988 <__aeabi_mem_init>:
10004988:	4801      	ldr	r0, [pc, #4]	; (10004990 <__aeabi_mem_init+0x8>)
1000498a:	2104      	movs	r1, #4
1000498c:	4b01      	ldr	r3, [pc, #4]	; (10004994 <__aeabi_mem_init+0xc>)
1000498e:	4718      	bx	r3
10004990:	200019f0 	.word	0x200019f0
10004994:	10003be5 	.word	0x10003be5

10004998 <__wrap_memset>:
10004998:	4b01      	ldr	r3, [pc, #4]	; (100049a0 <__wrap_memset+0x8>)
1000499a:	681b      	ldr	r3, [r3, #0]
1000499c:	4718      	bx	r3
1000499e:	0000      	.short	0x0000
100049a0:	200019f0 	.word	0x200019f0

100049a4 <__wrap___aeabi_memcpy>:
100049a4:	4b01      	ldr	r3, [pc, #4]	; (100049ac <__wrap___aeabi_memcpy+0x8>)
100049a6:	685b      	ldr	r3, [r3, #4]
100049a8:	4718      	bx	r3
100049aa:	0000      	.short	0x0000
100049ac:	200019f0 	.word	0x200019f0

100049b0 <stdio_out_chars_no_crlf>:
100049b0:	0003      	movs	r3, r0
100049b2:	b510      	push	{r4, lr}
100049b4:	0008      	movs	r0, r1
100049b6:	0011      	movs	r1, r2
100049b8:	681b      	ldr	r3, [r3, #0]
100049ba:	4798      	blx	r3
100049bc:	bd10      	pop	{r4, pc}
100049be:	46c0      	nop			; (mov r8, r8)

100049c0 <stdio_out_chars_crlf>:
100049c0:	0003      	movs	r3, r0
100049c2:	b510      	push	{r4, lr}
100049c4:	0008      	movs	r0, r1
100049c6:	0011      	movs	r1, r2
100049c8:	681b      	ldr	r3, [r3, #0]
100049ca:	4798      	blx	r3
100049cc:	bd10      	pop	{r4, pc}
100049ce:	46c0      	nop			; (mov r8, r8)

100049d0 <stdio_put_string.isra.0>:
100049d0:	b5f0      	push	{r4, r5, r6, r7, lr}
100049d2:	4657      	mov	r7, sl
100049d4:	464e      	mov	r6, r9
100049d6:	4645      	mov	r5, r8
100049d8:	46de      	mov	lr, fp
100049da:	001c      	movs	r4, r3
100049dc:	23d0      	movs	r3, #208	; 0xd0
100049de:	b5e0      	push	{r5, r6, r7, lr}
100049e0:	061b      	lsls	r3, r3, #24
100049e2:	681f      	ldr	r7, [r3, #0]
100049e4:	4b34      	ldr	r3, [pc, #208]	; (10004ab8 <stdio_put_string.isra.0+0xe8>)
100049e6:	b083      	sub	sp, #12
100049e8:	0006      	movs	r6, r0
100049ea:	000d      	movs	r5, r1
100049ec:	0018      	movs	r0, r3
100049ee:	a901      	add	r1, sp, #4
100049f0:	4691      	mov	r9, r2
100049f2:	469a      	mov	sl, r3
100049f4:	f002 ff2c 	bl	10007850 <__mutex_try_enter_veneer>
100049f8:	4680      	mov	r8, r0
100049fa:	2800      	cmp	r0, #0
100049fc:	d108      	bne.n	10004a10 <stdio_put_string.isra.0+0x40>
100049fe:	9b01      	ldr	r3, [sp, #4]
10004a00:	b27f      	sxtb	r7, r7
10004a02:	429f      	cmp	r7, r3
10004a04:	d004      	beq.n	10004a10 <stdio_put_string.isra.0+0x40>
10004a06:	4650      	mov	r0, sl
10004a08:	f002 ff32 	bl	10007870 <__mutex_enter_blocking_veneer>
10004a0c:	2301      	movs	r3, #1
10004a0e:	4698      	mov	r8, r3
10004a10:	1c6b      	adds	r3, r5, #1
10004a12:	d103      	bne.n	10004a1c <stdio_put_string.isra.0+0x4c>
10004a14:	0030      	movs	r0, r6
10004a16:	f002 fde7 	bl	100075e8 <strlen>
10004a1a:	0005      	movs	r5, r0
10004a1c:	2c00      	cmp	r4, #0
10004a1e:	d127      	bne.n	10004a70 <stdio_put_string.isra.0+0xa0>
10004a20:	4f26      	ldr	r7, [pc, #152]	; (10004abc <stdio_put_string.isra.0+0xec>)
10004a22:	4b27      	ldr	r3, [pc, #156]	; (10004ac0 <stdio_put_string.isra.0+0xf0>)
10004a24:	681c      	ldr	r4, [r3, #0]
10004a26:	2c00      	cmp	r4, #0
10004a28:	d018      	beq.n	10004a5c <stdio_put_string.isra.0+0x8c>
10004a2a:	464b      	mov	r3, r9
10004a2c:	2b00      	cmp	r3, #0
10004a2e:	d121      	bne.n	10004a74 <stdio_put_string.isra.0+0xa4>
10004a30:	4b24      	ldr	r3, [pc, #144]	; (10004ac4 <stdio_put_string.isra.0+0xf4>)
10004a32:	4699      	mov	r9, r3
10004a34:	e002      	b.n	10004a3c <stdio_put_string.isra.0+0x6c>
10004a36:	68e4      	ldr	r4, [r4, #12]
10004a38:	2c00      	cmp	r4, #0
10004a3a:	d00f      	beq.n	10004a5c <stdio_put_string.isra.0+0x8c>
10004a3c:	6823      	ldr	r3, [r4, #0]
10004a3e:	2b00      	cmp	r3, #0
10004a40:	d0f9      	beq.n	10004a36 <stdio_put_string.isra.0+0x66>
10004a42:	464b      	mov	r3, r9
10004a44:	681b      	ldr	r3, [r3, #0]
10004a46:	2b00      	cmp	r3, #0
10004a48:	d001      	beq.n	10004a4e <stdio_put_string.isra.0+0x7e>
10004a4a:	42a3      	cmp	r3, r4
10004a4c:	d1f3      	bne.n	10004a36 <stdio_put_string.isra.0+0x66>
10004a4e:	0020      	movs	r0, r4
10004a50:	002a      	movs	r2, r5
10004a52:	0031      	movs	r1, r6
10004a54:	47b8      	blx	r7
10004a56:	68e4      	ldr	r4, [r4, #12]
10004a58:	2c00      	cmp	r4, #0
10004a5a:	d1ef      	bne.n	10004a3c <stdio_put_string.isra.0+0x6c>
10004a5c:	4643      	mov	r3, r8
10004a5e:	2b00      	cmp	r3, #0
10004a60:	d125      	bne.n	10004aae <stdio_put_string.isra.0+0xde>
10004a62:	b003      	add	sp, #12
10004a64:	bcf0      	pop	{r4, r5, r6, r7}
10004a66:	46bb      	mov	fp, r7
10004a68:	46b2      	mov	sl, r6
10004a6a:	46a9      	mov	r9, r5
10004a6c:	46a0      	mov	r8, r4
10004a6e:	bdf0      	pop	{r4, r5, r6, r7, pc}
10004a70:	4f15      	ldr	r7, [pc, #84]	; (10004ac8 <stdio_put_string.isra.0+0xf8>)
10004a72:	e7d6      	b.n	10004a22 <stdio_put_string.isra.0+0x52>
10004a74:	4b13      	ldr	r3, [pc, #76]	; (10004ac4 <stdio_put_string.isra.0+0xf4>)
10004a76:	4699      	mov	r9, r3
10004a78:	230a      	movs	r3, #10
10004a7a:	469b      	mov	fp, r3
10004a7c:	e002      	b.n	10004a84 <stdio_put_string.isra.0+0xb4>
10004a7e:	68e4      	ldr	r4, [r4, #12]
10004a80:	2c00      	cmp	r4, #0
10004a82:	d0eb      	beq.n	10004a5c <stdio_put_string.isra.0+0x8c>
10004a84:	6823      	ldr	r3, [r4, #0]
10004a86:	2b00      	cmp	r3, #0
10004a88:	d0f9      	beq.n	10004a7e <stdio_put_string.isra.0+0xae>
10004a8a:	464b      	mov	r3, r9
10004a8c:	681b      	ldr	r3, [r3, #0]
10004a8e:	2b00      	cmp	r3, #0
10004a90:	d001      	beq.n	10004a96 <stdio_put_string.isra.0+0xc6>
10004a92:	42a3      	cmp	r3, r4
10004a94:	d1f3      	bne.n	10004a7e <stdio_put_string.isra.0+0xae>
10004a96:	002a      	movs	r2, r5
10004a98:	0031      	movs	r1, r6
10004a9a:	0020      	movs	r0, r4
10004a9c:	47b8      	blx	r7
10004a9e:	465a      	mov	r2, fp
10004aa0:	466b      	mov	r3, sp
10004aa2:	0020      	movs	r0, r4
10004aa4:	711a      	strb	r2, [r3, #4]
10004aa6:	a901      	add	r1, sp, #4
10004aa8:	2201      	movs	r2, #1
10004aaa:	47b8      	blx	r7
10004aac:	e7e7      	b.n	10004a7e <stdio_put_string.isra.0+0xae>
10004aae:	4650      	mov	r0, sl
10004ab0:	f002 feb6 	bl	10007820 <__mutex_exit_veneer>
10004ab4:	e7d5      	b.n	10004a62 <stdio_put_string.isra.0+0x92>
10004ab6:	46c0      	nop			; (mov r8, r8)
10004ab8:	20001e78 	.word	0x20001e78
10004abc:	100049c1 	.word	0x100049c1
10004ac0:	200027c4 	.word	0x200027c4
10004ac4:	200027c8 	.word	0x200027c8
10004ac8:	100049b1 	.word	0x100049b1

10004acc <__wrap_putchar>:
10004acc:	b5f0      	push	{r4, r5, r6, r7, lr}
10004ace:	46ce      	mov	lr, r9
10004ad0:	4647      	mov	r7, r8
10004ad2:	b580      	push	{r7, lr}
10004ad4:	b083      	sub	sp, #12
10004ad6:	466b      	mov	r3, sp
10004ad8:	1cde      	adds	r6, r3, #3
10004ada:	23d0      	movs	r3, #208	; 0xd0
10004adc:	7030      	strb	r0, [r6, #0]
10004ade:	061b      	lsls	r3, r3, #24
10004ae0:	681c      	ldr	r4, [r3, #0]
10004ae2:	4b1f      	ldr	r3, [pc, #124]	; (10004b60 <__wrap_putchar+0x94>)
10004ae4:	4680      	mov	r8, r0
10004ae6:	a901      	add	r1, sp, #4
10004ae8:	0018      	movs	r0, r3
10004aea:	4699      	mov	r9, r3
10004aec:	f002 feb0 	bl	10007850 <__mutex_try_enter_veneer>
10004af0:	1e07      	subs	r7, r0, #0
10004af2:	d020      	beq.n	10004b36 <__wrap_putchar+0x6a>
10004af4:	4b1b      	ldr	r3, [pc, #108]	; (10004b64 <__wrap_putchar+0x98>)
10004af6:	681c      	ldr	r4, [r3, #0]
10004af8:	2c00      	cmp	r4, #0
10004afa:	d028      	beq.n	10004b4e <__wrap_putchar+0x82>
10004afc:	4d1a      	ldr	r5, [pc, #104]	; (10004b68 <__wrap_putchar+0x9c>)
10004afe:	e002      	b.n	10004b06 <__wrap_putchar+0x3a>
10004b00:	68e4      	ldr	r4, [r4, #12]
10004b02:	2c00      	cmp	r4, #0
10004b04:	d00f      	beq.n	10004b26 <__wrap_putchar+0x5a>
10004b06:	6823      	ldr	r3, [r4, #0]
10004b08:	2b00      	cmp	r3, #0
10004b0a:	d0f9      	beq.n	10004b00 <__wrap_putchar+0x34>
10004b0c:	682b      	ldr	r3, [r5, #0]
10004b0e:	2b00      	cmp	r3, #0
10004b10:	d001      	beq.n	10004b16 <__wrap_putchar+0x4a>
10004b12:	42a3      	cmp	r3, r4
10004b14:	d1f4      	bne.n	10004b00 <__wrap_putchar+0x34>
10004b16:	0020      	movs	r0, r4
10004b18:	2201      	movs	r2, #1
10004b1a:	0031      	movs	r1, r6
10004b1c:	f7ff ff50 	bl	100049c0 <stdio_out_chars_crlf>
10004b20:	68e4      	ldr	r4, [r4, #12]
10004b22:	2c00      	cmp	r4, #0
10004b24:	d1ef      	bne.n	10004b06 <__wrap_putchar+0x3a>
10004b26:	2f00      	cmp	r7, #0
10004b28:	d111      	bne.n	10004b4e <__wrap_putchar+0x82>
10004b2a:	4640      	mov	r0, r8
10004b2c:	b003      	add	sp, #12
10004b2e:	bcc0      	pop	{r6, r7}
10004b30:	46b9      	mov	r9, r7
10004b32:	46b0      	mov	r8, r6
10004b34:	bdf0      	pop	{r4, r5, r6, r7, pc}
10004b36:	9b01      	ldr	r3, [sp, #4]
10004b38:	b264      	sxtb	r4, r4
10004b3a:	429c      	cmp	r4, r3
10004b3c:	d00b      	beq.n	10004b56 <__wrap_putchar+0x8a>
10004b3e:	4648      	mov	r0, r9
10004b40:	f002 fe96 	bl	10007870 <__mutex_enter_blocking_veneer>
10004b44:	4b07      	ldr	r3, [pc, #28]	; (10004b64 <__wrap_putchar+0x98>)
10004b46:	2701      	movs	r7, #1
10004b48:	681c      	ldr	r4, [r3, #0]
10004b4a:	2c00      	cmp	r4, #0
10004b4c:	d1d6      	bne.n	10004afc <__wrap_putchar+0x30>
10004b4e:	4648      	mov	r0, r9
10004b50:	f002 fe66 	bl	10007820 <__mutex_exit_veneer>
10004b54:	e7e9      	b.n	10004b2a <__wrap_putchar+0x5e>
10004b56:	4b03      	ldr	r3, [pc, #12]	; (10004b64 <__wrap_putchar+0x98>)
10004b58:	681c      	ldr	r4, [r3, #0]
10004b5a:	2c00      	cmp	r4, #0
10004b5c:	d1ce      	bne.n	10004afc <__wrap_putchar+0x30>
10004b5e:	e7e4      	b.n	10004b2a <__wrap_putchar+0x5e>
10004b60:	20001e78 	.word	0x20001e78
10004b64:	200027c4 	.word	0x200027c4
10004b68:	200027c8 	.word	0x200027c8

10004b6c <__wrap_puts>:
10004b6c:	b570      	push	{r4, r5, r6, lr}
10004b6e:	0004      	movs	r4, r0
10004b70:	f002 fd3a 	bl	100075e8 <strlen>
10004b74:	2300      	movs	r3, #0
10004b76:	0001      	movs	r1, r0
10004b78:	0005      	movs	r5, r0
10004b7a:	2201      	movs	r2, #1
10004b7c:	0020      	movs	r0, r4
10004b7e:	f7ff ff27 	bl	100049d0 <stdio_put_string.isra.0>
10004b82:	4b08      	ldr	r3, [pc, #32]	; (10004ba4 <__wrap_puts+0x38>)
10004b84:	681c      	ldr	r4, [r3, #0]
10004b86:	2c00      	cmp	r4, #0
10004b88:	d006      	beq.n	10004b98 <__wrap_puts+0x2c>
10004b8a:	6863      	ldr	r3, [r4, #4]
10004b8c:	2b00      	cmp	r3, #0
10004b8e:	d005      	beq.n	10004b9c <__wrap_puts+0x30>
10004b90:	4798      	blx	r3
10004b92:	68e4      	ldr	r4, [r4, #12]
10004b94:	2c00      	cmp	r4, #0
10004b96:	d1f8      	bne.n	10004b8a <__wrap_puts+0x1e>
10004b98:	0028      	movs	r0, r5
10004b9a:	bd70      	pop	{r4, r5, r6, pc}
10004b9c:	68e4      	ldr	r4, [r4, #12]
10004b9e:	2c00      	cmp	r4, #0
10004ba0:	d1f3      	bne.n	10004b8a <__wrap_puts+0x1e>
10004ba2:	e7f9      	b.n	10004b98 <__wrap_puts+0x2c>
10004ba4:	200027c4 	.word	0x200027c4

10004ba8 <stdio_set_driver_enabled>:
10004ba8:	4a0a      	ldr	r2, [pc, #40]	; (10004bd4 <stdio_set_driver_enabled+0x2c>)
10004baa:	6813      	ldr	r3, [r2, #0]
10004bac:	2b00      	cmp	r3, #0
10004bae:	d105      	bne.n	10004bbc <stdio_set_driver_enabled+0x14>
10004bb0:	e00c      	b.n	10004bcc <stdio_set_driver_enabled+0x24>
10004bb2:	001a      	movs	r2, r3
10004bb4:	68db      	ldr	r3, [r3, #12]
10004bb6:	320c      	adds	r2, #12
10004bb8:	2b00      	cmp	r3, #0
10004bba:	d007      	beq.n	10004bcc <stdio_set_driver_enabled+0x24>
10004bbc:	4298      	cmp	r0, r3
10004bbe:	d1f8      	bne.n	10004bb2 <stdio_set_driver_enabled+0xa>
10004bc0:	2900      	cmp	r1, #0
10004bc2:	d102      	bne.n	10004bca <stdio_set_driver_enabled+0x22>
10004bc4:	68c3      	ldr	r3, [r0, #12]
10004bc6:	6013      	str	r3, [r2, #0]
10004bc8:	60c1      	str	r1, [r0, #12]
10004bca:	4770      	bx	lr
10004bcc:	2900      	cmp	r1, #0
10004bce:	d0fc      	beq.n	10004bca <stdio_set_driver_enabled+0x22>
10004bd0:	6010      	str	r0, [r2, #0]
10004bd2:	e7fa      	b.n	10004bca <stdio_set_driver_enabled+0x22>
10004bd4:	200027c4 	.word	0x200027c4

10004bd8 <stdio_init_all>:
10004bd8:	b510      	push	{r4, lr}
10004bda:	f000 f93d 	bl	10004e58 <stdio_usb_init>
10004bde:	bd10      	pop	{r4, pc}

10004be0 <resetd_init>:
10004be0:	4770      	bx	lr
10004be2:	46c0      	nop			; (mov r8, r8)

10004be4 <resetd_reset>:
10004be4:	2200      	movs	r2, #0
10004be6:	4b01      	ldr	r3, [pc, #4]	; (10004bec <resetd_reset+0x8>)
10004be8:	701a      	strb	r2, [r3, #0]
10004bea:	4770      	bx	lr
10004bec:	20002c35 	.word	0x20002c35

10004bf0 <resetd_open>:
10004bf0:	794b      	ldrb	r3, [r1, #5]
10004bf2:	2000      	movs	r0, #0
10004bf4:	2bff      	cmp	r3, #255	; 0xff
10004bf6:	d10b      	bne.n	10004c10 <resetd_open+0x20>
10004bf8:	798b      	ldrb	r3, [r1, #6]
10004bfa:	2b00      	cmp	r3, #0
10004bfc:	d108      	bne.n	10004c10 <resetd_open+0x20>
10004bfe:	79cb      	ldrb	r3, [r1, #7]
10004c00:	2b01      	cmp	r3, #1
10004c02:	d105      	bne.n	10004c10 <resetd_open+0x20>
10004c04:	2a08      	cmp	r2, #8
10004c06:	d903      	bls.n	10004c10 <resetd_open+0x20>
10004c08:	788a      	ldrb	r2, [r1, #2]
10004c0a:	4b02      	ldr	r3, [pc, #8]	; (10004c14 <resetd_open+0x24>)
10004c0c:	3009      	adds	r0, #9
10004c0e:	701a      	strb	r2, [r3, #0]
10004c10:	4770      	bx	lr
10004c12:	46c0      	nop			; (mov r8, r8)
10004c14:	20002c35 	.word	0x20002c35

10004c18 <resetd_xfer_cb>:
10004c18:	2001      	movs	r0, #1
10004c1a:	4770      	bx	lr

10004c1c <resetd_control_xfer_cb>:
10004c1c:	b570      	push	{r4, r5, r6, lr}
10004c1e:	2900      	cmp	r1, #0
10004c20:	d115      	bne.n	10004c4e <resetd_control_xfer_cb+0x32>
10004c22:	4915      	ldr	r1, [pc, #84]	; (10004c78 <resetd_control_xfer_cb+0x5c>)
10004c24:	7953      	ldrb	r3, [r2, #5]
10004c26:	7910      	ldrb	r0, [r2, #4]
10004c28:	7809      	ldrb	r1, [r1, #0]
10004c2a:	021b      	lsls	r3, r3, #8
10004c2c:	4303      	orrs	r3, r0
10004c2e:	2000      	movs	r0, #0
10004c30:	4299      	cmp	r1, r3
10004c32:	d000      	beq.n	10004c36 <resetd_control_xfer_cb+0x1a>
10004c34:	bd70      	pop	{r4, r5, r6, pc}
10004c36:	7853      	ldrb	r3, [r2, #1]
10004c38:	2b01      	cmp	r3, #1
10004c3a:	d00a      	beq.n	10004c52 <resetd_control_xfer_cb+0x36>
10004c3c:	2b02      	cmp	r3, #2
10004c3e:	d1f9      	bne.n	10004c34 <resetd_control_xfer_cb+0x18>
10004c40:	2000      	movs	r0, #0
10004c42:	2264      	movs	r2, #100	; 0x64
10004c44:	2100      	movs	r1, #0
10004c46:	f7fd fc73 	bl	10002530 <watchdog_reboot>
10004c4a:	2001      	movs	r0, #1
10004c4c:	e7f2      	b.n	10004c34 <resetd_control_xfer_cb+0x18>
10004c4e:	2001      	movs	r0, #1
10004c50:	e7f0      	b.n	10004c34 <resetd_control_xfer_cb+0x18>
10004c52:	7894      	ldrb	r4, [r2, #2]
10004c54:	78d2      	ldrb	r2, [r2, #3]
10004c56:	0005      	movs	r5, r0
10004c58:	0212      	lsls	r2, r2, #8
10004c5a:	4314      	orrs	r4, r2
10004c5c:	05d2      	lsls	r2, r2, #23
10004c5e:	d502      	bpl.n	10004c66 <resetd_control_xfer_cb+0x4a>
10004c60:	0a62      	lsrs	r2, r4, #9
10004c62:	4093      	lsls	r3, r2
10004c64:	001d      	movs	r5, r3
10004c66:	4805      	ldr	r0, [pc, #20]	; (10004c7c <resetd_control_xfer_cb+0x60>)
10004c68:	f7fe ffac 	bl	10003bc4 <rom_func_lookup>
10004c6c:	217f      	movs	r1, #127	; 0x7f
10004c6e:	0003      	movs	r3, r0
10004c70:	4021      	ands	r1, r4
10004c72:	0028      	movs	r0, r5
10004c74:	4798      	blx	r3
10004c76:	46c0      	nop			; (mov r8, r8)
10004c78:	20002c35 	.word	0x20002c35
10004c7c:	00004255 	.word	0x00004255

10004c80 <usbd_app_driver_get_cb>:
10004c80:	2301      	movs	r3, #1
10004c82:	7003      	strb	r3, [r0, #0]
10004c84:	4800      	ldr	r0, [pc, #0]	; (10004c88 <usbd_app_driver_get_cb+0x8>)
10004c86:	4770      	bx	lr
10004c88:	10007ba8 	.word	0x10007ba8

10004c8c <tud_cdc_line_coding_cb>:
10004c8c:	7848      	ldrb	r0, [r1, #1]
10004c8e:	780b      	ldrb	r3, [r1, #0]
10004c90:	788a      	ldrb	r2, [r1, #2]
10004c92:	0200      	lsls	r0, r0, #8
10004c94:	4318      	orrs	r0, r3
10004c96:	0412      	lsls	r2, r2, #16
10004c98:	4310      	orrs	r0, r2
10004c9a:	2296      	movs	r2, #150	; 0x96
10004c9c:	78cb      	ldrb	r3, [r1, #3]
10004c9e:	b510      	push	{r4, lr}
10004ca0:	061b      	lsls	r3, r3, #24
10004ca2:	4303      	orrs	r3, r0
10004ca4:	00d2      	lsls	r2, r2, #3
10004ca6:	4293      	cmp	r3, r2
10004ca8:	d000      	beq.n	10004cac <tud_cdc_line_coding_cb+0x20>
10004caa:	bd10      	pop	{r4, pc}
10004cac:	4803      	ldr	r0, [pc, #12]	; (10004cbc <tud_cdc_line_coding_cb+0x30>)
10004cae:	f7fe ff89 	bl	10003bc4 <rom_func_lookup>
10004cb2:	2100      	movs	r1, #0
10004cb4:	0003      	movs	r3, r0
10004cb6:	0008      	movs	r0, r1
10004cb8:	4798      	blx	r3
10004cba:	46c0      	nop			; (mov r8, r8)
10004cbc:	00004255 	.word	0x00004255

10004cc0 <stdio_usb_in_chars>:
10004cc0:	b570      	push	{r4, r5, r6, lr}
10004cc2:	4c18      	ldr	r4, [pc, #96]	; (10004d24 <stdio_usb_in_chars+0x64>)
10004cc4:	b082      	sub	sp, #8
10004cc6:	0006      	movs	r6, r0
10004cc8:	000d      	movs	r5, r1
10004cca:	0020      	movs	r0, r4
10004ccc:	a901      	add	r1, sp, #4
10004cce:	f002 fdbf 	bl	10007850 <__mutex_try_enter_veneer>
10004cd2:	2800      	cmp	r0, #0
10004cd4:	d108      	bne.n	10004ce8 <stdio_usb_in_chars+0x28>
10004cd6:	23d0      	movs	r3, #208	; 0xd0
10004cd8:	061b      	lsls	r3, r3, #24
10004cda:	681b      	ldr	r3, [r3, #0]
10004cdc:	9a01      	ldr	r2, [sp, #4]
10004cde:	429a      	cmp	r2, r3
10004ce0:	d01c      	beq.n	10004d1c <stdio_usb_in_chars+0x5c>
10004ce2:	0020      	movs	r0, r4
10004ce4:	f002 fdc4 	bl	10007870 <__mutex_enter_blocking_veneer>
10004ce8:	2000      	movs	r0, #0
10004cea:	f001 fe1f 	bl	1000692c <tud_cdc_n_connected>
10004cee:	2800      	cmp	r0, #0
10004cf0:	d107      	bne.n	10004d02 <stdio_usb_in_chars+0x42>
10004cf2:	2503      	movs	r5, #3
10004cf4:	426d      	negs	r5, r5
10004cf6:	0020      	movs	r0, r4
10004cf8:	f002 fd92 	bl	10007820 <__mutex_exit_veneer>
10004cfc:	0028      	movs	r0, r5
10004cfe:	b002      	add	sp, #8
10004d00:	bd70      	pop	{r4, r5, r6, pc}
10004d02:	2000      	movs	r0, #0
10004d04:	f001 fe2a 	bl	1000695c <tud_cdc_n_available>
10004d08:	2800      	cmp	r0, #0
10004d0a:	d0f2      	beq.n	10004cf2 <stdio_usb_in_chars+0x32>
10004d0c:	002a      	movs	r2, r5
10004d0e:	0031      	movs	r1, r6
10004d10:	2000      	movs	r0, #0
10004d12:	f001 fe2f 	bl	10006974 <tud_cdc_n_read>
10004d16:	1e05      	subs	r5, r0, #0
10004d18:	d0eb      	beq.n	10004cf2 <stdio_usb_in_chars+0x32>
10004d1a:	e7ec      	b.n	10004cf6 <stdio_usb_in_chars+0x36>
10004d1c:	2503      	movs	r5, #3
10004d1e:	426d      	negs	r5, r5
10004d20:	e7ec      	b.n	10004cfc <stdio_usb_in_chars+0x3c>
10004d22:	46c0      	nop			; (mov r8, r8)
10004d24:	20002c00 	.word	0x20002c00

10004d28 <stdio_usb_out_chars>:
10004d28:	b5f0      	push	{r4, r5, r6, r7, lr}
10004d2a:	46de      	mov	lr, fp
10004d2c:	464f      	mov	r7, r9
10004d2e:	4646      	mov	r6, r8
10004d30:	b5c0      	push	{r6, r7, lr}
10004d32:	4b33      	ldr	r3, [pc, #204]	; (10004e00 <stdio_usb_out_chars+0xd8>)
10004d34:	b082      	sub	sp, #8
10004d36:	4681      	mov	r9, r0
10004d38:	000d      	movs	r5, r1
10004d3a:	0018      	movs	r0, r3
10004d3c:	a901      	add	r1, sp, #4
10004d3e:	469b      	mov	fp, r3
10004d40:	f002 fd86 	bl	10007850 <__mutex_try_enter_veneer>
10004d44:	2800      	cmp	r0, #0
10004d46:	d108      	bne.n	10004d5a <stdio_usb_out_chars+0x32>
10004d48:	23d0      	movs	r3, #208	; 0xd0
10004d4a:	061b      	lsls	r3, r3, #24
10004d4c:	681b      	ldr	r3, [r3, #0]
10004d4e:	9a01      	ldr	r2, [sp, #4]
10004d50:	429a      	cmp	r2, r3
10004d52:	d04f      	beq.n	10004df4 <stdio_usb_out_chars+0xcc>
10004d54:	4658      	mov	r0, fp
10004d56:	f002 fd8b 	bl	10007870 <__mutex_enter_blocking_veneer>
10004d5a:	2000      	movs	r0, #0
10004d5c:	f001 fde6 	bl	1000692c <tud_cdc_n_connected>
10004d60:	2800      	cmp	r0, #0
10004d62:	d03f      	beq.n	10004de4 <stdio_usb_out_chars+0xbc>
10004d64:	2400      	movs	r4, #0
10004d66:	2d00      	cmp	r5, #0
10004d68:	dd41      	ble.n	10004dee <stdio_usb_out_chars+0xc6>
10004d6a:	4e26      	ldr	r6, [pc, #152]	; (10004e04 <stdio_usb_out_chars+0xdc>)
10004d6c:	e011      	b.n	10004d92 <stdio_usb_out_chars+0x6a>
10004d6e:	464b      	mov	r3, r9
10004d70:	2000      	movs	r0, #0
10004d72:	1919      	adds	r1, r3, r4
10004d74:	f001 fe72 	bl	10006a5c <tud_cdc_n_write>
10004d78:	4680      	mov	r8, r0
10004d7a:	f000 fe65 	bl	10005a48 <tud_task>
10004d7e:	2000      	movs	r0, #0
10004d80:	f001 fe30 	bl	100069e4 <tud_cdc_n_write_flush>
10004d84:	f7fc fea2 	bl	10001acc <time_us_64>
10004d88:	6030      	str	r0, [r6, #0]
10004d8a:	6071      	str	r1, [r6, #4]
10004d8c:	4444      	add	r4, r8
10004d8e:	42ac      	cmp	r4, r5
10004d90:	da2d      	bge.n	10004dee <stdio_usb_out_chars+0xc6>
10004d92:	2000      	movs	r0, #0
10004d94:	f001 fe7c 	bl	10006a90 <tud_cdc_n_write_available>
10004d98:	1b2f      	subs	r7, r5, r4
10004d9a:	0002      	movs	r2, r0
10004d9c:	42b8      	cmp	r0, r7
10004d9e:	dd00      	ble.n	10004da2 <stdio_usb_out_chars+0x7a>
10004da0:	003a      	movs	r2, r7
10004da2:	2a00      	cmp	r2, #0
10004da4:	d1e3      	bne.n	10004d6e <stdio_usb_out_chars+0x46>
10004da6:	f000 fe4f 	bl	10005a48 <tud_task>
10004daa:	2000      	movs	r0, #0
10004dac:	f001 fe1a 	bl	100069e4 <tud_cdc_n_write_flush>
10004db0:	2000      	movs	r0, #0
10004db2:	f001 fdbb 	bl	1000692c <tud_cdc_n_connected>
10004db6:	2800      	cmp	r0, #0
10004db8:	d019      	beq.n	10004dee <stdio_usb_out_chars+0xc6>
10004dba:	2000      	movs	r0, #0
10004dbc:	f001 fe68 	bl	10006a90 <tud_cdc_n_write_available>
10004dc0:	2800      	cmp	r0, #0
10004dc2:	d1e4      	bne.n	10004d8e <stdio_usb_out_chars+0x66>
10004dc4:	f7fc fe82 	bl	10001acc <time_us_64>
10004dc8:	6832      	ldr	r2, [r6, #0]
10004dca:	6873      	ldr	r3, [r6, #4]
10004dcc:	000f      	movs	r7, r1
10004dce:	2100      	movs	r1, #0
10004dd0:	4684      	mov	ip, r0
10004dd2:	480d      	ldr	r0, [pc, #52]	; (10004e08 <stdio_usb_out_chars+0xe0>)
10004dd4:	1812      	adds	r2, r2, r0
10004dd6:	414b      	adcs	r3, r1
10004dd8:	429f      	cmp	r7, r3
10004dda:	d808      	bhi.n	10004dee <stdio_usb_out_chars+0xc6>
10004ddc:	d1d7      	bne.n	10004d8e <stdio_usb_out_chars+0x66>
10004dde:	4594      	cmp	ip, r2
10004de0:	d9d5      	bls.n	10004d8e <stdio_usb_out_chars+0x66>
10004de2:	e004      	b.n	10004dee <stdio_usb_out_chars+0xc6>
10004de4:	2000      	movs	r0, #0
10004de6:	2100      	movs	r1, #0
10004de8:	4b06      	ldr	r3, [pc, #24]	; (10004e04 <stdio_usb_out_chars+0xdc>)
10004dea:	6018      	str	r0, [r3, #0]
10004dec:	6059      	str	r1, [r3, #4]
10004dee:	4658      	mov	r0, fp
10004df0:	f002 fd16 	bl	10007820 <__mutex_exit_veneer>
10004df4:	b002      	add	sp, #8
10004df6:	bce0      	pop	{r5, r6, r7}
10004df8:	46bb      	mov	fp, r7
10004dfa:	46b1      	mov	r9, r6
10004dfc:	46a8      	mov	r8, r5
10004dfe:	bdf0      	pop	{r4, r5, r6, r7, pc}
10004e00:	20002c00 	.word	0x20002c00
10004e04:	20001f98 	.word	0x20001f98
10004e08:	0007a120 	.word	0x0007a120

10004e0c <timer_task>:
10004e0c:	b510      	push	{r4, lr}
10004e0e:	4b04      	ldr	r3, [pc, #16]	; (10004e20 <timer_task+0x14>)
10004e10:	7818      	ldrb	r0, [r3, #0]
10004e12:	f7fb ffbd 	bl	10000d90 <irq_set_pending>
10004e16:	20fa      	movs	r0, #250	; 0xfa
10004e18:	2100      	movs	r1, #0
10004e1a:	0080      	lsls	r0, r0, #2
10004e1c:	bd10      	pop	{r4, pc}
10004e1e:	46c0      	nop			; (mov r8, r8)
10004e20:	20002c36 	.word	0x20002c36

10004e24 <usb_irq>:
10004e24:	b510      	push	{r4, lr}
10004e26:	4b02      	ldr	r3, [pc, #8]	; (10004e30 <usb_irq+0xc>)
10004e28:	7818      	ldrb	r0, [r3, #0]
10004e2a:	f7fb ffb1 	bl	10000d90 <irq_set_pending>
10004e2e:	bd10      	pop	{r4, pc}
10004e30:	20002c36 	.word	0x20002c36

10004e34 <low_priority_worker_irq>:
10004e34:	b510      	push	{r4, lr}
10004e36:	4c07      	ldr	r4, [pc, #28]	; (10004e54 <low_priority_worker_irq+0x20>)
10004e38:	2100      	movs	r1, #0
10004e3a:	0020      	movs	r0, r4
10004e3c:	f002 fd08 	bl	10007850 <__mutex_try_enter_veneer>
10004e40:	2800      	cmp	r0, #0
10004e42:	d100      	bne.n	10004e46 <low_priority_worker_irq+0x12>
10004e44:	bd10      	pop	{r4, pc}
10004e46:	f000 fdff 	bl	10005a48 <tud_task>
10004e4a:	0020      	movs	r0, r4
10004e4c:	f002 fce8 	bl	10007820 <__mutex_exit_veneer>
10004e50:	e7f8      	b.n	10004e44 <low_priority_worker_irq+0x10>
10004e52:	46c0      	nop			; (mov r8, r8)
10004e54:	20002c00 	.word	0x20002c00

10004e58 <stdio_usb_init>:
10004e58:	b5f0      	push	{r4, r5, r6, r7, lr}
10004e5a:	4b24      	ldr	r3, [pc, #144]	; (10004eec <stdio_usb_init+0x94>)
10004e5c:	b085      	sub	sp, #20
10004e5e:	781b      	ldrb	r3, [r3, #0]
10004e60:	f001 fffe 	bl	10006e60 <tusb_init>
10004e64:	4822      	ldr	r0, [pc, #136]	; (10004ef0 <stdio_usb_init+0x98>)
10004e66:	f7fd f8e1 	bl	1000202c <mutex_init>
10004e6a:	2001      	movs	r0, #1
10004e6c:	f7fc fa18 	bl	100012a0 <user_irq_claim_unused>
10004e70:	23ff      	movs	r3, #255	; 0xff
10004e72:	4c20      	ldr	r4, [pc, #128]	; (10004ef4 <stdio_usb_init+0x9c>)
10004e74:	4920      	ldr	r1, [pc, #128]	; (10004ef8 <stdio_usb_init+0xa0>)
10004e76:	7020      	strb	r0, [r4, #0]
10004e78:	4018      	ands	r0, r3
10004e7a:	f7fb ffaf 	bl	10000ddc <irq_set_exclusive_handler>
10004e7e:	7820      	ldrb	r0, [r4, #0]
10004e80:	2101      	movs	r1, #1
10004e82:	f7fb ff73 	bl	10000d6c <irq_set_enabled>
10004e86:	2005      	movs	r0, #5
10004e88:	f7fb ff8a 	bl	10000da0 <irq_has_shared_handler>
10004e8c:	1e04      	subs	r4, r0, #0
10004e8e:	d00c      	beq.n	10004eaa <stdio_usb_init+0x52>
10004e90:	2200      	movs	r2, #0
10004e92:	2005      	movs	r0, #5
10004e94:	4919      	ldr	r1, [pc, #100]	; (10004efc <stdio_usb_init+0xa4>)
10004e96:	f7fb ffcb 	bl	10000e30 <irq_add_shared_handler>
10004e9a:	2101      	movs	r1, #1
10004e9c:	4818      	ldr	r0, [pc, #96]	; (10004f00 <stdio_usb_init+0xa8>)
10004e9e:	f7ff fe83 	bl	10004ba8 <stdio_set_driver_enabled>
10004ea2:	2401      	movs	r4, #1
10004ea4:	0020      	movs	r0, r4
10004ea6:	b005      	add	sp, #20
10004ea8:	bdf0      	pop	{r4, r5, r6, r7, pc}
10004eaa:	f7fc fc6f 	bl	1000178c <alarm_pool_get_default>
10004eae:	0005      	movs	r5, r0
10004eb0:	f7fc fe0c 	bl	10001acc <time_us_64>
10004eb4:	22fa      	movs	r2, #250	; 0xfa
10004eb6:	0006      	movs	r6, r0
10004eb8:	000f      	movs	r7, r1
10004eba:	2300      	movs	r3, #0
10004ebc:	0092      	lsls	r2, r2, #2
10004ebe:	1992      	adds	r2, r2, r6
10004ec0:	417b      	adcs	r3, r7
10004ec2:	4299      	cmp	r1, r3
10004ec4:	d80e      	bhi.n	10004ee4 <stdio_usb_init+0x8c>
10004ec6:	d00b      	beq.n	10004ee0 <stdio_usb_init+0x88>
10004ec8:	2101      	movs	r1, #1
10004eca:	9102      	str	r1, [sp, #8]
10004ecc:	2100      	movs	r1, #0
10004ece:	9101      	str	r1, [sp, #4]
10004ed0:	490c      	ldr	r1, [pc, #48]	; (10004f04 <stdio_usb_init+0xac>)
10004ed2:	0028      	movs	r0, r5
10004ed4:	9100      	str	r1, [sp, #0]
10004ed6:	f7fc fc5d 	bl	10001794 <alarm_pool_add_alarm_at>
10004eda:	2800      	cmp	r0, #0
10004edc:	d0e2      	beq.n	10004ea4 <stdio_usb_init+0x4c>
10004ede:	e7dc      	b.n	10004e9a <stdio_usb_init+0x42>
10004ee0:	4290      	cmp	r0, r2
10004ee2:	d9f1      	bls.n	10004ec8 <stdio_usb_init+0x70>
10004ee4:	2201      	movs	r2, #1
10004ee6:	4252      	negs	r2, r2
10004ee8:	17d3      	asrs	r3, r2, #31
10004eea:	e7ed      	b.n	10004ec8 <stdio_usb_init+0x70>
10004eec:	10007eb8 	.word	0x10007eb8
10004ef0:	20002c00 	.word	0x20002c00
10004ef4:	20002c36 	.word	0x20002c36
10004ef8:	10004e35 	.word	0x10004e35
10004efc:	10004e25 	.word	0x10004e25
10004f00:	20001a00 	.word	0x20001a00
10004f04:	10004e0d 	.word	0x10004e0d

10004f08 <tud_descriptor_device_cb>:
10004f08:	4800      	ldr	r0, [pc, #0]	; (10004f0c <tud_descriptor_device_cb+0x4>)
10004f0a:	4770      	bx	lr
10004f0c:	10007c60 	.word	0x10007c60

10004f10 <tud_descriptor_configuration_cb>:
10004f10:	4800      	ldr	r0, [pc, #0]	; (10004f14 <tud_descriptor_configuration_cb+0x4>)
10004f12:	4770      	bx	lr
10004f14:	10007c0c 	.word	0x10007c0c

10004f18 <tud_descriptor_string_cb>:
10004f18:	b570      	push	{r4, r5, r6, lr}
10004f1a:	0004      	movs	r4, r0
10004f1c:	4817      	ldr	r0, [pc, #92]	; (10004f7c <tud_descriptor_string_cb+0x64>)
10004f1e:	7803      	ldrb	r3, [r0, #0]
10004f20:	2b00      	cmp	r3, #0
10004f22:	d021      	beq.n	10004f68 <tud_descriptor_string_cb+0x50>
10004f24:	2c00      	cmp	r4, #0
10004f26:	d106      	bne.n	10004f36 <tud_descriptor_string_cb+0x1e>
10004f28:	24c1      	movs	r4, #193	; 0xc1
10004f2a:	4815      	ldr	r0, [pc, #84]	; (10004f80 <tud_descriptor_string_cb+0x68>)
10004f2c:	4b15      	ldr	r3, [pc, #84]	; (10004f84 <tud_descriptor_string_cb+0x6c>)
10004f2e:	00a4      	lsls	r4, r4, #2
10004f30:	8043      	strh	r3, [r0, #2]
10004f32:	8004      	strh	r4, [r0, #0]
10004f34:	bd70      	pop	{r4, r5, r6, pc}
10004f36:	2c05      	cmp	r4, #5
10004f38:	d81d      	bhi.n	10004f76 <tud_descriptor_string_cb+0x5e>
10004f3a:	4b13      	ldr	r3, [pc, #76]	; (10004f88 <tud_descriptor_string_cb+0x70>)
10004f3c:	4810      	ldr	r0, [pc, #64]	; (10004f80 <tud_descriptor_string_cb+0x68>)
10004f3e:	00a4      	lsls	r4, r4, #2
10004f40:	58e5      	ldr	r5, [r4, r3]
10004f42:	1c81      	adds	r1, r0, #2
10004f44:	2300      	movs	r3, #0
10004f46:	e004      	b.n	10004f52 <tud_descriptor_string_cb+0x3a>
10004f48:	3301      	adds	r3, #1
10004f4a:	800a      	strh	r2, [r1, #0]
10004f4c:	3102      	adds	r1, #2
10004f4e:	2b13      	cmp	r3, #19
10004f50:	d00e      	beq.n	10004f70 <tud_descriptor_string_cb+0x58>
10004f52:	5cea      	ldrb	r2, [r5, r3]
10004f54:	b2dc      	uxtb	r4, r3
10004f56:	2a00      	cmp	r2, #0
10004f58:	d1f6      	bne.n	10004f48 <tud_descriptor_string_cb+0x30>
10004f5a:	23c0      	movs	r3, #192	; 0xc0
10004f5c:	3401      	adds	r4, #1
10004f5e:	b2e4      	uxtb	r4, r4
10004f60:	0064      	lsls	r4, r4, #1
10004f62:	009b      	lsls	r3, r3, #2
10004f64:	431c      	orrs	r4, r3
10004f66:	e7e4      	b.n	10004f32 <tud_descriptor_string_cb+0x1a>
10004f68:	2111      	movs	r1, #17
10004f6a:	f002 fa0f 	bl	1000738c <pico_get_unique_board_id_string>
10004f6e:	e7d9      	b.n	10004f24 <tud_descriptor_string_cb+0xc>
10004f70:	24ca      	movs	r4, #202	; 0xca
10004f72:	00a4      	lsls	r4, r4, #2
10004f74:	e7dd      	b.n	10004f32 <tud_descriptor_string_cb+0x1a>
10004f76:	2000      	movs	r0, #0
10004f78:	e7dc      	b.n	10004f34 <tud_descriptor_string_cb+0x1c>
10004f7a:	46c0      	nop			; (mov r8, r8)
10004f7c:	20002c18 	.word	0x20002c18
10004f80:	2000279c 	.word	0x2000279c
10004f84:	00000409 	.word	0x00000409
10004f88:	10007c74 	.word	0x10007c74

10004f8c <dcd_rp2040_irq>:
10004f8c:	b5f0      	push	{r4, r5, r6, r7, lr}
10004f8e:	2398      	movs	r3, #152	; 0x98
10004f90:	4657      	mov	r7, sl
10004f92:	4645      	mov	r5, r8
10004f94:	46de      	mov	lr, fp
10004f96:	464e      	mov	r6, r9
10004f98:	4a6c      	ldr	r2, [pc, #432]	; (1000514c <dcd_rp2040_irq+0x1c0>)
10004f9a:	b5e0      	push	{r5, r6, r7, lr}
10004f9c:	58d7      	ldr	r7, [r2, r3]
10004f9e:	2580      	movs	r5, #128	; 0x80
10004fa0:	003c      	movs	r4, r7
10004fa2:	026d      	lsls	r5, r5, #9
10004fa4:	3b88      	subs	r3, #136	; 0x88
10004fa6:	469a      	mov	sl, r3
10004fa8:	b083      	sub	sp, #12
10004faa:	402c      	ands	r4, r5
10004fac:	422f      	tst	r7, r5
10004fae:	d00f      	beq.n	10004fd0 <dcd_rp2040_irq+0x44>
10004fb0:	2201      	movs	r2, #1
10004fb2:	2123      	movs	r1, #35	; 0x23
10004fb4:	4b66      	ldr	r3, [pc, #408]	; (10005150 <dcd_rp2040_irq+0x1c4>)
10004fb6:	2000      	movs	r0, #0
10004fb8:	545a      	strb	r2, [r3, r1]
10004fba:	70da      	strb	r2, [r3, #3]
10004fbc:	4965      	ldr	r1, [pc, #404]	; (10005154 <dcd_rp2040_irq+0x1c8>)
10004fbe:	f001 fa73 	bl	100064a8 <dcd_event_setup_received>
10004fc2:	2280      	movs	r2, #128	; 0x80
10004fc4:	4b64      	ldr	r3, [pc, #400]	; (10005158 <dcd_rp2040_irq+0x1cc>)
10004fc6:	0292      	lsls	r2, r2, #10
10004fc8:	651a      	str	r2, [r3, #80]	; 0x50
10004fca:	4b64      	ldr	r3, [pc, #400]	; (1000515c <dcd_rp2040_irq+0x1d0>)
10004fcc:	002c      	movs	r4, r5
10004fce:	469a      	mov	sl, r3
10004fd0:	06fb      	lsls	r3, r7, #27
10004fd2:	d417      	bmi.n	10005004 <dcd_rp2040_irq+0x78>
10004fd4:	2380      	movs	r3, #128	; 0x80
10004fd6:	015b      	lsls	r3, r3, #5
10004fd8:	421f      	tst	r7, r3
10004fda:	d145      	bne.n	10005068 <dcd_rp2040_irq+0xdc>
10004fdc:	2380      	movs	r3, #128	; 0x80
10004fde:	01db      	lsls	r3, r3, #7
10004fe0:	421f      	tst	r7, r3
10004fe2:	d000      	beq.n	10004fe6 <dcd_rp2040_irq+0x5a>
10004fe4:	e088      	b.n	100050f8 <dcd_rp2040_irq+0x16c>
10004fe6:	2380      	movs	r3, #128	; 0x80
10004fe8:	021b      	lsls	r3, r3, #8
10004fea:	421f      	tst	r7, r3
10004fec:	d000      	beq.n	10004ff0 <dcd_rp2040_irq+0x64>
10004fee:	e091      	b.n	10005114 <dcd_rp2040_irq+0x188>
10004ff0:	42bc      	cmp	r4, r7
10004ff2:	d000      	beq.n	10004ff6 <dcd_rp2040_irq+0x6a>
10004ff4:	e0a5      	b.n	10005142 <dcd_rp2040_irq+0x1b6>
10004ff6:	b003      	add	sp, #12
10004ff8:	bcf0      	pop	{r4, r5, r6, r7}
10004ffa:	46bb      	mov	fp, r7
10004ffc:	46b2      	mov	sl, r6
10004ffe:	46a9      	mov	r9, r5
10005000:	46a0      	mov	r8, r4
10005002:	bdf0      	pop	{r4, r5, r6, r7, pc}
10005004:	4b51      	ldr	r3, [pc, #324]	; (1000514c <dcd_rp2040_irq+0x1c0>)
10005006:	6d9b      	ldr	r3, [r3, #88]	; 0x58
10005008:	4698      	mov	r8, r3
1000500a:	2b00      	cmp	r3, #0
1000500c:	d027      	beq.n	1000505e <dcd_rp2040_irq+0xd2>
1000500e:	4b52      	ldr	r3, [pc, #328]	; (10005158 <dcd_rp2040_irq+0x1cc>)
10005010:	2400      	movs	r4, #0
10005012:	469b      	mov	fp, r3
10005014:	2301      	movs	r3, #1
10005016:	4699      	mov	r9, r3
10005018:	4643      	mov	r3, r8
1000501a:	2601      	movs	r6, #1
1000501c:	46b8      	mov	r8, r7
1000501e:	001f      	movs	r7, r3
10005020:	e004      	b.n	1000502c <dcd_rp2040_irq+0xa0>
10005022:	3401      	adds	r4, #1
10005024:	0076      	lsls	r6, r6, #1
10005026:	b2e4      	uxtb	r4, r4
10005028:	2c20      	cmp	r4, #32
1000502a:	d017      	beq.n	1000505c <dcd_rp2040_irq+0xd0>
1000502c:	4237      	tst	r7, r6
1000502e:	d0f8      	beq.n	10005022 <dcd_rp2040_irq+0x96>
10005030:	465b      	mov	r3, fp
10005032:	659e      	str	r6, [r3, #88]	; 0x58
10005034:	464b      	mov	r3, r9
10005036:	0865      	lsrs	r5, r4, #1
10005038:	43a3      	bics	r3, r4
1000503a:	006d      	lsls	r5, r5, #1
1000503c:	18ed      	adds	r5, r5, r3
1000503e:	4b44      	ldr	r3, [pc, #272]	; (10005150 <dcd_rp2040_irq+0x1c4>)
10005040:	016d      	lsls	r5, r5, #5
10005042:	469c      	mov	ip, r3
10005044:	4465      	add	r5, ip
10005046:	0028      	movs	r0, r5
10005048:	f000 fb8a 	bl	10005760 <hw_endpoint_xfer_continue>
1000504c:	2800      	cmp	r0, #0
1000504e:	d16c      	bne.n	1000512a <dcd_rp2040_irq+0x19e>
10005050:	3401      	adds	r4, #1
10005052:	43b7      	bics	r7, r6
10005054:	b2e4      	uxtb	r4, r4
10005056:	0076      	lsls	r6, r6, #1
10005058:	2f00      	cmp	r7, #0
1000505a:	d1e5      	bne.n	10005028 <dcd_rp2040_irq+0x9c>
1000505c:	4647      	mov	r7, r8
1000505e:	2380      	movs	r3, #128	; 0x80
10005060:	015b      	lsls	r3, r3, #5
10005062:	4654      	mov	r4, sl
10005064:	421f      	tst	r7, r3
10005066:	d0b9      	beq.n	10004fdc <dcd_rp2040_irq+0x50>
10005068:	431c      	orrs	r4, r3
1000506a:	2300      	movs	r3, #0
1000506c:	4a37      	ldr	r2, [pc, #220]	; (1000514c <dcd_rp2040_irq+0x1c0>)
1000506e:	2100      	movs	r1, #0
10005070:	6013      	str	r3, [r2, #0]
10005072:	4a38      	ldr	r2, [pc, #224]	; (10005154 <dcd_rp2040_irq+0x1c8>)
10005074:	483a      	ldr	r0, [pc, #232]	; (10005160 <dcd_rp2040_irq+0x1d4>)
10005076:	6093      	str	r3, [r2, #8]
10005078:	60d3      	str	r3, [r2, #12]
1000507a:	4a3a      	ldr	r2, [pc, #232]	; (10005164 <dcd_rp2040_irq+0x1d8>)
1000507c:	6093      	str	r3, [r2, #8]
1000507e:	60d3      	str	r3, [r2, #12]
10005080:	4a39      	ldr	r2, [pc, #228]	; (10005168 <dcd_rp2040_irq+0x1dc>)
10005082:	6093      	str	r3, [r2, #8]
10005084:	60d3      	str	r3, [r2, #12]
10005086:	4a39      	ldr	r2, [pc, #228]	; (1000516c <dcd_rp2040_irq+0x1e0>)
10005088:	6093      	str	r3, [r2, #8]
1000508a:	60d3      	str	r3, [r2, #12]
1000508c:	4a38      	ldr	r2, [pc, #224]	; (10005170 <dcd_rp2040_irq+0x1e4>)
1000508e:	6093      	str	r3, [r2, #8]
10005090:	60d3      	str	r3, [r2, #12]
10005092:	4a38      	ldr	r2, [pc, #224]	; (10005174 <dcd_rp2040_irq+0x1e8>)
10005094:	6093      	str	r3, [r2, #8]
10005096:	60d3      	str	r3, [r2, #12]
10005098:	4a37      	ldr	r2, [pc, #220]	; (10005178 <dcd_rp2040_irq+0x1ec>)
1000509a:	6093      	str	r3, [r2, #8]
1000509c:	60d3      	str	r3, [r2, #12]
1000509e:	4a37      	ldr	r2, [pc, #220]	; (1000517c <dcd_rp2040_irq+0x1f0>)
100050a0:	6093      	str	r3, [r2, #8]
100050a2:	60d3      	str	r3, [r2, #12]
100050a4:	4a36      	ldr	r2, [pc, #216]	; (10005180 <dcd_rp2040_irq+0x1f4>)
100050a6:	6093      	str	r3, [r2, #8]
100050a8:	60d3      	str	r3, [r2, #12]
100050aa:	4a36      	ldr	r2, [pc, #216]	; (10005184 <dcd_rp2040_irq+0x1f8>)
100050ac:	6093      	str	r3, [r2, #8]
100050ae:	60d3      	str	r3, [r2, #12]
100050b0:	4a35      	ldr	r2, [pc, #212]	; (10005188 <dcd_rp2040_irq+0x1fc>)
100050b2:	6093      	str	r3, [r2, #8]
100050b4:	60d3      	str	r3, [r2, #12]
100050b6:	4a35      	ldr	r2, [pc, #212]	; (1000518c <dcd_rp2040_irq+0x200>)
100050b8:	6093      	str	r3, [r2, #8]
100050ba:	60d3      	str	r3, [r2, #12]
100050bc:	4a34      	ldr	r2, [pc, #208]	; (10005190 <dcd_rp2040_irq+0x204>)
100050be:	6093      	str	r3, [r2, #8]
100050c0:	60d3      	str	r3, [r2, #12]
100050c2:	4a34      	ldr	r2, [pc, #208]	; (10005194 <dcd_rp2040_irq+0x208>)
100050c4:	6093      	str	r3, [r2, #8]
100050c6:	60d3      	str	r3, [r2, #12]
100050c8:	4a33      	ldr	r2, [pc, #204]	; (10005198 <dcd_rp2040_irq+0x20c>)
100050ca:	6093      	str	r3, [r2, #8]
100050cc:	60d3      	str	r3, [r2, #12]
100050ce:	22f0      	movs	r2, #240	; 0xf0
100050d0:	0092      	lsls	r2, r2, #2
100050d2:	f7ff fc61 	bl	10004998 <__wrap_memset>
100050d6:	4b31      	ldr	r3, [pc, #196]	; (1000519c <dcd_rp2040_irq+0x210>)
100050d8:	4a31      	ldr	r2, [pc, #196]	; (100051a0 <dcd_rp2040_irq+0x214>)
100050da:	2100      	movs	r1, #0
100050dc:	601a      	str	r2, [r3, #0]
100050de:	2000      	movs	r0, #0
100050e0:	2201      	movs	r2, #1
100050e2:	f001 f9b7 	bl	10006454 <dcd_event_bus_reset>
100050e6:	2280      	movs	r2, #128	; 0x80
100050e8:	4b1b      	ldr	r3, [pc, #108]	; (10005158 <dcd_rp2040_irq+0x1cc>)
100050ea:	0312      	lsls	r2, r2, #12
100050ec:	651a      	str	r2, [r3, #80]	; 0x50
100050ee:	2380      	movs	r3, #128	; 0x80
100050f0:	01db      	lsls	r3, r3, #7
100050f2:	421f      	tst	r7, r3
100050f4:	d100      	bne.n	100050f8 <dcd_rp2040_irq+0x16c>
100050f6:	e776      	b.n	10004fe6 <dcd_rp2040_irq+0x5a>
100050f8:	2201      	movs	r2, #1
100050fa:	2104      	movs	r1, #4
100050fc:	2000      	movs	r0, #0
100050fe:	431c      	orrs	r4, r3
10005100:	f001 f918 	bl	10006334 <dcd_event_bus_signal>
10005104:	2210      	movs	r2, #16
10005106:	4b14      	ldr	r3, [pc, #80]	; (10005158 <dcd_rp2040_irq+0x1cc>)
10005108:	651a      	str	r2, [r3, #80]	; 0x50
1000510a:	2380      	movs	r3, #128	; 0x80
1000510c:	021b      	lsls	r3, r3, #8
1000510e:	421f      	tst	r7, r3
10005110:	d100      	bne.n	10005114 <dcd_rp2040_irq+0x188>
10005112:	e76d      	b.n	10004ff0 <dcd_rp2040_irq+0x64>
10005114:	2201      	movs	r2, #1
10005116:	2105      	movs	r1, #5
10005118:	2000      	movs	r0, #0
1000511a:	431c      	orrs	r4, r3
1000511c:	f001 f90a 	bl	10006334 <dcd_event_bus_signal>
10005120:	2280      	movs	r2, #128	; 0x80
10005122:	4b0d      	ldr	r3, [pc, #52]	; (10005158 <dcd_rp2040_irq+0x1cc>)
10005124:	0112      	lsls	r2, r2, #4
10005126:	651a      	str	r2, [r3, #80]	; 0x50
10005128:	e762      	b.n	10004ff0 <dcd_rp2040_irq+0x64>
1000512a:	464b      	mov	r3, r9
1000512c:	8aaa      	ldrh	r2, [r5, #20]
1000512e:	78a9      	ldrb	r1, [r5, #2]
10005130:	2000      	movs	r0, #0
10005132:	9300      	str	r3, [sp, #0]
10005134:	2300      	movs	r3, #0
10005136:	f001 f9df 	bl	100064f8 <dcd_event_xfer_complete>
1000513a:	0028      	movs	r0, r5
1000513c:	f000 fa4c 	bl	100055d8 <hw_endpoint_reset_transfer>
10005140:	e786      	b.n	10005050 <dcd_rp2040_irq+0xc4>
10005142:	0021      	movs	r1, r4
10005144:	4817      	ldr	r0, [pc, #92]	; (100051a4 <dcd_rp2040_irq+0x218>)
10005146:	4079      	eors	r1, r7
10005148:	f7fd f816 	bl	10002178 <panic>
1000514c:	50110000 	.word	0x50110000
10005150:	200027cc 	.word	0x200027cc
10005154:	50100000 	.word	0x50100000
10005158:	50113000 	.word	0x50113000
1000515c:	00010010 	.word	0x00010010
10005160:	2000280c 	.word	0x2000280c
10005164:	50100008 	.word	0x50100008
10005168:	50100010 	.word	0x50100010
1000516c:	50100018 	.word	0x50100018
10005170:	50100020 	.word	0x50100020
10005174:	50100028 	.word	0x50100028
10005178:	50100030 	.word	0x50100030
1000517c:	50100038 	.word	0x50100038
10005180:	50100040 	.word	0x50100040
10005184:	50100048 	.word	0x50100048
10005188:	50100050 	.word	0x50100050
1000518c:	50100058 	.word	0x50100058
10005190:	50100060 	.word	0x50100060
10005194:	50100068 	.word	0x50100068
10005198:	50100070 	.word	0x50100070
1000519c:	20002bd4 	.word	0x20002bd4
100051a0:	50100180 	.word	0x50100180
100051a4:	10007c8c 	.word	0x10007c8c

100051a8 <dcd_int_enable>:
100051a8:	b510      	push	{r4, lr}
100051aa:	2101      	movs	r1, #1
100051ac:	2005      	movs	r0, #5
100051ae:	f7fb fddd 	bl	10000d6c <irq_set_enabled>
100051b2:	bd10      	pop	{r4, pc}

100051b4 <dcd_set_address>:
100051b4:	b510      	push	{r4, lr}
100051b6:	2200      	movs	r2, #0
100051b8:	2100      	movs	r1, #0
100051ba:	4802      	ldr	r0, [pc, #8]	; (100051c4 <dcd_set_address+0x10>)
100051bc:	f000 fa34 	bl	10005628 <hw_endpoint_xfer_start>
100051c0:	bd10      	pop	{r4, pc}
100051c2:	46c0      	nop			; (mov r8, r8)
100051c4:	200027ec 	.word	0x200027ec

100051c8 <dcd_connect>:
100051c8:	2280      	movs	r2, #128	; 0x80
100051ca:	4b02      	ldr	r3, [pc, #8]	; (100051d4 <dcd_connect+0xc>)
100051cc:	0252      	lsls	r2, r2, #9
100051ce:	64da      	str	r2, [r3, #76]	; 0x4c
100051d0:	4770      	bx	lr
100051d2:	46c0      	nop			; (mov r8, r8)
100051d4:	50112000 	.word	0x50112000

100051d8 <dcd_init>:
100051d8:	b5f0      	push	{r4, r5, r6, r7, lr}
100051da:	46c6      	mov	lr, r8
100051dc:	b500      	push	{lr}
100051de:	0006      	movs	r6, r0
100051e0:	f000 f9d4 	bl	1000558c <rp2040_usb_init>
100051e4:	230c      	movs	r3, #12
100051e6:	4d35      	ldr	r5, [pc, #212]	; (100052bc <dcd_init+0xe4>)
100051e8:	2005      	movs	r0, #5
100051ea:	67ab      	str	r3, [r5, #120]	; 0x78
100051ec:	4934      	ldr	r1, [pc, #208]	; (100052c0 <dcd_init+0xe8>)
100051ee:	f7fb fdf5 	bl	10000ddc <irq_set_exclusive_handler>
100051f2:	2340      	movs	r3, #64	; 0x40
100051f4:	4698      	mov	r8, r3
100051f6:	4c33      	ldr	r4, [pc, #204]	; (100052c4 <dcd_init+0xec>)
100051f8:	2240      	movs	r2, #64	; 0x40
100051fa:	2100      	movs	r1, #0
100051fc:	0020      	movs	r0, r4
100051fe:	f7ff fbcb 	bl	10004998 <__wrap_memset>
10005202:	4643      	mov	r3, r8
10005204:	2701      	movs	r7, #1
10005206:	83a3      	strh	r3, [r4, #28]
10005208:	2121      	movs	r1, #33	; 0x21
1000520a:	2300      	movs	r3, #0
1000520c:	4a2e      	ldr	r2, [pc, #184]	; (100052c8 <dcd_init+0xf0>)
1000520e:	7067      	strb	r7, [r4, #1]
10005210:	60a2      	str	r2, [r4, #8]
10005212:	6013      	str	r3, [r2, #0]
10005214:	5463      	strb	r3, [r4, r1]
10005216:	315f      	adds	r1, #95	; 0x5f
10005218:	8461      	strh	r1, [r4, #34]	; 0x22
1000521a:	4641      	mov	r1, r8
1000521c:	87a1      	strh	r1, [r4, #60]	; 0x3c
1000521e:	3902      	subs	r1, #2
10005220:	5463      	strb	r3, [r4, r1]
10005222:	4a2a      	ldr	r2, [pc, #168]	; (100052cc <dcd_init+0xf4>)
10005224:	492a      	ldr	r1, [pc, #168]	; (100052d0 <dcd_init+0xf8>)
10005226:	6063      	str	r3, [r4, #4]
10005228:	60e2      	str	r2, [r4, #12]
1000522a:	62a1      	str	r1, [r4, #40]	; 0x28
1000522c:	600b      	str	r3, [r1, #0]
1000522e:	62e2      	str	r2, [r4, #44]	; 0x2c
10005230:	4a28      	ldr	r2, [pc, #160]	; (100052d4 <dcd_init+0xfc>)
10005232:	6263      	str	r3, [r4, #36]	; 0x24
10005234:	6093      	str	r3, [r2, #8]
10005236:	60d3      	str	r3, [r2, #12]
10005238:	4a27      	ldr	r2, [pc, #156]	; (100052d8 <dcd_init+0x100>)
1000523a:	0020      	movs	r0, r4
1000523c:	6093      	str	r3, [r2, #8]
1000523e:	60d3      	str	r3, [r2, #12]
10005240:	4a26      	ldr	r2, [pc, #152]	; (100052dc <dcd_init+0x104>)
10005242:	2100      	movs	r1, #0
10005244:	6093      	str	r3, [r2, #8]
10005246:	60d3      	str	r3, [r2, #12]
10005248:	4a25      	ldr	r2, [pc, #148]	; (100052e0 <dcd_init+0x108>)
1000524a:	3040      	adds	r0, #64	; 0x40
1000524c:	6093      	str	r3, [r2, #8]
1000524e:	60d3      	str	r3, [r2, #12]
10005250:	4a24      	ldr	r2, [pc, #144]	; (100052e4 <dcd_init+0x10c>)
10005252:	6093      	str	r3, [r2, #8]
10005254:	60d3      	str	r3, [r2, #12]
10005256:	4a24      	ldr	r2, [pc, #144]	; (100052e8 <dcd_init+0x110>)
10005258:	6093      	str	r3, [r2, #8]
1000525a:	60d3      	str	r3, [r2, #12]
1000525c:	4a23      	ldr	r2, [pc, #140]	; (100052ec <dcd_init+0x114>)
1000525e:	6093      	str	r3, [r2, #8]
10005260:	60d3      	str	r3, [r2, #12]
10005262:	4a23      	ldr	r2, [pc, #140]	; (100052f0 <dcd_init+0x118>)
10005264:	6093      	str	r3, [r2, #8]
10005266:	60d3      	str	r3, [r2, #12]
10005268:	4a22      	ldr	r2, [pc, #136]	; (100052f4 <dcd_init+0x11c>)
1000526a:	6093      	str	r3, [r2, #8]
1000526c:	60d3      	str	r3, [r2, #12]
1000526e:	4a22      	ldr	r2, [pc, #136]	; (100052f8 <dcd_init+0x120>)
10005270:	6093      	str	r3, [r2, #8]
10005272:	60d3      	str	r3, [r2, #12]
10005274:	4a21      	ldr	r2, [pc, #132]	; (100052fc <dcd_init+0x124>)
10005276:	6093      	str	r3, [r2, #8]
10005278:	60d3      	str	r3, [r2, #12]
1000527a:	4a21      	ldr	r2, [pc, #132]	; (10005300 <dcd_init+0x128>)
1000527c:	6093      	str	r3, [r2, #8]
1000527e:	60d3      	str	r3, [r2, #12]
10005280:	4a20      	ldr	r2, [pc, #128]	; (10005304 <dcd_init+0x12c>)
10005282:	6093      	str	r3, [r2, #8]
10005284:	60d3      	str	r3, [r2, #12]
10005286:	4a20      	ldr	r2, [pc, #128]	; (10005308 <dcd_init+0x130>)
10005288:	6093      	str	r3, [r2, #8]
1000528a:	60d3      	str	r3, [r2, #12]
1000528c:	4a1f      	ldr	r2, [pc, #124]	; (1000530c <dcd_init+0x134>)
1000528e:	6093      	str	r3, [r2, #8]
10005290:	60d3      	str	r3, [r2, #12]
10005292:	22f0      	movs	r2, #240	; 0xf0
10005294:	0092      	lsls	r2, r2, #2
10005296:	f7ff fb7f 	bl	10004998 <__wrap_memset>
1000529a:	4b1d      	ldr	r3, [pc, #116]	; (10005310 <dcd_init+0x138>)
1000529c:	4a1d      	ldr	r2, [pc, #116]	; (10005314 <dcd_init+0x13c>)
1000529e:	0030      	movs	r0, r6
100052a0:	601a      	str	r2, [r3, #0]
100052a2:	2380      	movs	r3, #128	; 0x80
100052a4:	059b      	lsls	r3, r3, #22
100052a6:	642f      	str	r7, [r5, #64]	; 0x40
100052a8:	64eb      	str	r3, [r5, #76]	; 0x4c
100052aa:	2390      	movs	r3, #144	; 0x90
100052ac:	4a1a      	ldr	r2, [pc, #104]	; (10005318 <dcd_init+0x140>)
100052ae:	50ea      	str	r2, [r5, r3]
100052b0:	f7ff ff8a 	bl	100051c8 <dcd_connect>
100052b4:	bc80      	pop	{r7}
100052b6:	46b8      	mov	r8, r7
100052b8:	bdf0      	pop	{r4, r5, r6, r7, pc}
100052ba:	46c0      	nop			; (mov r8, r8)
100052bc:	50110000 	.word	0x50110000
100052c0:	10004f8d 	.word	0x10004f8d
100052c4:	200027cc 	.word	0x200027cc
100052c8:	50100084 	.word	0x50100084
100052cc:	50100100 	.word	0x50100100
100052d0:	50100080 	.word	0x50100080
100052d4:	50100000 	.word	0x50100000
100052d8:	50100008 	.word	0x50100008
100052dc:	50100010 	.word	0x50100010
100052e0:	50100018 	.word	0x50100018
100052e4:	50100020 	.word	0x50100020
100052e8:	50100028 	.word	0x50100028
100052ec:	50100030 	.word	0x50100030
100052f0:	50100038 	.word	0x50100038
100052f4:	50100040 	.word	0x50100040
100052f8:	50100048 	.word	0x50100048
100052fc:	50100050 	.word	0x50100050
10005300:	50100058 	.word	0x50100058
10005304:	50100060 	.word	0x50100060
10005308:	50100068 	.word	0x50100068
1000530c:	50100070 	.word	0x50100070
10005310:	20002bd4 	.word	0x20002bd4
10005314:	50100180 	.word	0x50100180
10005318:	0001d010 	.word	0x0001d010

1000531c <dcd_edpt0_status_complete>:
1000531c:	780b      	ldrb	r3, [r1, #0]
1000531e:	065b      	lsls	r3, r3, #25
10005320:	d102      	bne.n	10005328 <dcd_edpt0_status_complete+0xc>
10005322:	784b      	ldrb	r3, [r1, #1]
10005324:	2b05      	cmp	r3, #5
10005326:	d000      	beq.n	1000532a <dcd_edpt0_status_complete+0xe>
10005328:	4770      	bx	lr
1000532a:	788a      	ldrb	r2, [r1, #2]
1000532c:	4b01      	ldr	r3, [pc, #4]	; (10005334 <dcd_edpt0_status_complete+0x18>)
1000532e:	601a      	str	r2, [r3, #0]
10005330:	e7fa      	b.n	10005328 <dcd_edpt0_status_complete+0xc>
10005332:	46c0      	nop			; (mov r8, r8)
10005334:	50110000 	.word	0x50110000

10005338 <dcd_edpt_open>:
10005338:	b5f0      	push	{r4, r5, r6, r7, lr}
1000533a:	46ce      	mov	lr, r9
1000533c:	4647      	mov	r7, r8
1000533e:	2307      	movs	r3, #7
10005340:	b580      	push	{r7, lr}
10005342:	7948      	ldrb	r0, [r1, #5]
10005344:	788e      	ldrb	r6, [r1, #2]
10005346:	790a      	ldrb	r2, [r1, #4]
10005348:	4003      	ands	r3, r0
1000534a:	78c8      	ldrb	r0, [r1, #3]
1000534c:	217f      	movs	r1, #127	; 0x7f
1000534e:	0780      	lsls	r0, r0, #30
10005350:	4031      	ands	r1, r6
10005352:	021b      	lsls	r3, r3, #8
10005354:	09f4      	lsrs	r4, r6, #7
10005356:	4313      	orrs	r3, r2
10005358:	004f      	lsls	r7, r1, #1
1000535a:	0f82      	lsrs	r2, r0, #30
1000535c:	4694      	mov	ip, r2
1000535e:	4691      	mov	r9, r2
10005360:	4d2a      	ldr	r5, [pc, #168]	; (1000540c <dcd_edpt_open+0xd4>)
10005362:	193a      	adds	r2, r7, r4
10005364:	0152      	lsls	r2, r2, #5
10005366:	18aa      	adds	r2, r5, r2
10005368:	7096      	strb	r6, [r2, #2]
1000536a:	2601      	movs	r6, #1
1000536c:	4066      	eors	r6, r4
1000536e:	7056      	strb	r6, [r2, #1]
10005370:	4660      	mov	r0, ip
10005372:	2600      	movs	r6, #0
10005374:	8393      	strh	r3, [r2, #28]
10005376:	70d6      	strb	r6, [r2, #3]
10005378:	7790      	strb	r0, [r2, #30]
1000537a:	00ca      	lsls	r2, r1, #3
1000537c:	2c01      	cmp	r4, #1
1000537e:	d029      	beq.n	100053d4 <dcd_edpt_open+0x9c>
10005380:	4823      	ldr	r0, [pc, #140]	; (10005410 <dcd_edpt_open+0xd8>)
10005382:	4684      	mov	ip, r0
10005384:	0188      	lsls	r0, r1, #6
10005386:	4462      	add	r2, ip
10005388:	4684      	mov	ip, r0
1000538a:	44ac      	add	ip, r5
1000538c:	4660      	mov	r0, ip
1000538e:	6082      	str	r2, [r0, #8]
10005390:	6016      	str	r6, [r2, #0]
10005392:	2900      	cmp	r1, #0
10005394:	d029      	beq.n	100053ea <dcd_edpt_open+0xb2>
10005396:	4a1f      	ldr	r2, [pc, #124]	; (10005414 <dcd_edpt_open+0xdc>)
10005398:	00c9      	lsls	r1, r1, #3
1000539a:	4690      	mov	r8, r2
1000539c:	4441      	add	r1, r8
1000539e:	6041      	str	r1, [r0, #4]
100053a0:	223f      	movs	r2, #63	; 0x3f
100053a2:	333f      	adds	r3, #63	; 0x3f
100053a4:	4393      	bics	r3, r2
100053a6:	464a      	mov	r2, r9
100053a8:	2a02      	cmp	r2, #2
100053aa:	d100      	bne.n	100053ae <dcd_edpt_open+0x76>
100053ac:	005b      	lsls	r3, r3, #1
100053ae:	491a      	ldr	r1, [pc, #104]	; (10005418 <dcd_edpt_open+0xe0>)
100053b0:	193f      	adds	r7, r7, r4
100053b2:	680a      	ldr	r2, [r1, #0]
100053b4:	017f      	lsls	r7, r7, #5
100053b6:	18d3      	adds	r3, r2, r3
100053b8:	600b      	str	r3, [r1, #0]
100053ba:	4b18      	ldr	r3, [pc, #96]	; (1000541c <dcd_edpt_open+0xe4>)
100053bc:	19ed      	adds	r5, r5, r7
100053be:	4053      	eors	r3, r2
100053c0:	60ea      	str	r2, [r5, #12]
100053c2:	464a      	mov	r2, r9
100053c4:	0690      	lsls	r0, r2, #26
100053c6:	4318      	orrs	r0, r3
100053c8:	2380      	movs	r3, #128	; 0x80
100053ca:	061b      	lsls	r3, r3, #24
100053cc:	4318      	orrs	r0, r3
100053ce:	686b      	ldr	r3, [r5, #4]
100053d0:	6018      	str	r0, [r3, #0]
100053d2:	e010      	b.n	100053f6 <dcd_edpt_open+0xbe>
100053d4:	4812      	ldr	r0, [pc, #72]	; (10005420 <dcd_edpt_open+0xe8>)
100053d6:	4684      	mov	ip, r0
100053d8:	0188      	lsls	r0, r1, #6
100053da:	4462      	add	r2, ip
100053dc:	4684      	mov	ip, r0
100053de:	44ac      	add	ip, r5
100053e0:	4660      	mov	r0, ip
100053e2:	6282      	str	r2, [r0, #40]	; 0x28
100053e4:	6016      	str	r6, [r2, #0]
100053e6:	2900      	cmp	r1, #0
100053e8:	d10a      	bne.n	10005400 <dcd_edpt_open+0xc8>
100053ea:	2300      	movs	r3, #0
100053ec:	0164      	lsls	r4, r4, #5
100053ee:	192d      	adds	r5, r5, r4
100053f0:	606b      	str	r3, [r5, #4]
100053f2:	4b0c      	ldr	r3, [pc, #48]	; (10005424 <dcd_edpt_open+0xec>)
100053f4:	60eb      	str	r3, [r5, #12]
100053f6:	2001      	movs	r0, #1
100053f8:	bcc0      	pop	{r6, r7}
100053fa:	46b9      	mov	r9, r7
100053fc:	46b0      	mov	r8, r6
100053fe:	bdf0      	pop	{r4, r5, r6, r7, pc}
10005400:	4a06      	ldr	r2, [pc, #24]	; (1000541c <dcd_edpt_open+0xe4>)
10005402:	00c9      	lsls	r1, r1, #3
10005404:	4690      	mov	r8, r2
10005406:	4441      	add	r1, r8
10005408:	6241      	str	r1, [r0, #36]	; 0x24
1000540a:	e7c9      	b.n	100053a0 <dcd_edpt_open+0x68>
1000540c:	200027cc 	.word	0x200027cc
10005410:	50100084 	.word	0x50100084
10005414:	50100004 	.word	0x50100004
10005418:	20002bd4 	.word	0x20002bd4
1000541c:	50100000 	.word	0x50100000
10005420:	50100080 	.word	0x50100080
10005424:	50100100 	.word	0x50100100

10005428 <dcd_edpt_close_all>:
10005428:	2300      	movs	r3, #0
1000542a:	4a1c      	ldr	r2, [pc, #112]	; (1000549c <dcd_edpt_close_all+0x74>)
1000542c:	b510      	push	{r4, lr}
1000542e:	6093      	str	r3, [r2, #8]
10005430:	60d3      	str	r3, [r2, #12]
10005432:	4a1b      	ldr	r2, [pc, #108]	; (100054a0 <dcd_edpt_close_all+0x78>)
10005434:	2100      	movs	r1, #0
10005436:	6093      	str	r3, [r2, #8]
10005438:	60d3      	str	r3, [r2, #12]
1000543a:	4a1a      	ldr	r2, [pc, #104]	; (100054a4 <dcd_edpt_close_all+0x7c>)
1000543c:	481a      	ldr	r0, [pc, #104]	; (100054a8 <dcd_edpt_close_all+0x80>)
1000543e:	6093      	str	r3, [r2, #8]
10005440:	60d3      	str	r3, [r2, #12]
10005442:	4a1a      	ldr	r2, [pc, #104]	; (100054ac <dcd_edpt_close_all+0x84>)
10005444:	6093      	str	r3, [r2, #8]
10005446:	60d3      	str	r3, [r2, #12]
10005448:	4a19      	ldr	r2, [pc, #100]	; (100054b0 <dcd_edpt_close_all+0x88>)
1000544a:	6093      	str	r3, [r2, #8]
1000544c:	60d3      	str	r3, [r2, #12]
1000544e:	4a19      	ldr	r2, [pc, #100]	; (100054b4 <dcd_edpt_close_all+0x8c>)
10005450:	6093      	str	r3, [r2, #8]
10005452:	60d3      	str	r3, [r2, #12]
10005454:	4a18      	ldr	r2, [pc, #96]	; (100054b8 <dcd_edpt_close_all+0x90>)
10005456:	6093      	str	r3, [r2, #8]
10005458:	60d3      	str	r3, [r2, #12]
1000545a:	4a18      	ldr	r2, [pc, #96]	; (100054bc <dcd_edpt_close_all+0x94>)
1000545c:	6093      	str	r3, [r2, #8]
1000545e:	60d3      	str	r3, [r2, #12]
10005460:	4a17      	ldr	r2, [pc, #92]	; (100054c0 <dcd_edpt_close_all+0x98>)
10005462:	6093      	str	r3, [r2, #8]
10005464:	60d3      	str	r3, [r2, #12]
10005466:	4a17      	ldr	r2, [pc, #92]	; (100054c4 <dcd_edpt_close_all+0x9c>)
10005468:	6093      	str	r3, [r2, #8]
1000546a:	60d3      	str	r3, [r2, #12]
1000546c:	4a16      	ldr	r2, [pc, #88]	; (100054c8 <dcd_edpt_close_all+0xa0>)
1000546e:	6093      	str	r3, [r2, #8]
10005470:	60d3      	str	r3, [r2, #12]
10005472:	4a16      	ldr	r2, [pc, #88]	; (100054cc <dcd_edpt_close_all+0xa4>)
10005474:	6093      	str	r3, [r2, #8]
10005476:	60d3      	str	r3, [r2, #12]
10005478:	4a15      	ldr	r2, [pc, #84]	; (100054d0 <dcd_edpt_close_all+0xa8>)
1000547a:	6093      	str	r3, [r2, #8]
1000547c:	60d3      	str	r3, [r2, #12]
1000547e:	4a15      	ldr	r2, [pc, #84]	; (100054d4 <dcd_edpt_close_all+0xac>)
10005480:	6093      	str	r3, [r2, #8]
10005482:	60d3      	str	r3, [r2, #12]
10005484:	4a14      	ldr	r2, [pc, #80]	; (100054d8 <dcd_edpt_close_all+0xb0>)
10005486:	6093      	str	r3, [r2, #8]
10005488:	60d3      	str	r3, [r2, #12]
1000548a:	22f0      	movs	r2, #240	; 0xf0
1000548c:	0092      	lsls	r2, r2, #2
1000548e:	f7ff fa83 	bl	10004998 <__wrap_memset>
10005492:	4b12      	ldr	r3, [pc, #72]	; (100054dc <dcd_edpt_close_all+0xb4>)
10005494:	4a12      	ldr	r2, [pc, #72]	; (100054e0 <dcd_edpt_close_all+0xb8>)
10005496:	601a      	str	r2, [r3, #0]
10005498:	bd10      	pop	{r4, pc}
1000549a:	46c0      	nop			; (mov r8, r8)
1000549c:	50100000 	.word	0x50100000
100054a0:	50100008 	.word	0x50100008
100054a4:	50100010 	.word	0x50100010
100054a8:	2000280c 	.word	0x2000280c
100054ac:	50100018 	.word	0x50100018
100054b0:	50100020 	.word	0x50100020
100054b4:	50100028 	.word	0x50100028
100054b8:	50100030 	.word	0x50100030
100054bc:	50100038 	.word	0x50100038
100054c0:	50100040 	.word	0x50100040
100054c4:	50100048 	.word	0x50100048
100054c8:	50100050 	.word	0x50100050
100054cc:	50100058 	.word	0x50100058
100054d0:	50100060 	.word	0x50100060
100054d4:	50100068 	.word	0x50100068
100054d8:	50100070 	.word	0x50100070
100054dc:	20002bd4 	.word	0x20002bd4
100054e0:	50100180 	.word	0x50100180

100054e4 <dcd_edpt_xfer>:
100054e4:	b510      	push	{r4, lr}
100054e6:	207f      	movs	r0, #127	; 0x7f
100054e8:	000c      	movs	r4, r1
100054ea:	4020      	ands	r0, r4
100054ec:	0040      	lsls	r0, r0, #1
100054ee:	09e4      	lsrs	r4, r4, #7
100054f0:	0011      	movs	r1, r2
100054f2:	1900      	adds	r0, r0, r4
100054f4:	001a      	movs	r2, r3
100054f6:	4b03      	ldr	r3, [pc, #12]	; (10005504 <dcd_edpt_xfer+0x20>)
100054f8:	0140      	lsls	r0, r0, #5
100054fa:	18c0      	adds	r0, r0, r3
100054fc:	f000 f894 	bl	10005628 <hw_endpoint_xfer_start>
10005500:	2001      	movs	r0, #1
10005502:	bd10      	pop	{r4, pc}
10005504:	200027cc 	.word	0x200027cc

10005508 <dcd_edpt_stall>:
10005508:	227f      	movs	r2, #127	; 0x7f
1000550a:	0013      	movs	r3, r2
1000550c:	b510      	push	{r4, lr}
1000550e:	400b      	ands	r3, r1
10005510:	420a      	tst	r2, r1
10005512:	d00b      	beq.n	1000552c <dcd_edpt_stall+0x24>
10005514:	09c9      	lsrs	r1, r1, #7
10005516:	2280      	movs	r2, #128	; 0x80
10005518:	0058      	lsls	r0, r3, #1
1000551a:	1840      	adds	r0, r0, r1
1000551c:	4906      	ldr	r1, [pc, #24]	; (10005538 <dcd_edpt_stall+0x30>)
1000551e:	0140      	lsls	r0, r0, #5
10005520:	1840      	adds	r0, r0, r1
10005522:	0112      	lsls	r2, r2, #4
10005524:	2100      	movs	r1, #0
10005526:	f000 f85d 	bl	100055e4 <_hw_endpoint_buffer_control_update32>
1000552a:	bd10      	pop	{r4, pc}
1000552c:	2202      	movs	r2, #2
1000552e:	4803      	ldr	r0, [pc, #12]	; (1000553c <dcd_edpt_stall+0x34>)
10005530:	09c9      	lsrs	r1, r1, #7
10005532:	1a52      	subs	r2, r2, r1
10005534:	6682      	str	r2, [r0, #104]	; 0x68
10005536:	e7ee      	b.n	10005516 <dcd_edpt_stall+0xe>
10005538:	200027cc 	.word	0x200027cc
1000553c:	50112000 	.word	0x50112000

10005540 <dcd_edpt_clear_stall>:
10005540:	227f      	movs	r2, #127	; 0x7f
10005542:	0010      	movs	r0, r2
10005544:	b510      	push	{r4, lr}
10005546:	4008      	ands	r0, r1
10005548:	420a      	tst	r2, r1
1000554a:	d100      	bne.n	1000554e <dcd_edpt_clear_stall+0xe>
1000554c:	bd10      	pop	{r4, pc}
1000554e:	2300      	movs	r3, #0
10005550:	09c9      	lsrs	r1, r1, #7
10005552:	0040      	lsls	r0, r0, #1
10005554:	1840      	adds	r0, r0, r1
10005556:	4904      	ldr	r1, [pc, #16]	; (10005568 <dcd_edpt_clear_stall+0x28>)
10005558:	0140      	lsls	r0, r0, #5
1000555a:	1808      	adds	r0, r1, r0
1000555c:	2200      	movs	r2, #0
1000555e:	4903      	ldr	r1, [pc, #12]	; (1000556c <dcd_edpt_clear_stall+0x2c>)
10005560:	70c3      	strb	r3, [r0, #3]
10005562:	f000 f83f 	bl	100055e4 <_hw_endpoint_buffer_control_update32>
10005566:	e7f1      	b.n	1000554c <dcd_edpt_clear_stall+0xc>
10005568:	200027cc 	.word	0x200027cc
1000556c:	fffff7ff 	.word	0xfffff7ff

10005570 <_hw_endpoint_buffer_control_update32.part.0.isra.0>:
10005570:	217f      	movs	r1, #127	; 0x7f
10005572:	09c3      	lsrs	r3, r0, #7
10005574:	4a03      	ldr	r2, [pc, #12]	; (10005584 <_hw_endpoint_buffer_control_update32.part.0.isra.0+0x14>)
10005576:	009b      	lsls	r3, r3, #2
10005578:	4001      	ands	r1, r0
1000557a:	b510      	push	{r4, lr}
1000557c:	589a      	ldr	r2, [r3, r2]
1000557e:	4802      	ldr	r0, [pc, #8]	; (10005588 <_hw_endpoint_buffer_control_update32.part.0.isra.0+0x18>)
10005580:	f7fc fdfa 	bl	10002178 <panic>
10005584:	20001a10 	.word	0x20001a10
10005588:	10007ca0 	.word	0x10007ca0

1000558c <rp2040_usb_init>:
1000558c:	2280      	movs	r2, #128	; 0x80
1000558e:	4b0d      	ldr	r3, [pc, #52]	; (100055c4 <rp2040_usb_init+0x38>)
10005590:	0452      	lsls	r2, r2, #17
10005592:	b510      	push	{r4, lr}
10005594:	601a      	str	r2, [r3, #0]
10005596:	4b0c      	ldr	r3, [pc, #48]	; (100055c8 <rp2040_usb_init+0x3c>)
10005598:	490c      	ldr	r1, [pc, #48]	; (100055cc <rp2040_usb_init+0x40>)
1000559a:	601a      	str	r2, [r3, #0]
1000559c:	0010      	movs	r0, r2
1000559e:	688b      	ldr	r3, [r1, #8]
100055a0:	4398      	bics	r0, r3
100055a2:	d1fb      	bne.n	1000559c <rp2040_usb_init+0x10>
100055a4:	4c0a      	ldr	r4, [pc, #40]	; (100055d0 <rp2040_usb_init+0x44>)
100055a6:	229c      	movs	r2, #156	; 0x9c
100055a8:	2100      	movs	r1, #0
100055aa:	0020      	movs	r0, r4
100055ac:	f7ff f9f4 	bl	10004998 <__wrap_memset>
100055b0:	2280      	movs	r2, #128	; 0x80
100055b2:	2100      	movs	r1, #0
100055b4:	0152      	lsls	r2, r2, #5
100055b6:	4807      	ldr	r0, [pc, #28]	; (100055d4 <rp2040_usb_init+0x48>)
100055b8:	f7ff f9ee 	bl	10004998 <__wrap_memset>
100055bc:	2309      	movs	r3, #9
100055be:	6763      	str	r3, [r4, #116]	; 0x74
100055c0:	bd10      	pop	{r4, pc}
100055c2:	46c0      	nop			; (mov r8, r8)
100055c4:	4000e000 	.word	0x4000e000
100055c8:	4000f000 	.word	0x4000f000
100055cc:	4000c000 	.word	0x4000c000
100055d0:	50110000 	.word	0x50110000
100055d4:	50100000 	.word	0x50100000

100055d8 <hw_endpoint_reset_transfer>:
100055d8:	2300      	movs	r3, #0
100055da:	7403      	strb	r3, [r0, #16]
100055dc:	8243      	strh	r3, [r0, #18]
100055de:	8283      	strh	r3, [r0, #20]
100055e0:	6183      	str	r3, [r0, #24]
100055e2:	4770      	bx	lr

100055e4 <_hw_endpoint_buffer_control_update32>:
100055e4:	b510      	push	{r4, lr}
100055e6:	6883      	ldr	r3, [r0, #8]
100055e8:	2900      	cmp	r1, #0
100055ea:	d001      	beq.n	100055f0 <_hw_endpoint_buffer_control_update32+0xc>
100055ec:	681c      	ldr	r4, [r3, #0]
100055ee:	4021      	ands	r1, r4
100055f0:	2a00      	cmp	r2, #0
100055f2:	d011      	beq.n	10005618 <_hw_endpoint_buffer_control_update32+0x34>
100055f4:	2480      	movs	r4, #128	; 0x80
100055f6:	00e4      	lsls	r4, r4, #3
100055f8:	4311      	orrs	r1, r2
100055fa:	4222      	tst	r2, r4
100055fc:	d00c      	beq.n	10005618 <_hw_endpoint_buffer_control_update32+0x34>
100055fe:	681a      	ldr	r2, [r3, #0]
10005600:	4222      	tst	r2, r4
10005602:	d10b      	bne.n	1000561c <_hw_endpoint_buffer_control_update32+0x38>
10005604:	4a07      	ldr	r2, [pc, #28]	; (10005624 <_hw_endpoint_buffer_control_update32+0x40>)
10005606:	400a      	ands	r2, r1
10005608:	601a      	str	r2, [r3, #0]
1000560a:	e7ff      	b.n	1000560c <_hw_endpoint_buffer_control_update32+0x28>
1000560c:	e7ff      	b.n	1000560e <_hw_endpoint_buffer_control_update32+0x2a>
1000560e:	e7ff      	b.n	10005610 <_hw_endpoint_buffer_control_update32+0x2c>
10005610:	e7ff      	b.n	10005612 <_hw_endpoint_buffer_control_update32+0x2e>
10005612:	e7ff      	b.n	10005614 <_hw_endpoint_buffer_control_update32+0x30>
10005614:	e7ff      	b.n	10005616 <_hw_endpoint_buffer_control_update32+0x32>
10005616:	6883      	ldr	r3, [r0, #8]
10005618:	6019      	str	r1, [r3, #0]
1000561a:	bd10      	pop	{r4, pc}
1000561c:	7880      	ldrb	r0, [r0, #2]
1000561e:	f7ff ffa7 	bl	10005570 <_hw_endpoint_buffer_control_update32.part.0.isra.0>
10005622:	46c0      	nop			; (mov r8, r8)
10005624:	fffffbff 	.word	0xfffffbff

10005628 <hw_endpoint_xfer_start>:
10005628:	b5f0      	push	{r4, r5, r6, r7, lr}
1000562a:	46c6      	mov	lr, r8
1000562c:	2300      	movs	r3, #0
1000562e:	b500      	push	{lr}
10005630:	8283      	strh	r3, [r0, #20]
10005632:	3301      	adds	r3, #1
10005634:	7403      	strb	r3, [r0, #16]
10005636:	6843      	ldr	r3, [r0, #4]
10005638:	0004      	movs	r4, r0
1000563a:	681e      	ldr	r6, [r3, #0]
1000563c:	8b83      	ldrh	r3, [r0, #28]
1000563e:	6181      	str	r1, [r0, #24]
10005640:	1c1f      	adds	r7, r3, #0
10005642:	4293      	cmp	r3, r2
10005644:	d900      	bls.n	10005648 <hw_endpoint_xfer_start+0x20>
10005646:	1c17      	adds	r7, r2, #0
10005648:	2580      	movs	r5, #128	; 0x80
1000564a:	b2bf      	uxth	r7, r7
1000564c:	1bd2      	subs	r2, r2, r7
1000564e:	b293      	uxth	r3, r2
10005650:	78e2      	ldrb	r2, [r4, #3]
10005652:	00ed      	lsls	r5, r5, #3
10005654:	8263      	strh	r3, [r4, #18]
10005656:	433d      	orrs	r5, r7
10005658:	2a00      	cmp	r2, #0
1000565a:	d002      	beq.n	10005662 <hw_endpoint_xfer_start+0x3a>
1000565c:	2590      	movs	r5, #144	; 0x90
1000565e:	01ad      	lsls	r5, r5, #6
10005660:	433d      	orrs	r5, r7
10005662:	2001      	movs	r0, #1
10005664:	4042      	eors	r2, r0
10005666:	70e2      	strb	r2, [r4, #3]
10005668:	7862      	ldrb	r2, [r4, #1]
1000566a:	2a00      	cmp	r2, #0
1000566c:	d051      	beq.n	10005712 <hw_endpoint_xfer_start+0xea>
1000566e:	2b00      	cmp	r3, #0
10005670:	d11d      	bne.n	100056ae <hw_endpoint_xfer_start+0x86>
10005672:	23a0      	movs	r3, #160	; 0xa0
10005674:	01db      	lsls	r3, r3, #7
10005676:	431d      	orrs	r5, r3
10005678:	4b35      	ldr	r3, [pc, #212]	; (10005750 <hw_endpoint_xfer_start+0x128>)
1000567a:	6c1b      	ldr	r3, [r3, #64]	; 0x40
1000567c:	4b35      	ldr	r3, [pc, #212]	; (10005754 <hw_endpoint_xfer_start+0x12c>)
1000567e:	4033      	ands	r3, r6
10005680:	2680      	movs	r6, #128	; 0x80
10005682:	05b6      	lsls	r6, r6, #22
10005684:	431e      	orrs	r6, r3
10005686:	6863      	ldr	r3, [r4, #4]
10005688:	68a2      	ldr	r2, [r4, #8]
1000568a:	601e      	str	r6, [r3, #0]
1000568c:	6813      	ldr	r3, [r2, #0]
1000568e:	055b      	lsls	r3, r3, #21
10005690:	d45a      	bmi.n	10005748 <hw_endpoint_xfer_start+0x120>
10005692:	4b31      	ldr	r3, [pc, #196]	; (10005758 <hw_endpoint_xfer_start+0x130>)
10005694:	402b      	ands	r3, r5
10005696:	6013      	str	r3, [r2, #0]
10005698:	e7ff      	b.n	1000569a <hw_endpoint_xfer_start+0x72>
1000569a:	e7ff      	b.n	1000569c <hw_endpoint_xfer_start+0x74>
1000569c:	e7ff      	b.n	1000569e <hw_endpoint_xfer_start+0x76>
1000569e:	e7ff      	b.n	100056a0 <hw_endpoint_xfer_start+0x78>
100056a0:	e7ff      	b.n	100056a2 <hw_endpoint_xfer_start+0x7a>
100056a2:	e7ff      	b.n	100056a4 <hw_endpoint_xfer_start+0x7c>
100056a4:	68a3      	ldr	r3, [r4, #8]
100056a6:	601d      	str	r5, [r3, #0]
100056a8:	bc80      	pop	{r7}
100056aa:	46b8      	mov	r8, r7
100056ac:	bdf0      	pop	{r4, r5, r6, r7, pc}
100056ae:	2280      	movs	r2, #128	; 0x80
100056b0:	0152      	lsls	r2, r2, #5
100056b2:	4315      	orrs	r5, r2
100056b4:	4a26      	ldr	r2, [pc, #152]	; (10005750 <hw_endpoint_xfer_start+0x128>)
100056b6:	6c12      	ldr	r2, [r2, #64]	; 0x40
100056b8:	0792      	lsls	r2, r2, #30
100056ba:	d403      	bmi.n	100056c4 <hw_endpoint_xfer_start+0x9c>
100056bc:	78a2      	ldrb	r2, [r4, #2]
100056be:	09d2      	lsrs	r2, r2, #7
100056c0:	2a01      	cmp	r2, #1
100056c2:	d1db      	bne.n	1000567c <hw_endpoint_xfer_start+0x54>
100056c4:	8ba2      	ldrh	r2, [r4, #28]
100056c6:	1c11      	adds	r1, r2, #0
100056c8:	429a      	cmp	r2, r3
100056ca:	d900      	bls.n	100056ce <hw_endpoint_xfer_start+0xa6>
100056cc:	1c19      	adds	r1, r3, #0
100056ce:	2780      	movs	r7, #128	; 0x80
100056d0:	b28a      	uxth	r2, r1
100056d2:	00ff      	lsls	r7, r7, #3
100056d4:	1a9b      	subs	r3, r3, r2
100056d6:	4690      	mov	r8, r2
100056d8:	4317      	orrs	r7, r2
100056da:	78e2      	ldrb	r2, [r4, #3]
100056dc:	b29b      	uxth	r3, r3
100056de:	8263      	strh	r3, [r4, #18]
100056e0:	2a00      	cmp	r2, #0
100056e2:	d003      	beq.n	100056ec <hw_endpoint_xfer_start+0xc4>
100056e4:	2790      	movs	r7, #144	; 0x90
100056e6:	4641      	mov	r1, r8
100056e8:	01bf      	lsls	r7, r7, #6
100056ea:	430f      	orrs	r7, r1
100056ec:	2101      	movs	r1, #1
100056ee:	404a      	eors	r2, r1
100056f0:	70e2      	strb	r2, [r4, #3]
100056f2:	7862      	ldrb	r2, [r4, #1]
100056f4:	2a00      	cmp	r2, #0
100056f6:	d019      	beq.n	1000572c <hw_endpoint_xfer_start+0x104>
100056f8:	2b00      	cmp	r3, #0
100056fa:	d102      	bne.n	10005702 <hw_endpoint_xfer_start+0xda>
100056fc:	2380      	movs	r3, #128	; 0x80
100056fe:	01db      	lsls	r3, r3, #7
10005700:	431f      	orrs	r7, r3
10005702:	4b16      	ldr	r3, [pc, #88]	; (1000575c <hw_endpoint_xfer_start+0x134>)
10005704:	043f      	lsls	r7, r7, #16
10005706:	4033      	ands	r3, r6
10005708:	26a0      	movs	r6, #160	; 0xa0
1000570a:	05f6      	lsls	r6, r6, #23
1000570c:	433d      	orrs	r5, r7
1000570e:	431e      	orrs	r6, r3
10005710:	e7b9      	b.n	10005686 <hw_endpoint_xfer_start+0x5e>
10005712:	003a      	movs	r2, r7
10005714:	68e0      	ldr	r0, [r4, #12]
10005716:	f7ff f945 	bl	100049a4 <__wrap___aeabi_memcpy>
1000571a:	69a3      	ldr	r3, [r4, #24]
1000571c:	469c      	mov	ip, r3
1000571e:	2380      	movs	r3, #128	; 0x80
10005720:	4467      	add	r7, ip
10005722:	021b      	lsls	r3, r3, #8
10005724:	431d      	orrs	r5, r3
10005726:	61a7      	str	r7, [r4, #24]
10005728:	8a63      	ldrh	r3, [r4, #18]
1000572a:	e7a0      	b.n	1000566e <hw_endpoint_xfer_start+0x46>
1000572c:	68e0      	ldr	r0, [r4, #12]
1000572e:	4642      	mov	r2, r8
10005730:	69a1      	ldr	r1, [r4, #24]
10005732:	3040      	adds	r0, #64	; 0x40
10005734:	f7ff f936 	bl	100049a4 <__wrap___aeabi_memcpy>
10005738:	69a3      	ldr	r3, [r4, #24]
1000573a:	4443      	add	r3, r8
1000573c:	61a3      	str	r3, [r4, #24]
1000573e:	2380      	movs	r3, #128	; 0x80
10005740:	021b      	lsls	r3, r3, #8
10005742:	431f      	orrs	r7, r3
10005744:	8a63      	ldrh	r3, [r4, #18]
10005746:	e7d7      	b.n	100056f8 <hw_endpoint_xfer_start+0xd0>
10005748:	78a0      	ldrb	r0, [r4, #2]
1000574a:	f7ff ff11 	bl	10005570 <_hw_endpoint_buffer_control_update32.part.0.isra.0>
1000574e:	46c0      	nop			; (mov r8, r8)
10005750:	50110000 	.word	0x50110000
10005754:	afffffff 	.word	0xafffffff
10005758:	fffffbff 	.word	0xfffffbff
1000575c:	dfffffff 	.word	0xdfffffff

10005760 <hw_endpoint_xfer_continue>:
10005760:	b5f0      	push	{r4, r5, r6, r7, lr}
10005762:	46c6      	mov	lr, r8
10005764:	b500      	push	{lr}
10005766:	7c06      	ldrb	r6, [r0, #16]
10005768:	0004      	movs	r4, r0
1000576a:	2e00      	cmp	r6, #0
1000576c:	d100      	bne.n	10005770 <hw_endpoint_xfer_continue+0x10>
1000576e:	e0d3      	b.n	10005918 <hw_endpoint_xfer_continue+0x1b8>
10005770:	6883      	ldr	r3, [r0, #8]
10005772:	681a      	ldr	r2, [r3, #0]
10005774:	681d      	ldr	r5, [r3, #0]
10005776:	7843      	ldrb	r3, [r0, #1]
10005778:	05ad      	lsls	r5, r5, #22
1000577a:	0dad      	lsrs	r5, r5, #22
1000577c:	2b00      	cmp	r3, #0
1000577e:	d151      	bne.n	10005824 <hw_endpoint_xfer_continue+0xc4>
10005780:	8a83      	ldrh	r3, [r0, #20]
10005782:	18eb      	adds	r3, r5, r3
10005784:	b29b      	uxth	r3, r3
10005786:	8283      	strh	r3, [r0, #20]
10005788:	8ba1      	ldrh	r1, [r4, #28]
1000578a:	428d      	cmp	r5, r1
1000578c:	d207      	bcs.n	1000579e <hw_endpoint_xfer_continue+0x3e>
1000578e:	2300      	movs	r3, #0
10005790:	8263      	strh	r3, [r4, #18]
10005792:	6863      	ldr	r3, [r4, #4]
10005794:	681b      	ldr	r3, [r3, #0]
10005796:	0030      	movs	r0, r6
10005798:	bc80      	pop	{r7}
1000579a:	46b8      	mov	r8, r7
1000579c:	bdf0      	pop	{r4, r5, r6, r7, pc}
1000579e:	6862      	ldr	r2, [r4, #4]
100057a0:	6812      	ldr	r2, [r2, #0]
100057a2:	0052      	lsls	r2, r2, #1
100057a4:	d502      	bpl.n	100057ac <hw_endpoint_xfer_continue+0x4c>
100057a6:	428d      	cmp	r5, r1
100057a8:	d100      	bne.n	100057ac <hw_endpoint_xfer_continue+0x4c>
100057aa:	e075      	b.n	10005898 <hw_endpoint_xfer_continue+0x138>
100057ac:	8a63      	ldrh	r3, [r4, #18]
100057ae:	2b00      	cmp	r3, #0
100057b0:	d0f1      	beq.n	10005796 <hw_endpoint_xfer_continue+0x36>
100057b2:	6862      	ldr	r2, [r4, #4]
100057b4:	1c1f      	adds	r7, r3, #0
100057b6:	6816      	ldr	r6, [r2, #0]
100057b8:	428b      	cmp	r3, r1
100057ba:	d900      	bls.n	100057be <hw_endpoint_xfer_continue+0x5e>
100057bc:	1c0f      	adds	r7, r1, #0
100057be:	2580      	movs	r5, #128	; 0x80
100057c0:	b2bf      	uxth	r7, r7
100057c2:	1bdb      	subs	r3, r3, r7
100057c4:	78e2      	ldrb	r2, [r4, #3]
100057c6:	b29b      	uxth	r3, r3
100057c8:	00ed      	lsls	r5, r5, #3
100057ca:	8263      	strh	r3, [r4, #18]
100057cc:	433d      	orrs	r5, r7
100057ce:	2a00      	cmp	r2, #0
100057d0:	d002      	beq.n	100057d8 <hw_endpoint_xfer_continue+0x78>
100057d2:	2590      	movs	r5, #144	; 0x90
100057d4:	01ad      	lsls	r5, r5, #6
100057d6:	433d      	orrs	r5, r7
100057d8:	2101      	movs	r1, #1
100057da:	404a      	eors	r2, r1
100057dc:	70e2      	strb	r2, [r4, #3]
100057de:	7862      	ldrb	r2, [r4, #1]
100057e0:	2a00      	cmp	r2, #0
100057e2:	d068      	beq.n	100058b6 <hw_endpoint_xfer_continue+0x156>
100057e4:	2b00      	cmp	r3, #0
100057e6:	d12a      	bne.n	1000583e <hw_endpoint_xfer_continue+0xde>
100057e8:	23a0      	movs	r3, #160	; 0xa0
100057ea:	01db      	lsls	r3, r3, #7
100057ec:	431d      	orrs	r5, r3
100057ee:	4b4f      	ldr	r3, [pc, #316]	; (1000592c <hw_endpoint_xfer_continue+0x1cc>)
100057f0:	6c1b      	ldr	r3, [r3, #64]	; 0x40
100057f2:	4b4f      	ldr	r3, [pc, #316]	; (10005930 <hw_endpoint_xfer_continue+0x1d0>)
100057f4:	4033      	ands	r3, r6
100057f6:	2680      	movs	r6, #128	; 0x80
100057f8:	05b6      	lsls	r6, r6, #22
100057fa:	431e      	orrs	r6, r3
100057fc:	6863      	ldr	r3, [r4, #4]
100057fe:	68a2      	ldr	r2, [r4, #8]
10005800:	601e      	str	r6, [r3, #0]
10005802:	6813      	ldr	r3, [r2, #0]
10005804:	055b      	lsls	r3, r3, #21
10005806:	d500      	bpl.n	1000580a <hw_endpoint_xfer_continue+0xaa>
10005808:	e08d      	b.n	10005926 <hw_endpoint_xfer_continue+0x1c6>
1000580a:	4b4a      	ldr	r3, [pc, #296]	; (10005934 <hw_endpoint_xfer_continue+0x1d4>)
1000580c:	402b      	ands	r3, r5
1000580e:	6013      	str	r3, [r2, #0]
10005810:	e7ff      	b.n	10005812 <hw_endpoint_xfer_continue+0xb2>
10005812:	e7ff      	b.n	10005814 <hw_endpoint_xfer_continue+0xb4>
10005814:	e7ff      	b.n	10005816 <hw_endpoint_xfer_continue+0xb6>
10005816:	e7ff      	b.n	10005818 <hw_endpoint_xfer_continue+0xb8>
10005818:	e7ff      	b.n	1000581a <hw_endpoint_xfer_continue+0xba>
1000581a:	e7ff      	b.n	1000581c <hw_endpoint_xfer_continue+0xbc>
1000581c:	68a3      	ldr	r3, [r4, #8]
1000581e:	2600      	movs	r6, #0
10005820:	601d      	str	r5, [r3, #0]
10005822:	e7b8      	b.n	10005796 <hw_endpoint_xfer_continue+0x36>
10005824:	002a      	movs	r2, r5
10005826:	68c1      	ldr	r1, [r0, #12]
10005828:	6980      	ldr	r0, [r0, #24]
1000582a:	f7ff f8bb 	bl	100049a4 <__wrap___aeabi_memcpy>
1000582e:	8aa3      	ldrh	r3, [r4, #20]
10005830:	69a2      	ldr	r2, [r4, #24]
10005832:	18eb      	adds	r3, r5, r3
10005834:	b29b      	uxth	r3, r3
10005836:	1952      	adds	r2, r2, r5
10005838:	82a3      	strh	r3, [r4, #20]
1000583a:	61a2      	str	r2, [r4, #24]
1000583c:	e7a4      	b.n	10005788 <hw_endpoint_xfer_continue+0x28>
1000583e:	2280      	movs	r2, #128	; 0x80
10005840:	0152      	lsls	r2, r2, #5
10005842:	4315      	orrs	r5, r2
10005844:	4a39      	ldr	r2, [pc, #228]	; (1000592c <hw_endpoint_xfer_continue+0x1cc>)
10005846:	6c12      	ldr	r2, [r2, #64]	; 0x40
10005848:	0792      	lsls	r2, r2, #30
1000584a:	d403      	bmi.n	10005854 <hw_endpoint_xfer_continue+0xf4>
1000584c:	78a2      	ldrb	r2, [r4, #2]
1000584e:	09d2      	lsrs	r2, r2, #7
10005850:	2a01      	cmp	r2, #1
10005852:	d1ce      	bne.n	100057f2 <hw_endpoint_xfer_continue+0x92>
10005854:	8ba2      	ldrh	r2, [r4, #28]
10005856:	1c11      	adds	r1, r2, #0
10005858:	429a      	cmp	r2, r3
1000585a:	d83f      	bhi.n	100058dc <hw_endpoint_xfer_continue+0x17c>
1000585c:	2780      	movs	r7, #128	; 0x80
1000585e:	b28a      	uxth	r2, r1
10005860:	00ff      	lsls	r7, r7, #3
10005862:	1a9b      	subs	r3, r3, r2
10005864:	4690      	mov	r8, r2
10005866:	4317      	orrs	r7, r2
10005868:	78e2      	ldrb	r2, [r4, #3]
1000586a:	b29b      	uxth	r3, r3
1000586c:	8263      	strh	r3, [r4, #18]
1000586e:	2a00      	cmp	r2, #0
10005870:	d12f      	bne.n	100058d2 <hw_endpoint_xfer_continue+0x172>
10005872:	2101      	movs	r1, #1
10005874:	404a      	eors	r2, r1
10005876:	70e2      	strb	r2, [r4, #3]
10005878:	7862      	ldrb	r2, [r4, #1]
1000587a:	2a00      	cmp	r2, #0
1000587c:	d03e      	beq.n	100058fc <hw_endpoint_xfer_continue+0x19c>
1000587e:	2b00      	cmp	r3, #0
10005880:	d102      	bne.n	10005888 <hw_endpoint_xfer_continue+0x128>
10005882:	2380      	movs	r3, #128	; 0x80
10005884:	01db      	lsls	r3, r3, #7
10005886:	431f      	orrs	r7, r3
10005888:	4b2b      	ldr	r3, [pc, #172]	; (10005938 <hw_endpoint_xfer_continue+0x1d8>)
1000588a:	043f      	lsls	r7, r7, #16
1000588c:	4033      	ands	r3, r6
1000588e:	26a0      	movs	r6, #160	; 0xa0
10005890:	05f6      	lsls	r6, r6, #23
10005892:	433d      	orrs	r5, r7
10005894:	431e      	orrs	r6, r3
10005896:	e7b1      	b.n	100057fc <hw_endpoint_xfer_continue+0x9c>
10005898:	68a2      	ldr	r2, [r4, #8]
1000589a:	6815      	ldr	r5, [r2, #0]
1000589c:	7862      	ldrb	r2, [r4, #1]
1000589e:	01ad      	lsls	r5, r5, #6
100058a0:	0dad      	lsrs	r5, r5, #22
100058a2:	2a00      	cmp	r2, #0
100058a4:	d11c      	bne.n	100058e0 <hw_endpoint_xfer_continue+0x180>
100058a6:	18eb      	adds	r3, r5, r3
100058a8:	82a3      	strh	r3, [r4, #20]
100058aa:	428d      	cmp	r5, r1
100058ac:	d300      	bcc.n	100058b0 <hw_endpoint_xfer_continue+0x150>
100058ae:	e77d      	b.n	100057ac <hw_endpoint_xfer_continue+0x4c>
100058b0:	2300      	movs	r3, #0
100058b2:	8263      	strh	r3, [r4, #18]
100058b4:	e76f      	b.n	10005796 <hw_endpoint_xfer_continue+0x36>
100058b6:	003a      	movs	r2, r7
100058b8:	69a1      	ldr	r1, [r4, #24]
100058ba:	68e0      	ldr	r0, [r4, #12]
100058bc:	f7ff f872 	bl	100049a4 <__wrap___aeabi_memcpy>
100058c0:	69a3      	ldr	r3, [r4, #24]
100058c2:	469c      	mov	ip, r3
100058c4:	2380      	movs	r3, #128	; 0x80
100058c6:	4467      	add	r7, ip
100058c8:	021b      	lsls	r3, r3, #8
100058ca:	431d      	orrs	r5, r3
100058cc:	61a7      	str	r7, [r4, #24]
100058ce:	8a63      	ldrh	r3, [r4, #18]
100058d0:	e788      	b.n	100057e4 <hw_endpoint_xfer_continue+0x84>
100058d2:	2790      	movs	r7, #144	; 0x90
100058d4:	4641      	mov	r1, r8
100058d6:	01bf      	lsls	r7, r7, #6
100058d8:	430f      	orrs	r7, r1
100058da:	e7ca      	b.n	10005872 <hw_endpoint_xfer_continue+0x112>
100058dc:	1c19      	adds	r1, r3, #0
100058de:	e7bd      	b.n	1000585c <hw_endpoint_xfer_continue+0xfc>
100058e0:	68e1      	ldr	r1, [r4, #12]
100058e2:	002a      	movs	r2, r5
100058e4:	3140      	adds	r1, #64	; 0x40
100058e6:	69a0      	ldr	r0, [r4, #24]
100058e8:	f7ff f85c 	bl	100049a4 <__wrap___aeabi_memcpy>
100058ec:	8aa3      	ldrh	r3, [r4, #20]
100058ee:	8ba1      	ldrh	r1, [r4, #28]
100058f0:	18eb      	adds	r3, r5, r3
100058f2:	82a3      	strh	r3, [r4, #20]
100058f4:	69a3      	ldr	r3, [r4, #24]
100058f6:	195b      	adds	r3, r3, r5
100058f8:	61a3      	str	r3, [r4, #24]
100058fa:	e7d6      	b.n	100058aa <hw_endpoint_xfer_continue+0x14a>
100058fc:	68e0      	ldr	r0, [r4, #12]
100058fe:	4642      	mov	r2, r8
10005900:	69a1      	ldr	r1, [r4, #24]
10005902:	3040      	adds	r0, #64	; 0x40
10005904:	f7ff f84e 	bl	100049a4 <__wrap___aeabi_memcpy>
10005908:	69a3      	ldr	r3, [r4, #24]
1000590a:	4443      	add	r3, r8
1000590c:	61a3      	str	r3, [r4, #24]
1000590e:	2380      	movs	r3, #128	; 0x80
10005910:	021b      	lsls	r3, r3, #8
10005912:	431f      	orrs	r7, r3
10005914:	8a63      	ldrh	r3, [r4, #18]
10005916:	e7b2      	b.n	1000587e <hw_endpoint_xfer_continue+0x11e>
10005918:	237f      	movs	r3, #127	; 0x7f
1000591a:	7881      	ldrb	r1, [r0, #2]
1000591c:	4a07      	ldr	r2, [pc, #28]	; (1000593c <hw_endpoint_xfer_continue+0x1dc>)
1000591e:	4808      	ldr	r0, [pc, #32]	; (10005940 <hw_endpoint_xfer_continue+0x1e0>)
10005920:	4019      	ands	r1, r3
10005922:	f7fc fc29 	bl	10002178 <panic>
10005926:	78a0      	ldrb	r0, [r4, #2]
10005928:	f7ff fe22 	bl	10005570 <_hw_endpoint_buffer_control_update32.part.0.isra.0>
1000592c:	50110000 	.word	0x50110000
10005930:	afffffff 	.word	0xafffffff
10005934:	fffffbff 	.word	0xfffffbff
10005938:	dfffffff 	.word	0xdfffffff
1000593c:	20001a10 	.word	0x20001a10
10005940:	10007cc0 	.word	0x10007cc0

10005944 <tud_mounted>:
10005944:	4b02      	ldr	r3, [pc, #8]	; (10005950 <tud_mounted+0xc>)
10005946:	7858      	ldrb	r0, [r3, #1]
10005948:	1e43      	subs	r3, r0, #1
1000594a:	4198      	sbcs	r0, r3
1000594c:	b2c0      	uxtb	r0, r0
1000594e:	4770      	bx	lr
10005950:	200024f4 	.word	0x200024f4

10005954 <tud_suspended>:
10005954:	4b02      	ldr	r3, [pc, #8]	; (10005960 <tud_suspended+0xc>)
10005956:	7818      	ldrb	r0, [r3, #0]
10005958:	0740      	lsls	r0, r0, #29
1000595a:	0fc0      	lsrs	r0, r0, #31
1000595c:	4770      	bx	lr
1000595e:	46c0      	nop			; (mov r8, r8)
10005960:	200024f4 	.word	0x200024f4

10005964 <tud_inited>:
10005964:	4b01      	ldr	r3, [pc, #4]	; (1000596c <tud_inited+0x8>)
10005966:	7818      	ldrb	r0, [r3, #0]
10005968:	4770      	bx	lr
1000596a:	46c0      	nop			; (mov r8, r8)
1000596c:	20002c2f 	.word	0x20002c2f

10005970 <tud_init>:
10005970:	b5f8      	push	{r3, r4, r5, r6, r7, lr}
10005972:	4647      	mov	r7, r8
10005974:	46ce      	mov	lr, r9
10005976:	b580      	push	{r7, lr}
10005978:	4f29      	ldr	r7, [pc, #164]	; (10005a20 <tud_init+0xb0>)
1000597a:	0005      	movs	r5, r0
1000597c:	783b      	ldrb	r3, [r7, #0]
1000597e:	2b00      	cmp	r3, #0
10005980:	d004      	beq.n	1000598c <tud_init+0x1c>
10005982:	2001      	movs	r0, #1
10005984:	bcc0      	pop	{r6, r7}
10005986:	46b9      	mov	r9, r7
10005988:	46b0      	mov	r8, r6
1000598a:	bdf8      	pop	{r3, r4, r5, r6, r7, pc}
1000598c:	2253      	movs	r2, #83	; 0x53
1000598e:	2100      	movs	r1, #0
10005990:	4824      	ldr	r0, [pc, #144]	; (10005a24 <tud_init+0xb4>)
10005992:	f7ff f801 	bl	10004998 <__wrap_memset>
10005996:	4c24      	ldr	r4, [pc, #144]	; (10005a28 <tud_init+0xb8>)
10005998:	0020      	movs	r0, r4
1000599a:	f7fc fb47 	bl	1000202c <mutex_init>
1000599e:	4b23      	ldr	r3, [pc, #140]	; (10005a2c <tud_init+0xbc>)
100059a0:	601c      	str	r4, [r3, #0]
100059a2:	4c23      	ldr	r4, [pc, #140]	; (10005a30 <tud_init+0xc0>)
100059a4:	0020      	movs	r0, r4
100059a6:	301c      	adds	r0, #28
100059a8:	f7fc fb5c 	bl	10002064 <critical_section_init>
100059ac:	0020      	movs	r0, r4
100059ae:	f001 fca1 	bl	100072f4 <tu_fifo_clear>
100059b2:	4b20      	ldr	r3, [pc, #128]	; (10005a34 <tud_init+0xc4>)
100059b4:	4e20      	ldr	r6, [pc, #128]	; (10005a38 <tud_init+0xc8>)
100059b6:	601c      	str	r4, [r3, #0]
100059b8:	4b20      	ldr	r3, [pc, #128]	; (10005a3c <tud_init+0xcc>)
100059ba:	4698      	mov	r8, r3
100059bc:	2b00      	cmp	r3, #0
100059be:	d004      	beq.n	100059ca <tud_init+0x5a>
100059c0:	0030      	movs	r0, r6
100059c2:	f7ff f95d 	bl	10004c80 <usbd_app_driver_get_cb>
100059c6:	4b1e      	ldr	r3, [pc, #120]	; (10005a40 <tud_init+0xd0>)
100059c8:	6018      	str	r0, [r3, #0]
100059ca:	4642      	mov	r2, r8
100059cc:	2400      	movs	r4, #0
100059ce:	7833      	ldrb	r3, [r6, #0]
100059d0:	2a00      	cmp	r2, #0
100059d2:	d01d      	beq.n	10005a10 <tud_init+0xa0>
100059d4:	4a1b      	ldr	r2, [pc, #108]	; (10005a44 <tud_init+0xd4>)
100059d6:	4690      	mov	r8, r2
100059d8:	4a19      	ldr	r2, [pc, #100]	; (10005a40 <tud_init+0xd0>)
100059da:	4691      	mov	r9, r2
100059dc:	429c      	cmp	r4, r3
100059de:	d310      	bcc.n	10005a02 <tud_init+0x92>
100059e0:	d11b      	bne.n	10005a1a <tud_init+0xaa>
100059e2:	4643      	mov	r3, r8
100059e4:	4798      	blx	r3
100059e6:	3401      	adds	r4, #1
100059e8:	7833      	ldrb	r3, [r6, #0]
100059ea:	b2e4      	uxtb	r4, r4
100059ec:	42a3      	cmp	r3, r4
100059ee:	d2f5      	bcs.n	100059dc <tud_init+0x6c>
100059f0:	0028      	movs	r0, r5
100059f2:	f7ff fbf1 	bl	100051d8 <dcd_init>
100059f6:	0028      	movs	r0, r5
100059f8:	f7ff fbd6 	bl	100051a8 <dcd_int_enable>
100059fc:	2301      	movs	r3, #1
100059fe:	703b      	strb	r3, [r7, #0]
10005a00:	e7bf      	b.n	10005982 <tud_init+0x12>
10005a02:	464a      	mov	r2, r9
10005a04:	0063      	lsls	r3, r4, #1
10005a06:	6812      	ldr	r2, [r2, #0]
10005a08:	191b      	adds	r3, r3, r4
10005a0a:	00db      	lsls	r3, r3, #3
10005a0c:	589b      	ldr	r3, [r3, r2]
10005a0e:	e7e9      	b.n	100059e4 <tud_init+0x74>
10005a10:	f001 f84a 	bl	10006aa8 <cdcd_init>
10005a14:	7833      	ldrb	r3, [r6, #0]
10005a16:	2b00      	cmp	r3, #0
10005a18:	d0ea      	beq.n	100059f0 <tud_init+0x80>
10005a1a:	2300      	movs	r3, #0
10005a1c:	681b      	ldr	r3, [r3, #0]
10005a1e:	deff      	udf	#255	; 0xff
10005a20:	20002c2f 	.word	0x20002c2f
10005a24:	200024f4 	.word	0x200024f4
10005a28:	200024ac 	.word	0x200024ac
10005a2c:	20002548 	.word	0x20002548
10005a30:	20001a18 	.word	0x20001a18
10005a34:	2000254c 	.word	0x2000254c
10005a38:	20002c2e 	.word	0x20002c2e
10005a3c:	10004c81 	.word	0x10004c81
10005a40:	200021bc 	.word	0x200021bc
10005a44:	10006aa9 	.word	0x10006aa9

10005a48 <tud_task>:
10005a48:	b5f0      	push	{r4, r5, r6, r7, lr}
10005a4a:	46de      	mov	lr, fp
10005a4c:	4657      	mov	r7, sl
10005a4e:	464e      	mov	r6, r9
10005a50:	4645      	mov	r5, r8
10005a52:	b5e0      	push	{r5, r6, r7, lr}
10005a54:	b08b      	sub	sp, #44	; 0x2c
10005a56:	f001 fa09 	bl	10006e6c <tusb_inited>
10005a5a:	2800      	cmp	r0, #0
10005a5c:	d100      	bne.n	10005a60 <tud_task+0x18>
10005a5e:	e144      	b.n	10005cea <tud_task+0x2a2>
10005a60:	4bc2      	ldr	r3, [pc, #776]	; (10005d6c <tud_task+0x324>)
10005a62:	4ec3      	ldr	r6, [pc, #780]	; (10005d70 <tud_task+0x328>)
10005a64:	469b      	mov	fp, r3
10005a66:	ac07      	add	r4, sp, #28
10005a68:	6835      	ldr	r5, [r6, #0]
10005a6a:	69ea      	ldr	r2, [r5, #28]
10005a6c:	f3ef 8110 	mrs	r1, PRIMASK
10005a70:	b672      	cpsid	i
10005a72:	6813      	ldr	r3, [r2, #0]
10005a74:	2b00      	cmp	r3, #0
10005a76:	d0fc      	beq.n	10005a72 <tud_task+0x2a>
10005a78:	f3bf 8f5f 	dmb	sy
10005a7c:	6229      	str	r1, [r5, #32]
10005a7e:	0028      	movs	r0, r5
10005a80:	0021      	movs	r1, r4
10005a82:	f001 faab 	bl	10006fdc <tu_fifo_read>
10005a86:	69ea      	ldr	r2, [r5, #28]
10005a88:	6a2b      	ldr	r3, [r5, #32]
10005a8a:	f3bf 8f5f 	dmb	sy
10005a8e:	2100      	movs	r1, #0
10005a90:	6011      	str	r1, [r2, #0]
10005a92:	f383 8810 	msr	PRIMASK, r3
10005a96:	2800      	cmp	r0, #0
10005a98:	d100      	bne.n	10005a9c <tud_task+0x54>
10005a9a:	e126      	b.n	10005cea <tud_task+0x2a2>
10005a9c:	7863      	ldrb	r3, [r4, #1]
10005a9e:	2b08      	cmp	r3, #8
10005aa0:	d8e2      	bhi.n	10005a68 <tud_task+0x20>
10005aa2:	465a      	mov	r2, fp
10005aa4:	009b      	lsls	r3, r3, #2
10005aa6:	58d3      	ldr	r3, [r2, r3]
10005aa8:	469f      	mov	pc, r3
10005aaa:	6863      	ldr	r3, [r4, #4]
10005aac:	2b00      	cmp	r3, #0
10005aae:	d0db      	beq.n	10005a68 <tud_task+0x20>
10005ab0:	68a0      	ldr	r0, [r4, #8]
10005ab2:	4798      	blx	r3
10005ab4:	e7d8      	b.n	10005a68 <tud_task+0x20>
10005ab6:	227f      	movs	r2, #127	; 0x7f
10005ab8:	7921      	ldrb	r1, [r4, #4]
10005aba:	4bae      	ldr	r3, [pc, #696]	; (10005d74 <tud_task+0x32c>)
10005abc:	400a      	ands	r2, r1
10005abe:	0055      	lsls	r5, r2, #1
10005ac0:	09c8      	lsrs	r0, r1, #7
10005ac2:	195b      	adds	r3, r3, r5
10005ac4:	181b      	adds	r3, r3, r0
10005ac6:	0018      	movs	r0, r3
10005ac8:	2701      	movs	r7, #1
10005aca:	3030      	adds	r0, #48	; 0x30
10005acc:	78c5      	ldrb	r5, [r0, #3]
10005ace:	43bd      	bics	r5, r7
10005ad0:	70c5      	strb	r5, [r0, #3]
10005ad2:	78c5      	ldrb	r5, [r0, #3]
10005ad4:	3703      	adds	r7, #3
10005ad6:	43bd      	bics	r5, r7
10005ad8:	70c5      	strb	r5, [r0, #3]
10005ada:	2a00      	cmp	r2, #0
10005adc:	d100      	bne.n	10005ae0 <tud_task+0x98>
10005ade:	e10b      	b.n	10005cf8 <tud_task+0x2b0>
10005ae0:	4aa5      	ldr	r2, [pc, #660]	; (10005d78 <tud_task+0x330>)
10005ae2:	7cdb      	ldrb	r3, [r3, #19]
10005ae4:	2a00      	cmp	r2, #0
10005ae6:	d006      	beq.n	10005af6 <tud_task+0xae>
10005ae8:	4aa4      	ldr	r2, [pc, #656]	; (10005d7c <tud_task+0x334>)
10005aea:	7812      	ldrb	r2, [r2, #0]
10005aec:	4293      	cmp	r3, r2
10005aee:	d200      	bcs.n	10005af2 <tud_task+0xaa>
10005af0:	e191      	b.n	10005e16 <tud_task+0x3ce>
10005af2:	1a9b      	subs	r3, r3, r2
10005af4:	b2db      	uxtb	r3, r3
10005af6:	2b00      	cmp	r3, #0
10005af8:	d000      	beq.n	10005afc <tud_task+0xb4>
10005afa:	e0f6      	b.n	10005cea <tud_task+0x2a2>
10005afc:	4da0      	ldr	r5, [pc, #640]	; (10005d80 <tud_task+0x338>)
10005afe:	7962      	ldrb	r2, [r4, #5]
10005b00:	7820      	ldrb	r0, [r4, #0]
10005b02:	68a3      	ldr	r3, [r4, #8]
10005b04:	47a8      	blx	r5
10005b06:	e7af      	b.n	10005a68 <tud_task+0x20>
10005b08:	2201      	movs	r2, #1
10005b0a:	4f9a      	ldr	r7, [pc, #616]	; (10005d74 <tud_task+0x32c>)
10005b0c:	2101      	movs	r1, #1
10005b0e:	783b      	ldrb	r3, [r7, #0]
10005b10:	2004      	movs	r0, #4
10005b12:	4313      	orrs	r3, r2
10005b14:	703b      	strb	r3, [r7, #0]
10005b16:	2333      	movs	r3, #51	; 0x33
10005b18:	5cfa      	ldrb	r2, [r7, r3]
10005b1a:	438a      	bics	r2, r1
10005b1c:	54fa      	strb	r2, [r7, r3]
10005b1e:	5cfa      	ldrb	r2, [r7, r3]
10005b20:	4382      	bics	r2, r0
10005b22:	54fa      	strb	r2, [r7, r3]
10005b24:	3301      	adds	r3, #1
10005b26:	5cfa      	ldrb	r2, [r7, r3]
10005b28:	438a      	bics	r2, r1
10005b2a:	54fa      	strb	r2, [r7, r3]
10005b2c:	5cfa      	ldrb	r2, [r7, r3]
10005b2e:	4382      	bics	r2, r0
10005b30:	54fa      	strb	r2, [r7, r3]
10005b32:	7823      	ldrb	r3, [r4, #0]
10005b34:	2000      	movs	r0, #0
10005b36:	469a      	mov	sl, r3
10005b38:	f000 fe66 	bl	10006808 <usbd_control_set_complete_callback>
10005b3c:	2260      	movs	r2, #96	; 0x60
10005b3e:	7923      	ldrb	r3, [r4, #4]
10005b40:	401a      	ands	r2, r3
10005b42:	2a60      	cmp	r2, #96	; 0x60
10005b44:	d00d      	beq.n	10005b62 <tud_task+0x11a>
10005b46:	2a40      	cmp	r2, #64	; 0x40
10005b48:	d100      	bne.n	10005b4c <tud_task+0x104>
10005b4a:	e0f2      	b.n	10005d32 <tud_task+0x2ea>
10005b4c:	06db      	lsls	r3, r3, #27
10005b4e:	0edb      	lsrs	r3, r3, #27
10005b50:	2b01      	cmp	r3, #1
10005b52:	d100      	bne.n	10005b56 <tud_task+0x10e>
10005b54:	e16a      	b.n	10005e2c <tud_task+0x3e4>
10005b56:	2b02      	cmp	r3, #2
10005b58:	d100      	bne.n	10005b5c <tud_task+0x114>
10005b5a:	e121      	b.n	10005da0 <tud_task+0x358>
10005b5c:	2b00      	cmp	r3, #0
10005b5e:	d100      	bne.n	10005b62 <tud_task+0x11a>
10005b60:	e0f6      	b.n	10005d50 <tud_task+0x308>
10005b62:	7820      	ldrb	r0, [r4, #0]
10005b64:	2100      	movs	r1, #0
10005b66:	f7ff fccf 	bl	10005508 <dcd_edpt_stall>
10005b6a:	2180      	movs	r1, #128	; 0x80
10005b6c:	7820      	ldrb	r0, [r4, #0]
10005b6e:	f7ff fccb 	bl	10005508 <dcd_edpt_stall>
10005b72:	e779      	b.n	10005a68 <tud_task+0x20>
10005b74:	4b7f      	ldr	r3, [pc, #508]	; (10005d74 <tud_task+0x32c>)
10005b76:	781b      	ldrb	r3, [r3, #0]
10005b78:	07db      	lsls	r3, r3, #31
10005b7a:	d400      	bmi.n	10005b7e <tud_task+0x136>
10005b7c:	e774      	b.n	10005a68 <tud_task+0x20>
10005b7e:	4b81      	ldr	r3, [pc, #516]	; (10005d84 <tud_task+0x33c>)
10005b80:	2b00      	cmp	r3, #0
10005b82:	d100      	bne.n	10005b86 <tud_task+0x13e>
10005b84:	e770      	b.n	10005a68 <tud_task+0x20>
10005b86:	e000      	b.n	10005b8a <tud_task+0x142>
10005b88:	bf00      	nop
10005b8a:	e76d      	b.n	10005a68 <tud_task+0x20>
10005b8c:	4b79      	ldr	r3, [pc, #484]	; (10005d74 <tud_task+0x32c>)
10005b8e:	781a      	ldrb	r2, [r3, #0]
10005b90:	07d2      	lsls	r2, r2, #31
10005b92:	d400      	bmi.n	10005b96 <tud_task+0x14e>
10005b94:	e768      	b.n	10005a68 <tud_task+0x20>
10005b96:	4a7c      	ldr	r2, [pc, #496]	; (10005d88 <tud_task+0x340>)
10005b98:	2a00      	cmp	r2, #0
10005b9a:	d100      	bne.n	10005b9e <tud_task+0x156>
10005b9c:	e764      	b.n	10005a68 <tud_task+0x20>
10005b9e:	7818      	ldrb	r0, [r3, #0]
10005ba0:	0700      	lsls	r0, r0, #28
10005ba2:	0fc0      	lsrs	r0, r0, #31
10005ba4:	e000      	b.n	10005ba8 <tud_task+0x160>
10005ba6:	bf00      	nop
10005ba8:	e75e      	b.n	10005a68 <tud_task+0x20>
10005baa:	4d74      	ldr	r5, [pc, #464]	; (10005d7c <tud_task+0x334>)
10005bac:	4a72      	ldr	r2, [pc, #456]	; (10005d78 <tud_task+0x330>)
10005bae:	2700      	movs	r7, #0
10005bb0:	782b      	ldrb	r3, [r5, #0]
10005bb2:	2a00      	cmp	r2, #0
10005bb4:	d100      	bne.n	10005bb8 <tud_task+0x170>
10005bb6:	e0b6      	b.n	10005d26 <tud_task+0x2de>
10005bb8:	4a74      	ldr	r2, [pc, #464]	; (10005d8c <tud_task+0x344>)
10005bba:	4690      	mov	r8, r2
10005bbc:	429f      	cmp	r7, r3
10005bbe:	d308      	bcc.n	10005bd2 <tud_task+0x18a>
10005bc0:	429f      	cmp	r7, r3
10005bc2:	d000      	beq.n	10005bc6 <tud_task+0x17e>
10005bc4:	e0b2      	b.n	10005d2c <tud_task+0x2e4>
10005bc6:	3701      	adds	r7, #1
10005bc8:	b2ff      	uxtb	r7, r7
10005bca:	429f      	cmp	r7, r3
10005bcc:	d900      	bls.n	10005bd0 <tud_task+0x188>
10005bce:	e74b      	b.n	10005a68 <tud_task+0x20>
10005bd0:	d2f6      	bcs.n	10005bc0 <tud_task+0x178>
10005bd2:	4641      	mov	r1, r8
10005bd4:	6809      	ldr	r1, [r1, #0]
10005bd6:	007a      	lsls	r2, r7, #1
10005bd8:	468c      	mov	ip, r1
10005bda:	19d2      	adds	r2, r2, r7
10005bdc:	00d2      	lsls	r2, r2, #3
10005bde:	4462      	add	r2, ip
10005be0:	6952      	ldr	r2, [r2, #20]
10005be2:	2a00      	cmp	r2, #0
10005be4:	d0ef      	beq.n	10005bc6 <tud_task+0x17e>
10005be6:	7820      	ldrb	r0, [r4, #0]
10005be8:	4790      	blx	r2
10005bea:	3701      	adds	r7, #1
10005bec:	782b      	ldrb	r3, [r5, #0]
10005bee:	b2ff      	uxtb	r7, r7
10005bf0:	429f      	cmp	r7, r3
10005bf2:	d9e3      	bls.n	10005bbc <tud_task+0x174>
10005bf4:	e738      	b.n	10005a68 <tud_task+0x20>
10005bf6:	7823      	ldrb	r3, [r4, #0]
10005bf8:	4d60      	ldr	r5, [pc, #384]	; (10005d7c <tud_task+0x334>)
10005bfa:	4a5f      	ldr	r2, [pc, #380]	; (10005d78 <tud_task+0x330>)
10005bfc:	4698      	mov	r8, r3
10005bfe:	2700      	movs	r7, #0
10005c00:	782b      	ldrb	r3, [r5, #0]
10005c02:	2a00      	cmp	r2, #0
10005c04:	d100      	bne.n	10005c08 <tud_task+0x1c0>
10005c06:	e086      	b.n	10005d16 <tud_task+0x2ce>
10005c08:	4a61      	ldr	r2, [pc, #388]	; (10005d90 <tud_task+0x348>)
10005c0a:	4691      	mov	r9, r2
10005c0c:	4a5f      	ldr	r2, [pc, #380]	; (10005d8c <tud_task+0x344>)
10005c0e:	4692      	mov	sl, r2
10005c10:	002a      	movs	r2, r5
10005c12:	4645      	mov	r5, r8
10005c14:	4690      	mov	r8, r2
10005c16:	42bb      	cmp	r3, r7
10005c18:	d85e      	bhi.n	10005cd8 <tud_task+0x290>
10005c1a:	d000      	beq.n	10005c1e <tud_task+0x1d6>
10005c1c:	e078      	b.n	10005d10 <tud_task+0x2c8>
10005c1e:	464b      	mov	r3, r9
10005c20:	0028      	movs	r0, r5
10005c22:	4798      	blx	r3
10005c24:	4643      	mov	r3, r8
10005c26:	3701      	adds	r7, #1
10005c28:	781b      	ldrb	r3, [r3, #0]
10005c2a:	b2ff      	uxtb	r7, r7
10005c2c:	42bb      	cmp	r3, r7
10005c2e:	d2f2      	bcs.n	10005c16 <tud_task+0x1ce>
10005c30:	4d50      	ldr	r5, [pc, #320]	; (10005d74 <tud_task+0x32c>)
10005c32:	2253      	movs	r2, #83	; 0x53
10005c34:	2100      	movs	r1, #0
10005c36:	0028      	movs	r0, r5
10005c38:	f7fe feae 	bl	10004998 <__wrap_memset>
10005c3c:	2210      	movs	r2, #16
10005c3e:	21ff      	movs	r1, #255	; 0xff
10005c40:	1ce8      	adds	r0, r5, #3
10005c42:	f7fe fea9 	bl	10004998 <__wrap_memset>
10005c46:	0028      	movs	r0, r5
10005c48:	2220      	movs	r2, #32
10005c4a:	21ff      	movs	r1, #255	; 0xff
10005c4c:	3013      	adds	r0, #19
10005c4e:	f7fe fea3 	bl	10004998 <__wrap_memset>
10005c52:	f000 fdcf 	bl	100067f4 <usbd_control_reset>
10005c56:	4b4f      	ldr	r3, [pc, #316]	; (10005d94 <tud_task+0x34c>)
10005c58:	2b00      	cmp	r3, #0
10005c5a:	d100      	bne.n	10005c5e <tud_task+0x216>
10005c5c:	e704      	b.n	10005a68 <tud_task+0x20>
10005c5e:	e000      	b.n	10005c62 <tud_task+0x21a>
10005c60:	bf00      	nop
10005c62:	e701      	b.n	10005a68 <tud_task+0x20>
10005c64:	7823      	ldrb	r3, [r4, #0]
10005c66:	4d45      	ldr	r5, [pc, #276]	; (10005d7c <tud_task+0x334>)
10005c68:	4a43      	ldr	r2, [pc, #268]	; (10005d78 <tud_task+0x330>)
10005c6a:	4698      	mov	r8, r3
10005c6c:	2700      	movs	r7, #0
10005c6e:	782b      	ldrb	r3, [r5, #0]
10005c70:	2a00      	cmp	r2, #0
10005c72:	d047      	beq.n	10005d04 <tud_task+0x2bc>
10005c74:	4a46      	ldr	r2, [pc, #280]	; (10005d90 <tud_task+0x348>)
10005c76:	4691      	mov	r9, r2
10005c78:	4a44      	ldr	r2, [pc, #272]	; (10005d8c <tud_task+0x344>)
10005c7a:	4692      	mov	sl, r2
10005c7c:	002a      	movs	r2, r5
10005c7e:	4645      	mov	r5, r8
10005c80:	4690      	mov	r8, r2
10005c82:	429f      	cmp	r7, r3
10005c84:	d31f      	bcc.n	10005cc6 <tud_task+0x27e>
10005c86:	d143      	bne.n	10005d10 <tud_task+0x2c8>
10005c88:	464b      	mov	r3, r9
10005c8a:	0028      	movs	r0, r5
10005c8c:	4798      	blx	r3
10005c8e:	4643      	mov	r3, r8
10005c90:	3701      	adds	r7, #1
10005c92:	781b      	ldrb	r3, [r3, #0]
10005c94:	b2ff      	uxtb	r7, r7
10005c96:	42bb      	cmp	r3, r7
10005c98:	d2f3      	bcs.n	10005c82 <tud_task+0x23a>
10005c9a:	4d36      	ldr	r5, [pc, #216]	; (10005d74 <tud_task+0x32c>)
10005c9c:	2253      	movs	r2, #83	; 0x53
10005c9e:	2100      	movs	r1, #0
10005ca0:	0028      	movs	r0, r5
10005ca2:	f7fe fe79 	bl	10004998 <__wrap_memset>
10005ca6:	2210      	movs	r2, #16
10005ca8:	21ff      	movs	r1, #255	; 0xff
10005caa:	1ce8      	adds	r0, r5, #3
10005cac:	f7fe fe74 	bl	10004998 <__wrap_memset>
10005cb0:	0028      	movs	r0, r5
10005cb2:	2220      	movs	r2, #32
10005cb4:	21ff      	movs	r1, #255	; 0xff
10005cb6:	3013      	adds	r0, #19
10005cb8:	f7fe fe6e 	bl	10004998 <__wrap_memset>
10005cbc:	f000 fd9a 	bl	100067f4 <usbd_control_reset>
10005cc0:	7923      	ldrb	r3, [r4, #4]
10005cc2:	70ab      	strb	r3, [r5, #2]
10005cc4:	e6d0      	b.n	10005a68 <tud_task+0x20>
10005cc6:	4652      	mov	r2, sl
10005cc8:	6812      	ldr	r2, [r2, #0]
10005cca:	007b      	lsls	r3, r7, #1
10005ccc:	4694      	mov	ip, r2
10005cce:	19db      	adds	r3, r3, r7
10005cd0:	00db      	lsls	r3, r3, #3
10005cd2:	4463      	add	r3, ip
10005cd4:	685b      	ldr	r3, [r3, #4]
10005cd6:	e7d8      	b.n	10005c8a <tud_task+0x242>
10005cd8:	4652      	mov	r2, sl
10005cda:	6812      	ldr	r2, [r2, #0]
10005cdc:	007b      	lsls	r3, r7, #1
10005cde:	4694      	mov	ip, r2
10005ce0:	19db      	adds	r3, r3, r7
10005ce2:	00db      	lsls	r3, r3, #3
10005ce4:	4463      	add	r3, ip
10005ce6:	685b      	ldr	r3, [r3, #4]
10005ce8:	e79a      	b.n	10005c20 <tud_task+0x1d8>
10005cea:	b00b      	add	sp, #44	; 0x2c
10005cec:	bcf0      	pop	{r4, r5, r6, r7}
10005cee:	46bb      	mov	fp, r7
10005cf0:	46b2      	mov	sl, r6
10005cf2:	46a9      	mov	r9, r5
10005cf4:	46a0      	mov	r8, r4
10005cf6:	bdf0      	pop	{r4, r5, r6, r7, pc}
10005cf8:	7962      	ldrb	r2, [r4, #5]
10005cfa:	7820      	ldrb	r0, [r4, #0]
10005cfc:	68a3      	ldr	r3, [r4, #8]
10005cfe:	f000 fd97 	bl	10006830 <usbd_control_xfer_cb>
10005d02:	e6b1      	b.n	10005a68 <tud_task+0x20>
10005d04:	4640      	mov	r0, r8
10005d06:	f000 ff0d 	bl	10006b24 <cdcd_reset>
10005d0a:	782b      	ldrb	r3, [r5, #0]
10005d0c:	2b00      	cmp	r3, #0
10005d0e:	d0c4      	beq.n	10005c9a <tud_task+0x252>
10005d10:	2300      	movs	r3, #0
10005d12:	685b      	ldr	r3, [r3, #4]
10005d14:	deff      	udf	#255	; 0xff
10005d16:	4640      	mov	r0, r8
10005d18:	f000 ff04 	bl	10006b24 <cdcd_reset>
10005d1c:	782b      	ldrb	r3, [r5, #0]
10005d1e:	2b00      	cmp	r3, #0
10005d20:	d100      	bne.n	10005d24 <tud_task+0x2dc>
10005d22:	e785      	b.n	10005c30 <tud_task+0x1e8>
10005d24:	e7f4      	b.n	10005d10 <tud_task+0x2c8>
10005d26:	2b00      	cmp	r3, #0
10005d28:	d100      	bne.n	10005d2c <tud_task+0x2e4>
10005d2a:	e69d      	b.n	10005a68 <tud_task+0x20>
10005d2c:	2300      	movs	r3, #0
10005d2e:	695b      	ldr	r3, [r3, #20]
10005d30:	deff      	udf	#255	; 0xff
10005d32:	4819      	ldr	r0, [pc, #100]	; (10005d98 <tud_task+0x350>)
10005d34:	2800      	cmp	r0, #0
10005d36:	d100      	bne.n	10005d3a <tud_task+0x2f2>
10005d38:	e713      	b.n	10005b62 <tud_task+0x11a>
10005d3a:	f000 fd65 	bl	10006808 <usbd_control_set_complete_callback>
10005d3e:	2100      	movs	r1, #0
10005d40:	4650      	mov	r0, sl
10005d42:	aa08      	add	r2, sp, #32
10005d44:	e000      	b.n	10005d48 <tud_task+0x300>
10005d46:	bf00      	nop
10005d48:	2800      	cmp	r0, #0
10005d4a:	d000      	beq.n	10005d4e <tud_task+0x306>
10005d4c:	e68c      	b.n	10005a68 <tud_task+0x20>
10005d4e:	e708      	b.n	10005b62 <tud_task+0x11a>
10005d50:	2a20      	cmp	r2, #32
10005d52:	d100      	bne.n	10005d56 <tud_task+0x30e>
10005d54:	e09f      	b.n	10005e96 <tud_task+0x44e>
10005d56:	2a00      	cmp	r2, #0
10005d58:	d000      	beq.n	10005d5c <tud_task+0x314>
10005d5a:	e702      	b.n	10005b62 <tud_task+0x11a>
10005d5c:	7963      	ldrb	r3, [r4, #5]
10005d5e:	2b09      	cmp	r3, #9
10005d60:	d900      	bls.n	10005d64 <tud_task+0x31c>
10005d62:	e6fe      	b.n	10005b62 <tud_task+0x11a>
10005d64:	4a0d      	ldr	r2, [pc, #52]	; (10005d9c <tud_task+0x354>)
10005d66:	009b      	lsls	r3, r3, #2
10005d68:	58d3      	ldr	r3, [r2, r3]
10005d6a:	469f      	mov	pc, r3
10005d6c:	10007cf4 	.word	0x10007cf4
10005d70:	2000254c 	.word	0x2000254c
10005d74:	200024f4 	.word	0x200024f4
10005d78:	10004c81 	.word	0x10004c81
10005d7c:	20002c2e 	.word	0x20002c2e
10005d80:	10006d19 	.word	0x10006d19
	...
10005d8c:	200021bc 	.word	0x200021bc
10005d90:	10006b25 	.word	0x10006b25
	...
10005d9c:	10007d18 	.word	0x10007d18
10005da0:	2370      	movs	r3, #112	; 0x70
10005da2:	7a21      	ldrb	r1, [r4, #8]
10005da4:	420b      	tst	r3, r1
10005da6:	d000      	beq.n	10005daa <tud_task+0x362>
10005da8:	e6db      	b.n	10005b62 <tud_task+0x11a>
10005daa:	330f      	adds	r3, #15
10005dac:	400b      	ands	r3, r1
10005dae:	005b      	lsls	r3, r3, #1
10005db0:	18f8      	adds	r0, r7, r3
10005db2:	09cd      	lsrs	r5, r1, #7
10005db4:	9300      	str	r3, [sp, #0]
10005db6:	4bc1      	ldr	r3, [pc, #772]	; (100060bc <tud_task+0x674>)
10005db8:	1940      	adds	r0, r0, r5
10005dba:	7cc0      	ldrb	r0, [r0, #19]
10005dbc:	2b00      	cmp	r3, #0
10005dbe:	d006      	beq.n	10005dce <tud_task+0x386>
10005dc0:	4bbf      	ldr	r3, [pc, #764]	; (100060c0 <tud_task+0x678>)
10005dc2:	781b      	ldrb	r3, [r3, #0]
10005dc4:	4298      	cmp	r0, r3
10005dc6:	d200      	bcs.n	10005dca <tud_task+0x382>
10005dc8:	e088      	b.n	10005edc <tud_task+0x494>
10005dca:	1ac0      	subs	r0, r0, r3
10005dcc:	b2c0      	uxtb	r0, r0
10005dce:	2800      	cmp	r0, #0
10005dd0:	d17e      	bne.n	10005ed0 <tud_task+0x488>
10005dd2:	2a00      	cmp	r2, #0
10005dd4:	d000      	beq.n	10005dd8 <tud_task+0x390>
10005dd6:	e115      	b.n	10006004 <tud_task+0x5bc>
10005dd8:	4bba      	ldr	r3, [pc, #744]	; (100060c4 <tud_task+0x67c>)
10005dda:	9301      	str	r3, [sp, #4]
10005ddc:	7963      	ldrb	r3, [r4, #5]
10005dde:	4698      	mov	r8, r3
10005de0:	2302      	movs	r3, #2
10005de2:	4642      	mov	r2, r8
10005de4:	4699      	mov	r9, r3
10005de6:	439a      	bics	r2, r3
10005de8:	2a01      	cmp	r2, #1
10005dea:	d100      	bne.n	10005dee <tud_task+0x3a6>
10005dec:	e10e      	b.n	1000600c <tud_task+0x5c4>
10005dee:	4643      	mov	r3, r8
10005df0:	2b00      	cmp	r3, #0
10005df2:	d000      	beq.n	10005df6 <tud_task+0x3ae>
10005df4:	e6b5      	b.n	10005b62 <tud_task+0x11a>
10005df6:	9b00      	ldr	r3, [sp, #0]
10005df8:	aa06      	add	r2, sp, #24
10005dfa:	18fb      	adds	r3, r7, r3
10005dfc:	195d      	adds	r5, r3, r5
10005dfe:	3530      	adds	r5, #48	; 0x30
10005e00:	78eb      	ldrb	r3, [r5, #3]
10005e02:	3202      	adds	r2, #2
10005e04:	079b      	lsls	r3, r3, #30
10005e06:	0fdb      	lsrs	r3, r3, #31
10005e08:	8013      	strh	r3, [r2, #0]
10005e0a:	4650      	mov	r0, sl
10005e0c:	2302      	movs	r3, #2
10005e0e:	a908      	add	r1, sp, #32
10005e10:	f000 fc92 	bl	10006738 <tud_control_xfer>
10005e14:	e628      	b.n	10005a68 <tud_task+0x20>
10005e16:	005a      	lsls	r2, r3, #1
10005e18:	18d3      	adds	r3, r2, r3
10005e1a:	4aab      	ldr	r2, [pc, #684]	; (100060c8 <tud_task+0x680>)
10005e1c:	00db      	lsls	r3, r3, #3
10005e1e:	6812      	ldr	r2, [r2, #0]
10005e20:	18d3      	adds	r3, r2, r3
10005e22:	2b00      	cmp	r3, #0
10005e24:	d100      	bne.n	10005e28 <tud_task+0x3e0>
10005e26:	e760      	b.n	10005cea <tud_task+0x2a2>
10005e28:	691d      	ldr	r5, [r3, #16]
10005e2a:	e668      	b.n	10005afe <tud_task+0xb6>
10005e2c:	7a23      	ldrb	r3, [r4, #8]
10005e2e:	2b0f      	cmp	r3, #15
10005e30:	d900      	bls.n	10005e34 <tud_task+0x3ec>
10005e32:	e696      	b.n	10005b62 <tud_task+0x11a>
10005e34:	4aa1      	ldr	r2, [pc, #644]	; (100060bc <tud_task+0x674>)
10005e36:	18fb      	adds	r3, r7, r3
10005e38:	78db      	ldrb	r3, [r3, #3]
10005e3a:	2a00      	cmp	r2, #0
10005e3c:	d005      	beq.n	10005e4a <tud_task+0x402>
10005e3e:	4aa0      	ldr	r2, [pc, #640]	; (100060c0 <tud_task+0x678>)
10005e40:	7812      	ldrb	r2, [r2, #0]
10005e42:	4293      	cmp	r3, r2
10005e44:	d364      	bcc.n	10005f10 <tud_task+0x4c8>
10005e46:	1a9b      	subs	r3, r3, r2
10005e48:	b2db      	uxtb	r3, r3
10005e4a:	2b00      	cmp	r3, #0
10005e4c:	d000      	beq.n	10005e50 <tud_task+0x408>
10005e4e:	e688      	b.n	10005b62 <tud_task+0x11a>
10005e50:	489e      	ldr	r0, [pc, #632]	; (100060cc <tud_task+0x684>)
10005e52:	4d9c      	ldr	r5, [pc, #624]	; (100060c4 <tud_task+0x67c>)
10005e54:	f000 fcd8 	bl	10006808 <usbd_control_set_complete_callback>
10005e58:	2100      	movs	r1, #0
10005e5a:	4650      	mov	r0, sl
10005e5c:	68eb      	ldr	r3, [r5, #12]
10005e5e:	aa08      	add	r2, sp, #32
10005e60:	4798      	blx	r3
10005e62:	2800      	cmp	r0, #0
10005e64:	d000      	beq.n	10005e68 <tud_task+0x420>
10005e66:	e5ff      	b.n	10005a68 <tud_task+0x20>
10005e68:	2260      	movs	r2, #96	; 0x60
10005e6a:	0015      	movs	r5, r2
10005e6c:	7923      	ldrb	r3, [r4, #4]
10005e6e:	401d      	ands	r5, r3
10005e70:	421a      	tst	r2, r3
10005e72:	d000      	beq.n	10005e76 <tud_task+0x42e>
10005e74:	e675      	b.n	10005b62 <tud_task+0x11a>
10005e76:	7963      	ldrb	r3, [r4, #5]
10005e78:	3b0a      	subs	r3, #10
10005e7a:	2b01      	cmp	r3, #1
10005e7c:	d900      	bls.n	10005e80 <tud_task+0x438>
10005e7e:	e670      	b.n	10005b62 <tud_task+0x11a>
10005e80:	f000 fcc2 	bl	10006808 <usbd_control_set_complete_callback>
10005e84:	7963      	ldrb	r3, [r4, #5]
10005e86:	2b0a      	cmp	r3, #10
10005e88:	d100      	bne.n	10005e8c <tud_task+0x444>
10005e8a:	e0ee      	b.n	1000606a <tud_task+0x622>
10005e8c:	4650      	mov	r0, sl
10005e8e:	a908      	add	r1, sp, #32
10005e90:	f000 fc3a 	bl	10006708 <tud_control_status>
10005e94:	e5e8      	b.n	10005a68 <tud_task+0x20>
10005e96:	7a23      	ldrb	r3, [r4, #8]
10005e98:	2b0f      	cmp	r3, #15
10005e9a:	d900      	bls.n	10005e9e <tud_task+0x456>
10005e9c:	e661      	b.n	10005b62 <tud_task+0x11a>
10005e9e:	4a87      	ldr	r2, [pc, #540]	; (100060bc <tud_task+0x674>)
10005ea0:	18fb      	adds	r3, r7, r3
10005ea2:	78db      	ldrb	r3, [r3, #3]
10005ea4:	2a00      	cmp	r2, #0
10005ea6:	d006      	beq.n	10005eb6 <tud_task+0x46e>
10005ea8:	4a85      	ldr	r2, [pc, #532]	; (100060c0 <tud_task+0x678>)
10005eaa:	7812      	ldrb	r2, [r2, #0]
10005eac:	4293      	cmp	r3, r2
10005eae:	d200      	bcs.n	10005eb2 <tud_task+0x46a>
10005eb0:	e0d0      	b.n	10006054 <tud_task+0x60c>
10005eb2:	1a9b      	subs	r3, r3, r2
10005eb4:	b2db      	uxtb	r3, r3
10005eb6:	2b00      	cmp	r3, #0
10005eb8:	d000      	beq.n	10005ebc <tud_task+0x474>
10005eba:	e652      	b.n	10005b62 <tud_task+0x11a>
10005ebc:	4883      	ldr	r0, [pc, #524]	; (100060cc <tud_task+0x684>)
10005ebe:	4d81      	ldr	r5, [pc, #516]	; (100060c4 <tud_task+0x67c>)
10005ec0:	f000 fca2 	bl	10006808 <usbd_control_set_complete_callback>
10005ec4:	2100      	movs	r1, #0
10005ec6:	4650      	mov	r0, sl
10005ec8:	68eb      	ldr	r3, [r5, #12]
10005eca:	aa08      	add	r2, sp, #32
10005ecc:	4798      	blx	r3
10005ece:	e73b      	b.n	10005d48 <tud_task+0x300>
10005ed0:	2a00      	cmp	r2, #0
10005ed2:	d000      	beq.n	10005ed6 <tud_task+0x48e>
10005ed4:	e645      	b.n	10005b62 <tud_task+0x11a>
10005ed6:	2300      	movs	r3, #0
10005ed8:	9301      	str	r3, [sp, #4]
10005eda:	e77f      	b.n	10005ddc <tud_task+0x394>
10005edc:	0043      	lsls	r3, r0, #1
10005ede:	469c      	mov	ip, r3
10005ee0:	4b79      	ldr	r3, [pc, #484]	; (100060c8 <tud_task+0x680>)
10005ee2:	4460      	add	r0, ip
10005ee4:	681b      	ldr	r3, [r3, #0]
10005ee6:	00c0      	lsls	r0, r0, #3
10005ee8:	469c      	mov	ip, r3
10005eea:	0003      	movs	r3, r0
10005eec:	4463      	add	r3, ip
10005eee:	9301      	str	r3, [sp, #4]
10005ef0:	2a00      	cmp	r2, #0
10005ef2:	d100      	bne.n	10005ef6 <tud_task+0x4ae>
10005ef4:	e772      	b.n	10005ddc <tud_task+0x394>
10005ef6:	2b00      	cmp	r3, #0
10005ef8:	d100      	bne.n	10005efc <tud_task+0x4b4>
10005efa:	e632      	b.n	10005b62 <tud_task+0x11a>
10005efc:	68d8      	ldr	r0, [r3, #12]
10005efe:	f000 fc83 	bl	10006808 <usbd_control_set_complete_callback>
10005f02:	9b01      	ldr	r3, [sp, #4]
10005f04:	2100      	movs	r1, #0
10005f06:	4650      	mov	r0, sl
10005f08:	68db      	ldr	r3, [r3, #12]
10005f0a:	aa08      	add	r2, sp, #32
10005f0c:	4798      	blx	r3
10005f0e:	e71b      	b.n	10005d48 <tud_task+0x300>
10005f10:	4a6d      	ldr	r2, [pc, #436]	; (100060c8 <tud_task+0x680>)
10005f12:	005d      	lsls	r5, r3, #1
10005f14:	18eb      	adds	r3, r5, r3
10005f16:	6815      	ldr	r5, [r2, #0]
10005f18:	00db      	lsls	r3, r3, #3
10005f1a:	18ed      	adds	r5, r5, r3
10005f1c:	2d00      	cmp	r5, #0
10005f1e:	d100      	bne.n	10005f22 <tud_task+0x4da>
10005f20:	e61f      	b.n	10005b62 <tud_task+0x11a>
10005f22:	68e8      	ldr	r0, [r5, #12]
10005f24:	e796      	b.n	10005e54 <tud_task+0x40c>
10005f26:	88e3      	ldrh	r3, [r4, #6]
10005f28:	2b01      	cmp	r3, #1
10005f2a:	d000      	beq.n	10005f2e <tud_task+0x4e6>
10005f2c:	e619      	b.n	10005b62 <tud_task+0x11a>
10005f2e:	2208      	movs	r2, #8
10005f30:	783b      	ldrb	r3, [r7, #0]
10005f32:	4650      	mov	r0, sl
10005f34:	4393      	bics	r3, r2
10005f36:	a908      	add	r1, sp, #32
10005f38:	703b      	strb	r3, [r7, #0]
10005f3a:	f000 fbe5 	bl	10006708 <tud_control_status>
10005f3e:	e593      	b.n	10005a68 <tud_task+0x20>
10005f40:	2002      	movs	r0, #2
10005f42:	7839      	ldrb	r1, [r7, #0]
10005f44:	ab06      	add	r3, sp, #24
10005f46:	1c9a      	adds	r2, r3, #2
10005f48:	068b      	lsls	r3, r1, #26
10005f4a:	0889      	lsrs	r1, r1, #2
10005f4c:	0fdb      	lsrs	r3, r3, #31
10005f4e:	4001      	ands	r1, r0
10005f50:	430b      	orrs	r3, r1
10005f52:	e759      	b.n	10005e08 <tud_task+0x3c0>
10005f54:	79a3      	ldrb	r3, [r4, #6]
10005f56:	9301      	str	r3, [sp, #4]
10005f58:	001a      	movs	r2, r3
10005f5a:	787b      	ldrb	r3, [r7, #1]
10005f5c:	429a      	cmp	r2, r3
10005f5e:	d007      	beq.n	10005f70 <tud_task+0x528>
10005f60:	787b      	ldrb	r3, [r7, #1]
10005f62:	2b00      	cmp	r3, #0
10005f64:	d000      	beq.n	10005f68 <tud_task+0x520>
10005f66:	e11e      	b.n	100061a6 <tud_task+0x75e>
10005f68:	9b01      	ldr	r3, [sp, #4]
10005f6a:	2b00      	cmp	r3, #0
10005f6c:	d000      	beq.n	10005f70 <tud_task+0x528>
10005f6e:	e0b3      	b.n	100060d8 <tud_task+0x690>
10005f70:	9b01      	ldr	r3, [sp, #4]
10005f72:	4650      	mov	r0, sl
10005f74:	a908      	add	r1, sp, #32
10005f76:	707b      	strb	r3, [r7, #1]
10005f78:	f000 fbc6 	bl	10006708 <tud_control_status>
10005f7c:	e574      	b.n	10005a68 <tud_task+0x20>
10005f7e:	787b      	ldrb	r3, [r7, #1]
10005f80:	aa06      	add	r2, sp, #24
10005f82:	3202      	adds	r2, #2
10005f84:	7013      	strb	r3, [r2, #0]
10005f86:	4650      	mov	r0, sl
10005f88:	2301      	movs	r3, #1
10005f8a:	a908      	add	r1, sp, #32
10005f8c:	f000 fbd4 	bl	10006738 <tud_control_xfer>
10005f90:	e56a      	b.n	10005a68 <tud_task+0x20>
10005f92:	88e0      	ldrh	r0, [r4, #6]
10005f94:	0a03      	lsrs	r3, r0, #8
10005f96:	b2c0      	uxtb	r0, r0
10005f98:	2b0f      	cmp	r3, #15
10005f9a:	d900      	bls.n	10005f9e <tud_task+0x556>
10005f9c:	e5e1      	b.n	10005b62 <tud_task+0x11a>
10005f9e:	494c      	ldr	r1, [pc, #304]	; (100060d0 <tud_task+0x688>)
10005fa0:	009a      	lsls	r2, r3, #2
10005fa2:	588a      	ldr	r2, [r1, r2]
10005fa4:	4697      	mov	pc, r2
10005fa6:	a808      	add	r0, sp, #32
10005fa8:	f000 fc34 	bl	10006814 <usbd_control_set_request>
10005fac:	4650      	mov	r0, sl
10005fae:	79a1      	ldrb	r1, [r4, #6]
10005fb0:	f7ff f900 	bl	100051b4 <dcd_set_address>
10005fb4:	2202      	movs	r2, #2
10005fb6:	783b      	ldrb	r3, [r7, #0]
10005fb8:	4313      	orrs	r3, r2
10005fba:	703b      	strb	r3, [r7, #0]
10005fbc:	e554      	b.n	10005a68 <tud_task+0x20>
10005fbe:	88e3      	ldrh	r3, [r4, #6]
10005fc0:	2b01      	cmp	r3, #1
10005fc2:	d000      	beq.n	10005fc6 <tud_task+0x57e>
10005fc4:	e5cd      	b.n	10005b62 <tud_task+0x11a>
10005fc6:	2208      	movs	r2, #8
10005fc8:	783b      	ldrb	r3, [r7, #0]
10005fca:	4650      	mov	r0, sl
10005fcc:	4313      	orrs	r3, r2
10005fce:	a908      	add	r1, sp, #32
10005fd0:	703b      	strb	r3, [r7, #0]
10005fd2:	f000 fb99 	bl	10006708 <tud_control_status>
10005fd6:	e547      	b.n	10005a68 <tud_task+0x20>
10005fd8:	2b02      	cmp	r3, #2
10005fda:	d100      	bne.n	10005fde <tud_task+0x596>
10005fdc:	e194      	b.n	10006308 <tud_task+0x8c0>
10005fde:	4b3d      	ldr	r3, [pc, #244]	; (100060d4 <tud_task+0x68c>)
10005fe0:	2b00      	cmp	r3, #0
10005fe2:	d100      	bne.n	10005fe6 <tud_task+0x59e>
10005fe4:	e5bd      	b.n	10005b62 <tud_task+0x11a>
10005fe6:	e000      	b.n	10005fea <tud_task+0x5a2>
10005fe8:	bf00      	nop
10005fea:	0002      	movs	r2, r0
10005fec:	2a00      	cmp	r2, #0
10005fee:	d100      	bne.n	10005ff2 <tud_task+0x5aa>
10005ff0:	e5b7      	b.n	10005b62 <tud_task+0x11a>
10005ff2:	78d3      	ldrb	r3, [r2, #3]
10005ff4:	7891      	ldrb	r1, [r2, #2]
10005ff6:	021b      	lsls	r3, r3, #8
10005ff8:	430b      	orrs	r3, r1
10005ffa:	4650      	mov	r0, sl
10005ffc:	a908      	add	r1, sp, #32
10005ffe:	f000 fb9b 	bl	10006738 <tud_control_xfer>
10006002:	e6a1      	b.n	10005d48 <tud_task+0x300>
10006004:	4b2f      	ldr	r3, [pc, #188]	; (100060c4 <tud_task+0x67c>)
10006006:	4831      	ldr	r0, [pc, #196]	; (100060cc <tud_task+0x684>)
10006008:	9301      	str	r3, [sp, #4]
1000600a:	e778      	b.n	10005efe <tud_task+0x4b6>
1000600c:	88e2      	ldrh	r2, [r4, #6]
1000600e:	2a00      	cmp	r2, #0
10006010:	d109      	bne.n	10006026 <tud_task+0x5de>
10006012:	4643      	mov	r3, r8
10006014:	2b01      	cmp	r3, #1
10006016:	d03d      	beq.n	10006094 <tud_task+0x64c>
10006018:	9b00      	ldr	r3, [sp, #0]
1000601a:	18fb      	adds	r3, r7, r3
1000601c:	195d      	adds	r5, r3, r5
1000601e:	3530      	adds	r5, #48	; 0x30
10006020:	78eb      	ldrb	r3, [r5, #3]
10006022:	079b      	lsls	r3, r3, #30
10006024:	d52a      	bpl.n	1000607c <tud_task+0x634>
10006026:	9d01      	ldr	r5, [sp, #4]
10006028:	2d00      	cmp	r5, #0
1000602a:	d100      	bne.n	1000602e <tud_task+0x5e6>
1000602c:	e51c      	b.n	10005a68 <tud_task+0x20>
1000602e:	68eb      	ldr	r3, [r5, #12]
10006030:	0018      	movs	r0, r3
10006032:	9300      	str	r3, [sp, #0]
10006034:	f000 fbe8 	bl	10006808 <usbd_control_set_complete_callback>
10006038:	68eb      	ldr	r3, [r5, #12]
1000603a:	2100      	movs	r1, #0
1000603c:	aa08      	add	r2, sp, #32
1000603e:	4650      	mov	r0, sl
10006040:	4798      	blx	r3
10006042:	2000      	movs	r0, #0
10006044:	f000 fbe0 	bl	10006808 <usbd_control_set_complete_callback>
10006048:	2334      	movs	r3, #52	; 0x34
1000604a:	5cfb      	ldrb	r3, [r7, r3]
1000604c:	07db      	lsls	r3, r3, #31
1000604e:	d500      	bpl.n	10006052 <tud_task+0x60a>
10006050:	e50a      	b.n	10005a68 <tud_task+0x20>
10006052:	e71b      	b.n	10005e8c <tud_task+0x444>
10006054:	4a1c      	ldr	r2, [pc, #112]	; (100060c8 <tud_task+0x680>)
10006056:	005d      	lsls	r5, r3, #1
10006058:	18eb      	adds	r3, r5, r3
1000605a:	6815      	ldr	r5, [r2, #0]
1000605c:	00db      	lsls	r3, r3, #3
1000605e:	18ed      	adds	r5, r5, r3
10006060:	2d00      	cmp	r5, #0
10006062:	d100      	bne.n	10006066 <tud_task+0x61e>
10006064:	e57d      	b.n	10005b62 <tud_task+0x11a>
10006066:	68e8      	ldr	r0, [r5, #12]
10006068:	e72a      	b.n	10005ec0 <tud_task+0x478>
1000606a:	ab06      	add	r3, sp, #24
1000606c:	1c9a      	adds	r2, r3, #2
1000606e:	4650      	mov	r0, sl
10006070:	2301      	movs	r3, #1
10006072:	a908      	add	r1, sp, #32
10006074:	7015      	strb	r5, [r2, #0]
10006076:	f000 fb5f 	bl	10006738 <tud_control_xfer>
1000607a:	e4f5      	b.n	10005a68 <tud_task+0x20>
1000607c:	4650      	mov	r0, sl
1000607e:	f7ff fa43 	bl	10005508 <dcd_edpt_stall>
10006082:	2202      	movs	r2, #2
10006084:	78eb      	ldrb	r3, [r5, #3]
10006086:	4313      	orrs	r3, r2
10006088:	2201      	movs	r2, #1
1000608a:	70eb      	strb	r3, [r5, #3]
1000608c:	78eb      	ldrb	r3, [r5, #3]
1000608e:	4313      	orrs	r3, r2
10006090:	70eb      	strb	r3, [r5, #3]
10006092:	e7c8      	b.n	10006026 <tud_task+0x5de>
10006094:	9b00      	ldr	r3, [sp, #0]
10006096:	18fb      	adds	r3, r7, r3
10006098:	195d      	adds	r5, r3, r5
1000609a:	3530      	adds	r5, #48	; 0x30
1000609c:	78eb      	ldrb	r3, [r5, #3]
1000609e:	079b      	lsls	r3, r3, #30
100060a0:	d5c1      	bpl.n	10006026 <tud_task+0x5de>
100060a2:	4650      	mov	r0, sl
100060a4:	f7ff fa4c 	bl	10005540 <dcd_edpt_clear_stall>
100060a8:	464a      	mov	r2, r9
100060aa:	78eb      	ldrb	r3, [r5, #3]
100060ac:	4393      	bics	r3, r2
100060ae:	4642      	mov	r2, r8
100060b0:	70eb      	strb	r3, [r5, #3]
100060b2:	78eb      	ldrb	r3, [r5, #3]
100060b4:	4393      	bics	r3, r2
100060b6:	70eb      	strb	r3, [r5, #3]
100060b8:	e7b5      	b.n	10006026 <tud_task+0x5de>
100060ba:	46c0      	nop			; (mov r8, r8)
100060bc:	10004c81 	.word	0x10004c81
100060c0:	20002c2e 	.word	0x20002c2e
100060c4:	10007d80 	.word	0x10007d80
100060c8:	200021bc 	.word	0x200021bc
100060cc:	10006c35 	.word	0x10006c35
100060d0:	10007d40 	.word	0x10007d40
100060d4:	00000000 	.word	0x00000000
100060d8:	1e58      	subs	r0, r3, #1
100060da:	b2c0      	uxtb	r0, r0
100060dc:	f7fe ff18 	bl	10004f10 <tud_descriptor_configuration_cb>
100060e0:	2800      	cmp	r0, #0
100060e2:	d100      	bne.n	100060e6 <tud_task+0x69e>
100060e4:	e53d      	b.n	10005b62 <tud_task+0x11a>
100060e6:	7843      	ldrb	r3, [r0, #1]
100060e8:	9304      	str	r3, [sp, #16]
100060ea:	2b02      	cmp	r3, #2
100060ec:	d000      	beq.n	100060f0 <tud_task+0x6a8>
100060ee:	e538      	b.n	10005b62 <tud_task+0x11a>
100060f0:	2101      	movs	r1, #1
100060f2:	79c3      	ldrb	r3, [r0, #7]
100060f4:	119a      	asrs	r2, r3, #6
100060f6:	115b      	asrs	r3, r3, #5
100060f8:	400a      	ands	r2, r1
100060fa:	400b      	ands	r3, r1
100060fc:	0152      	lsls	r2, r2, #5
100060fe:	011b      	lsls	r3, r3, #4
10006100:	4313      	orrs	r3, r2
10006102:	783a      	ldrb	r2, [r7, #0]
10006104:	312f      	adds	r1, #47	; 0x2f
10006106:	438a      	bics	r2, r1
10006108:	4313      	orrs	r3, r2
1000610a:	703b      	strb	r3, [r7, #0]
1000610c:	2309      	movs	r3, #9
1000610e:	4699      	mov	r9, r3
10006110:	78c3      	ldrb	r3, [r0, #3]
10006112:	7882      	ldrb	r2, [r0, #2]
10006114:	021b      	lsls	r3, r3, #8
10006116:	4313      	orrs	r3, r2
10006118:	18c3      	adds	r3, r0, r3
1000611a:	4481      	add	r9, r0
1000611c:	9303      	str	r3, [sp, #12]
1000611e:	9b03      	ldr	r3, [sp, #12]
10006120:	454b      	cmp	r3, r9
10006122:	d800      	bhi.n	10006126 <tud_task+0x6de>
10006124:	e0e9      	b.n	100062fa <tud_task+0x8b2>
10006126:	464b      	mov	r3, r9
10006128:	2201      	movs	r2, #1
1000612a:	785b      	ldrb	r3, [r3, #1]
1000612c:	9200      	str	r2, [sp, #0]
1000612e:	2b0b      	cmp	r3, #11
10006130:	d107      	bne.n	10006142 <tud_task+0x6fa>
10006132:	464b      	mov	r3, r9
10006134:	78db      	ldrb	r3, [r3, #3]
10006136:	9300      	str	r3, [sp, #0]
10006138:	464b      	mov	r3, r9
1000613a:	781b      	ldrb	r3, [r3, #0]
1000613c:	4499      	add	r9, r3
1000613e:	464b      	mov	r3, r9
10006140:	785b      	ldrb	r3, [r3, #1]
10006142:	2b04      	cmp	r3, #4
10006144:	d000      	beq.n	10006148 <tud_task+0x700>
10006146:	e50c      	b.n	10005b62 <tud_task+0x11a>
10006148:	464a      	mov	r2, r9
1000614a:	9b03      	ldr	r3, [sp, #12]
1000614c:	2500      	movs	r5, #0
1000614e:	1a9b      	subs	r3, r3, r2
10006150:	b29b      	uxth	r3, r3
10006152:	9302      	str	r3, [sp, #8]
10006154:	4a6e      	ldr	r2, [pc, #440]	; (10006310 <tud_task+0x8c8>)
10006156:	4b6f      	ldr	r3, [pc, #444]	; (10006314 <tud_task+0x8cc>)
10006158:	781b      	ldrb	r3, [r3, #0]
1000615a:	2a00      	cmp	r2, #0
1000615c:	d116      	bne.n	1000618c <tud_task+0x744>
1000615e:	e062      	b.n	10006226 <tud_task+0x7de>
10006160:	42ab      	cmp	r3, r5
10006162:	d171      	bne.n	10006248 <tud_task+0x800>
10006164:	4a6c      	ldr	r2, [pc, #432]	; (10006318 <tud_task+0x8d0>)
10006166:	4b6d      	ldr	r3, [pc, #436]	; (1000631c <tud_task+0x8d4>)
10006168:	4690      	mov	r8, r2
1000616a:	4649      	mov	r1, r9
1000616c:	4650      	mov	r0, sl
1000616e:	9a02      	ldr	r2, [sp, #8]
10006170:	4798      	blx	r3
10006172:	4684      	mov	ip, r0
10006174:	2808      	cmp	r0, #8
10006176:	d902      	bls.n	1000617e <tud_task+0x736>
10006178:	9a02      	ldr	r2, [sp, #8]
1000617a:	4282      	cmp	r2, r0
1000617c:	d269      	bcs.n	10006252 <tud_task+0x80a>
1000617e:	4b65      	ldr	r3, [pc, #404]	; (10006314 <tud_task+0x8cc>)
10006180:	3501      	adds	r5, #1
10006182:	781b      	ldrb	r3, [r3, #0]
10006184:	b2ed      	uxtb	r5, r5
10006186:	42ab      	cmp	r3, r5
10006188:	d200      	bcs.n	1000618c <tud_task+0x744>
1000618a:	e4ea      	b.n	10005b62 <tud_task+0x11a>
1000618c:	42ab      	cmp	r3, r5
1000618e:	d9e7      	bls.n	10006160 <tud_task+0x718>
10006190:	4a63      	ldr	r2, [pc, #396]	; (10006320 <tud_task+0x8d8>)
10006192:	006b      	lsls	r3, r5, #1
10006194:	6812      	ldr	r2, [r2, #0]
10006196:	195b      	adds	r3, r3, r5
10006198:	4690      	mov	r8, r2
1000619a:	00db      	lsls	r3, r3, #3
1000619c:	4498      	add	r8, r3
1000619e:	4643      	mov	r3, r8
100061a0:	9205      	str	r2, [sp, #20]
100061a2:	689b      	ldr	r3, [r3, #8]
100061a4:	e7e1      	b.n	1000616a <tud_task+0x722>
100061a6:	4650      	mov	r0, sl
100061a8:	f7ff f93e 	bl	10005428 <dcd_edpt_close_all>
100061ac:	78bb      	ldrb	r3, [r7, #2]
100061ae:	4d59      	ldr	r5, [pc, #356]	; (10006314 <tud_task+0x8cc>)
100061b0:	4a57      	ldr	r2, [pc, #348]	; (10006310 <tud_task+0x8c8>)
100061b2:	9300      	str	r3, [sp, #0]
100061b4:	2100      	movs	r1, #0
100061b6:	782b      	ldrb	r3, [r5, #0]
100061b8:	2a00      	cmp	r2, #0
100061ba:	d02d      	beq.n	10006218 <tud_task+0x7d0>
100061bc:	4a58      	ldr	r2, [pc, #352]	; (10006320 <tud_task+0x8d8>)
100061be:	4690      	mov	r8, r2
100061c0:	002a      	movs	r2, r5
100061c2:	000d      	movs	r5, r1
100061c4:	4691      	mov	r9, r2
100061c6:	429d      	cmp	r5, r3
100061c8:	d31d      	bcc.n	10006206 <tud_task+0x7be>
100061ca:	d000      	beq.n	100061ce <tud_task+0x786>
100061cc:	e5a0      	b.n	10005d10 <tud_task+0x2c8>
100061ce:	4b55      	ldr	r3, [pc, #340]	; (10006324 <tud_task+0x8dc>)
100061d0:	4650      	mov	r0, sl
100061d2:	4798      	blx	r3
100061d4:	464b      	mov	r3, r9
100061d6:	3501      	adds	r5, #1
100061d8:	781b      	ldrb	r3, [r3, #0]
100061da:	b2ed      	uxtb	r5, r5
100061dc:	42ab      	cmp	r3, r5
100061de:	d2f2      	bcs.n	100061c6 <tud_task+0x77e>
100061e0:	2253      	movs	r2, #83	; 0x53
100061e2:	2100      	movs	r1, #0
100061e4:	0038      	movs	r0, r7
100061e6:	f7fe fbd7 	bl	10004998 <__wrap_memset>
100061ea:	2210      	movs	r2, #16
100061ec:	21ff      	movs	r1, #255	; 0xff
100061ee:	1cf8      	adds	r0, r7, #3
100061f0:	f7fe fbd2 	bl	10004998 <__wrap_memset>
100061f4:	0038      	movs	r0, r7
100061f6:	2220      	movs	r2, #32
100061f8:	21ff      	movs	r1, #255	; 0xff
100061fa:	3013      	adds	r0, #19
100061fc:	f7fe fbcc 	bl	10004998 <__wrap_memset>
10006200:	9b00      	ldr	r3, [sp, #0]
10006202:	70bb      	strb	r3, [r7, #2]
10006204:	e6b0      	b.n	10005f68 <tud_task+0x520>
10006206:	4642      	mov	r2, r8
10006208:	6812      	ldr	r2, [r2, #0]
1000620a:	006b      	lsls	r3, r5, #1
1000620c:	4694      	mov	ip, r2
1000620e:	195b      	adds	r3, r3, r5
10006210:	00db      	lsls	r3, r3, #3
10006212:	4463      	add	r3, ip
10006214:	685b      	ldr	r3, [r3, #4]
10006216:	e7db      	b.n	100061d0 <tud_task+0x788>
10006218:	4650      	mov	r0, sl
1000621a:	f000 fc83 	bl	10006b24 <cdcd_reset>
1000621e:	782b      	ldrb	r3, [r5, #0]
10006220:	2b00      	cmp	r3, #0
10006222:	d0dd      	beq.n	100061e0 <tud_task+0x798>
10006224:	e574      	b.n	10005d10 <tud_task+0x2c8>
10006226:	9b02      	ldr	r3, [sp, #8]
10006228:	4649      	mov	r1, r9
1000622a:	001a      	movs	r2, r3
1000622c:	4650      	mov	r0, sl
1000622e:	4698      	mov	r8, r3
10006230:	f000 fc8e 	bl	10006b50 <cdcd_open>
10006234:	4684      	mov	ip, r0
10006236:	2808      	cmp	r0, #8
10006238:	d901      	bls.n	1000623e <tud_task+0x7f6>
1000623a:	4540      	cmp	r0, r8
1000623c:	d907      	bls.n	1000624e <tud_task+0x806>
1000623e:	4b35      	ldr	r3, [pc, #212]	; (10006314 <tud_task+0x8cc>)
10006240:	781b      	ldrb	r3, [r3, #0]
10006242:	2b00      	cmp	r3, #0
10006244:	d100      	bne.n	10006248 <tud_task+0x800>
10006246:	e48c      	b.n	10005b62 <tud_task+0x11a>
10006248:	2300      	movs	r3, #0
1000624a:	689b      	ldr	r3, [r3, #8]
1000624c:	deff      	udf	#255	; 0xff
1000624e:	4b32      	ldr	r3, [pc, #200]	; (10006318 <tud_task+0x8d0>)
10006250:	4698      	mov	r8, r3
10006252:	9b00      	ldr	r3, [sp, #0]
10006254:	2b01      	cmp	r3, #1
10006256:	d048      	beq.n	100062ea <tud_task+0x8a2>
10006258:	9b00      	ldr	r3, [sp, #0]
1000625a:	2b00      	cmp	r3, #0
1000625c:	d010      	beq.n	10006280 <tud_task+0x838>
1000625e:	464b      	mov	r3, r9
10006260:	7899      	ldrb	r1, [r3, #2]
10006262:	2300      	movs	r3, #0
10006264:	e005      	b.n	10006272 <tud_task+0x82a>
10006266:	70d5      	strb	r5, [r2, #3]
10006268:	3301      	adds	r3, #1
1000626a:	9a00      	ldr	r2, [sp, #0]
1000626c:	b2db      	uxtb	r3, r3
1000626e:	4293      	cmp	r3, r2
10006270:	d206      	bcs.n	10006280 <tud_task+0x838>
10006272:	18ca      	adds	r2, r1, r3
10006274:	b2d2      	uxtb	r2, r2
10006276:	18ba      	adds	r2, r7, r2
10006278:	78d0      	ldrb	r0, [r2, #3]
1000627a:	28ff      	cmp	r0, #255	; 0xff
1000627c:	d0f3      	beq.n	10006266 <tud_task+0x81e>
1000627e:	e470      	b.n	10005b62 <tud_task+0x11a>
10006280:	0038      	movs	r0, r7
10006282:	46e0      	mov	r8, ip
10006284:	002b      	movs	r3, r5
10006286:	4649      	mov	r1, r9
10006288:	4662      	mov	r2, ip
1000628a:	3013      	adds	r0, #19
1000628c:	f000 fe2e 	bl	10006eec <tu_edpt_bind_driver>
10006290:	4b20      	ldr	r3, [pc, #128]	; (10006314 <tud_task+0x8cc>)
10006292:	44c1      	add	r9, r8
10006294:	781b      	ldrb	r3, [r3, #0]
10006296:	42ab      	cmp	r3, r5
10006298:	d300      	bcc.n	1000629c <tud_task+0x854>
1000629a:	e740      	b.n	1000611e <tud_task+0x6d6>
1000629c:	e461      	b.n	10005b62 <tud_task+0x11a>
1000629e:	4b22      	ldr	r3, [pc, #136]	; (10006328 <tud_task+0x8e0>)
100062a0:	2b00      	cmp	r3, #0
100062a2:	d100      	bne.n	100062a6 <tud_task+0x85e>
100062a4:	e45d      	b.n	10005b62 <tud_task+0x11a>
100062a6:	e000      	b.n	100062aa <tud_task+0x862>
100062a8:	bf00      	nop
100062aa:	0002      	movs	r2, r0
100062ac:	e6a1      	b.n	10005ff2 <tud_task+0x5aa>
100062ae:	f7fe fe2b 	bl	10004f08 <tud_descriptor_device_cb>
100062b2:	2312      	movs	r3, #18
100062b4:	0002      	movs	r2, r0
100062b6:	a908      	add	r1, sp, #32
100062b8:	4650      	mov	r0, sl
100062ba:	f000 fa3d 	bl	10006738 <tud_control_xfer>
100062be:	e543      	b.n	10005d48 <tud_task+0x300>
100062c0:	4b1a      	ldr	r3, [pc, #104]	; (1000632c <tud_task+0x8e4>)
100062c2:	2b00      	cmp	r3, #0
100062c4:	d100      	bne.n	100062c8 <tud_task+0x880>
100062c6:	e44c      	b.n	10005b62 <tud_task+0x11a>
100062c8:	e000      	b.n	100062cc <tud_task+0x884>
100062ca:	bf00      	nop
100062cc:	1e02      	subs	r2, r0, #0
100062ce:	d100      	bne.n	100062d2 <tud_task+0x88a>
100062d0:	e447      	b.n	10005b62 <tud_task+0x11a>
100062d2:	4650      	mov	r0, sl
100062d4:	7813      	ldrb	r3, [r2, #0]
100062d6:	a908      	add	r1, sp, #32
100062d8:	f000 fa2e 	bl	10006738 <tud_control_xfer>
100062dc:	e534      	b.n	10005d48 <tud_task+0x300>
100062de:	8921      	ldrh	r1, [r4, #8]
100062e0:	f7fe fe1a 	bl	10004f18 <tud_descriptor_string_cb>
100062e4:	1e02      	subs	r2, r0, #0
100062e6:	d1f4      	bne.n	100062d2 <tud_task+0x88a>
100062e8:	e43b      	b.n	10005b62 <tud_task+0x11a>
100062ea:	4642      	mov	r2, r8
100062ec:	4b0b      	ldr	r3, [pc, #44]	; (1000631c <tud_task+0x8d4>)
100062ee:	6892      	ldr	r2, [r2, #8]
100062f0:	429a      	cmp	r2, r3
100062f2:	d1b4      	bne.n	1000625e <tud_task+0x816>
100062f4:	9b04      	ldr	r3, [sp, #16]
100062f6:	9300      	str	r3, [sp, #0]
100062f8:	e7b1      	b.n	1000625e <tud_task+0x816>
100062fa:	4b0d      	ldr	r3, [pc, #52]	; (10006330 <tud_task+0x8e8>)
100062fc:	2b00      	cmp	r3, #0
100062fe:	d100      	bne.n	10006302 <tud_task+0x8ba>
10006300:	e636      	b.n	10005f70 <tud_task+0x528>
10006302:	e000      	b.n	10006306 <tud_task+0x8be>
10006304:	bf00      	nop
10006306:	e633      	b.n	10005f70 <tud_task+0x528>
10006308:	f7fe fe02 	bl	10004f10 <tud_descriptor_configuration_cb>
1000630c:	0002      	movs	r2, r0
1000630e:	e66d      	b.n	10005fec <tud_task+0x5a4>
10006310:	10004c81 	.word	0x10004c81
10006314:	20002c2e 	.word	0x20002c2e
10006318:	10007d80 	.word	0x10007d80
1000631c:	10006b51 	.word	0x10006b51
10006320:	200021bc 	.word	0x200021bc
10006324:	10006b25 	.word	0x10006b25
	...

10006334 <dcd_event_bus_signal>:
10006334:	b530      	push	{r4, r5, lr}
10006336:	b087      	sub	sp, #28
10006338:	0005      	movs	r5, r0
1000633a:	000c      	movs	r4, r1
1000633c:	220c      	movs	r2, #12
1000633e:	2100      	movs	r1, #0
10006340:	4668      	mov	r0, sp
10006342:	f7fe fb29 	bl	10004998 <__wrap_memset>
10006346:	466b      	mov	r3, sp
10006348:	701d      	strb	r5, [r3, #0]
1000634a:	705c      	strb	r4, [r3, #1]
1000634c:	2c04      	cmp	r4, #4
1000634e:	d04f      	beq.n	100063f0 <dcd_event_bus_signal+0xbc>
10006350:	d809      	bhi.n	10006366 <dcd_event_bus_signal+0x32>
10006352:	2c02      	cmp	r4, #2
10006354:	d034      	beq.n	100063c0 <dcd_event_bus_signal+0x8c>
10006356:	2c03      	cmp	r4, #3
10006358:	d119      	bne.n	1000638e <dcd_event_bus_signal+0x5a>
1000635a:	4b3c      	ldr	r3, [pc, #240]	; (1000644c <dcd_event_bus_signal+0x118>)
1000635c:	781a      	ldrb	r2, [r3, #0]
1000635e:	0752      	lsls	r2, r2, #29
10006360:	d458      	bmi.n	10006414 <dcd_event_bus_signal+0xe0>
10006362:	b007      	add	sp, #28
10006364:	bd30      	pop	{r4, r5, pc}
10006366:	2c05      	cmp	r4, #5
10006368:	d111      	bne.n	1000638e <dcd_event_bus_signal+0x5a>
1000636a:	4b38      	ldr	r3, [pc, #224]	; (1000644c <dcd_event_bus_signal+0x118>)
1000636c:	781a      	ldrb	r2, [r3, #0]
1000636e:	07d2      	lsls	r2, r2, #31
10006370:	d5f7      	bpl.n	10006362 <dcd_event_bus_signal+0x2e>
10006372:	2104      	movs	r1, #4
10006374:	781a      	ldrb	r2, [r3, #0]
10006376:	438a      	bics	r2, r1
10006378:	701a      	strb	r2, [r3, #0]
1000637a:	4b35      	ldr	r3, [pc, #212]	; (10006450 <dcd_event_bus_signal+0x11c>)
1000637c:	681c      	ldr	r4, [r3, #0]
1000637e:	69e2      	ldr	r2, [r4, #28]
10006380:	f3ef 8110 	mrs	r1, PRIMASK
10006384:	b672      	cpsid	i
10006386:	6813      	ldr	r3, [r2, #0]
10006388:	2b00      	cmp	r3, #0
1000638a:	d109      	bne.n	100063a0 <dcd_event_bus_signal+0x6c>
1000638c:	e7fb      	b.n	10006386 <dcd_event_bus_signal+0x52>
1000638e:	4b30      	ldr	r3, [pc, #192]	; (10006450 <dcd_event_bus_signal+0x11c>)
10006390:	681c      	ldr	r4, [r3, #0]
10006392:	69e2      	ldr	r2, [r4, #28]
10006394:	f3ef 8110 	mrs	r1, PRIMASK
10006398:	b672      	cpsid	i
1000639a:	6813      	ldr	r3, [r2, #0]
1000639c:	2b00      	cmp	r3, #0
1000639e:	d0fc      	beq.n	1000639a <dcd_event_bus_signal+0x66>
100063a0:	f3bf 8f5f 	dmb	sy
100063a4:	6221      	str	r1, [r4, #32]
100063a6:	4669      	mov	r1, sp
100063a8:	0020      	movs	r0, r4
100063aa:	f000 fee5 	bl	10007178 <tu_fifo_write>
100063ae:	69e2      	ldr	r2, [r4, #28]
100063b0:	6a23      	ldr	r3, [r4, #32]
100063b2:	f3bf 8f5f 	dmb	sy
100063b6:	2100      	movs	r1, #0
100063b8:	6011      	str	r1, [r2, #0]
100063ba:	f383 8810 	msr	PRIMASK, r3
100063be:	e7d0      	b.n	10006362 <dcd_event_bus_signal+0x2e>
100063c0:	2101      	movs	r1, #1
100063c2:	4b22      	ldr	r3, [pc, #136]	; (1000644c <dcd_event_bus_signal+0x118>)
100063c4:	781a      	ldrb	r2, [r3, #0]
100063c6:	438a      	bics	r2, r1
100063c8:	701a      	strb	r2, [r3, #0]
100063ca:	781a      	ldrb	r2, [r3, #0]
100063cc:	3103      	adds	r1, #3
100063ce:	43a2      	bics	r2, r4
100063d0:	701a      	strb	r2, [r3, #0]
100063d2:	2200      	movs	r2, #0
100063d4:	705a      	strb	r2, [r3, #1]
100063d6:	781a      	ldrb	r2, [r3, #0]
100063d8:	438a      	bics	r2, r1
100063da:	701a      	strb	r2, [r3, #0]
100063dc:	4b1c      	ldr	r3, [pc, #112]	; (10006450 <dcd_event_bus_signal+0x11c>)
100063de:	681c      	ldr	r4, [r3, #0]
100063e0:	69e2      	ldr	r2, [r4, #28]
100063e2:	f3ef 8110 	mrs	r1, PRIMASK
100063e6:	b672      	cpsid	i
100063e8:	6813      	ldr	r3, [r2, #0]
100063ea:	2b00      	cmp	r3, #0
100063ec:	d1d8      	bne.n	100063a0 <dcd_event_bus_signal+0x6c>
100063ee:	e7fb      	b.n	100063e8 <dcd_event_bus_signal+0xb4>
100063f0:	4b16      	ldr	r3, [pc, #88]	; (1000644c <dcd_event_bus_signal+0x118>)
100063f2:	781a      	ldrb	r2, [r3, #0]
100063f4:	07d2      	lsls	r2, r2, #31
100063f6:	d5b4      	bpl.n	10006362 <dcd_event_bus_signal+0x2e>
100063f8:	2104      	movs	r1, #4
100063fa:	781a      	ldrb	r2, [r3, #0]
100063fc:	430a      	orrs	r2, r1
100063fe:	701a      	strb	r2, [r3, #0]
10006400:	4b13      	ldr	r3, [pc, #76]	; (10006450 <dcd_event_bus_signal+0x11c>)
10006402:	681c      	ldr	r4, [r3, #0]
10006404:	69e2      	ldr	r2, [r4, #28]
10006406:	f3ef 8110 	mrs	r1, PRIMASK
1000640a:	b672      	cpsid	i
1000640c:	6813      	ldr	r3, [r2, #0]
1000640e:	2b00      	cmp	r3, #0
10006410:	d1c6      	bne.n	100063a0 <dcd_event_bus_signal+0x6c>
10006412:	e7fb      	b.n	1000640c <dcd_event_bus_signal+0xd8>
10006414:	2104      	movs	r1, #4
10006416:	781a      	ldrb	r2, [r3, #0]
10006418:	a803      	add	r0, sp, #12
1000641a:	438a      	bics	r2, r1
1000641c:	701a      	strb	r2, [r3, #0]
1000641e:	2100      	movs	r1, #0
10006420:	220c      	movs	r2, #12
10006422:	f7fe fab9 	bl	10004998 <__wrap_memset>
10006426:	466b      	mov	r3, sp
10006428:	466a      	mov	r2, sp
1000642a:	731d      	strb	r5, [r3, #12]
1000642c:	2305      	movs	r3, #5
1000642e:	7353      	strb	r3, [r2, #13]
10006430:	4b07      	ldr	r3, [pc, #28]	; (10006450 <dcd_event_bus_signal+0x11c>)
10006432:	681c      	ldr	r4, [r3, #0]
10006434:	69e2      	ldr	r2, [r4, #28]
10006436:	f3ef 8110 	mrs	r1, PRIMASK
1000643a:	b672      	cpsid	i
1000643c:	6813      	ldr	r3, [r2, #0]
1000643e:	2b00      	cmp	r3, #0
10006440:	d0fc      	beq.n	1000643c <dcd_event_bus_signal+0x108>
10006442:	f3bf 8f5f 	dmb	sy
10006446:	6221      	str	r1, [r4, #32]
10006448:	a903      	add	r1, sp, #12
1000644a:	e7ad      	b.n	100063a8 <dcd_event_bus_signal+0x74>
1000644c:	200024f4 	.word	0x200024f4
10006450:	2000254c 	.word	0x2000254c

10006454 <dcd_event_bus_reset>:
10006454:	b570      	push	{r4, r5, r6, lr}
10006456:	b084      	sub	sp, #16
10006458:	ac01      	add	r4, sp, #4
1000645a:	0006      	movs	r6, r0
1000645c:	000d      	movs	r5, r1
1000645e:	220c      	movs	r2, #12
10006460:	2100      	movs	r1, #0
10006462:	0020      	movs	r0, r4
10006464:	f7fe fa98 	bl	10004998 <__wrap_memset>
10006468:	2301      	movs	r3, #1
1000646a:	7063      	strb	r3, [r4, #1]
1000646c:	4b0d      	ldr	r3, [pc, #52]	; (100064a4 <dcd_event_bus_reset+0x50>)
1000646e:	7125      	strb	r5, [r4, #4]
10006470:	681d      	ldr	r5, [r3, #0]
10006472:	7026      	strb	r6, [r4, #0]
10006474:	69ea      	ldr	r2, [r5, #28]
10006476:	f3ef 8310 	mrs	r3, PRIMASK
1000647a:	b672      	cpsid	i
1000647c:	6811      	ldr	r1, [r2, #0]
1000647e:	2900      	cmp	r1, #0
10006480:	d0fc      	beq.n	1000647c <dcd_event_bus_reset+0x28>
10006482:	f3bf 8f5f 	dmb	sy
10006486:	622b      	str	r3, [r5, #32]
10006488:	0021      	movs	r1, r4
1000648a:	0028      	movs	r0, r5
1000648c:	f000 fe74 	bl	10007178 <tu_fifo_write>
10006490:	69ea      	ldr	r2, [r5, #28]
10006492:	6a2b      	ldr	r3, [r5, #32]
10006494:	f3bf 8f5f 	dmb	sy
10006498:	2100      	movs	r1, #0
1000649a:	6011      	str	r1, [r2, #0]
1000649c:	f383 8810 	msr	PRIMASK, r3
100064a0:	b004      	add	sp, #16
100064a2:	bd70      	pop	{r4, r5, r6, pc}
100064a4:	2000254c 	.word	0x2000254c

100064a8 <dcd_event_setup_received>:
100064a8:	2300      	movs	r3, #0
100064aa:	b530      	push	{r4, r5, lr}
100064ac:	b085      	sub	sp, #20
100064ae:	ad01      	add	r5, sp, #4
100064b0:	806b      	strh	r3, [r5, #2]
100064b2:	7028      	strb	r0, [r5, #0]
100064b4:	3306      	adds	r3, #6
100064b6:	2208      	movs	r2, #8
100064b8:	a802      	add	r0, sp, #8
100064ba:	706b      	strb	r3, [r5, #1]
100064bc:	f7fe fa72 	bl	100049a4 <__wrap___aeabi_memcpy>
100064c0:	4b0c      	ldr	r3, [pc, #48]	; (100064f4 <dcd_event_setup_received+0x4c>)
100064c2:	681c      	ldr	r4, [r3, #0]
100064c4:	69e2      	ldr	r2, [r4, #28]
100064c6:	f3ef 8310 	mrs	r3, PRIMASK
100064ca:	b672      	cpsid	i
100064cc:	6811      	ldr	r1, [r2, #0]
100064ce:	2900      	cmp	r1, #0
100064d0:	d0fc      	beq.n	100064cc <dcd_event_setup_received+0x24>
100064d2:	f3bf 8f5f 	dmb	sy
100064d6:	6223      	str	r3, [r4, #32]
100064d8:	0029      	movs	r1, r5
100064da:	0020      	movs	r0, r4
100064dc:	f000 fe4c 	bl	10007178 <tu_fifo_write>
100064e0:	69e2      	ldr	r2, [r4, #28]
100064e2:	6a23      	ldr	r3, [r4, #32]
100064e4:	f3bf 8f5f 	dmb	sy
100064e8:	2100      	movs	r1, #0
100064ea:	6011      	str	r1, [r2, #0]
100064ec:	f383 8810 	msr	PRIMASK, r3
100064f0:	b005      	add	sp, #20
100064f2:	bd30      	pop	{r4, r5, pc}
100064f4:	2000254c 	.word	0x2000254c

100064f8 <dcd_event_xfer_complete>:
100064f8:	b5f0      	push	{r4, r5, r6, r7, lr}
100064fa:	46c6      	mov	lr, r8
100064fc:	4680      	mov	r8, r0
100064fe:	b500      	push	{lr}
10006500:	b084      	sub	sp, #16
10006502:	ac01      	add	r4, sp, #4
10006504:	000f      	movs	r7, r1
10006506:	0016      	movs	r6, r2
10006508:	2100      	movs	r1, #0
1000650a:	2208      	movs	r2, #8
1000650c:	0020      	movs	r0, r4
1000650e:	001d      	movs	r5, r3
10006510:	f7fe fa42 	bl	10004998 <__wrap_memset>
10006514:	4643      	mov	r3, r8
10006516:	7023      	strb	r3, [r4, #0]
10006518:	2307      	movs	r3, #7
1000651a:	7063      	strb	r3, [r4, #1]
1000651c:	4b0f      	ldr	r3, [pc, #60]	; (1000655c <dcd_event_xfer_complete+0x64>)
1000651e:	7165      	strb	r5, [r4, #5]
10006520:	681d      	ldr	r5, [r3, #0]
10006522:	7127      	strb	r7, [r4, #4]
10006524:	60a6      	str	r6, [r4, #8]
10006526:	69ea      	ldr	r2, [r5, #28]
10006528:	f3ef 8310 	mrs	r3, PRIMASK
1000652c:	b672      	cpsid	i
1000652e:	6811      	ldr	r1, [r2, #0]
10006530:	2900      	cmp	r1, #0
10006532:	d0fc      	beq.n	1000652e <dcd_event_xfer_complete+0x36>
10006534:	f3bf 8f5f 	dmb	sy
10006538:	622b      	str	r3, [r5, #32]
1000653a:	0021      	movs	r1, r4
1000653c:	0028      	movs	r0, r5
1000653e:	f000 fe1b 	bl	10007178 <tu_fifo_write>
10006542:	69ea      	ldr	r2, [r5, #28]
10006544:	6a2b      	ldr	r3, [r5, #32]
10006546:	f3bf 8f5f 	dmb	sy
1000654a:	2100      	movs	r1, #0
1000654c:	6011      	str	r1, [r2, #0]
1000654e:	f383 8810 	msr	PRIMASK, r3
10006552:	b004      	add	sp, #16
10006554:	bc80      	pop	{r7}
10006556:	46b8      	mov	r8, r7
10006558:	bdf0      	pop	{r4, r5, r6, r7, pc}
1000655a:	46c0      	nop			; (mov r8, r8)
1000655c:	2000254c 	.word	0x2000254c

10006560 <usbd_open_edpt_pair>:
10006560:	b5f0      	push	{r4, r5, r6, r7, lr}
10006562:	4646      	mov	r6, r8
10006564:	46d6      	mov	lr, sl
10006566:	464f      	mov	r7, r9
10006568:	4680      	mov	r8, r0
1000656a:	b5c0      	push	{r6, r7, lr}
1000656c:	000c      	movs	r4, r1
1000656e:	0015      	movs	r5, r2
10006570:	001e      	movs	r6, r3
10006572:	2a00      	cmp	r2, #0
10006574:	d02e      	beq.n	100065d4 <usbd_open_edpt_pair+0x74>
10006576:	2370      	movs	r3, #112	; 0x70
10006578:	4699      	mov	r9, r3
1000657a:	4b18      	ldr	r3, [pc, #96]	; (100065dc <usbd_open_edpt_pair+0x7c>)
1000657c:	2700      	movs	r7, #0
1000657e:	469a      	mov	sl, r3
10006580:	7863      	ldrb	r3, [r4, #1]
10006582:	2b05      	cmp	r3, #5
10006584:	d10f      	bne.n	100065a6 <usbd_open_edpt_pair+0x46>
10006586:	78e1      	ldrb	r1, [r4, #3]
10006588:	0789      	lsls	r1, r1, #30
1000658a:	0f89      	lsrs	r1, r1, #30
1000658c:	42b1      	cmp	r1, r6
1000658e:	d10a      	bne.n	100065a6 <usbd_open_edpt_pair+0x46>
10006590:	464a      	mov	r2, r9
10006592:	78a3      	ldrb	r3, [r4, #2]
10006594:	421a      	tst	r2, r3
10006596:	d106      	bne.n	100065a6 <usbd_open_edpt_pair+0x46>
10006598:	4653      	mov	r3, sl
1000659a:	0020      	movs	r0, r4
1000659c:	7899      	ldrb	r1, [r3, #2]
1000659e:	f000 fc69 	bl	10006e74 <tu_edpt_validate>
100065a2:	2800      	cmp	r0, #0
100065a4:	d105      	bne.n	100065b2 <usbd_open_edpt_pair+0x52>
100065a6:	2000      	movs	r0, #0
100065a8:	bce0      	pop	{r5, r6, r7}
100065aa:	46ba      	mov	sl, r7
100065ac:	46b1      	mov	r9, r6
100065ae:	46a8      	mov	r8, r5
100065b0:	bdf0      	pop	{r4, r5, r6, r7, pc}
100065b2:	0021      	movs	r1, r4
100065b4:	4640      	mov	r0, r8
100065b6:	f7fe febf 	bl	10005338 <dcd_edpt_open>
100065ba:	2800      	cmp	r0, #0
100065bc:	d0f3      	beq.n	100065a6 <usbd_open_edpt_pair+0x46>
100065be:	78a3      	ldrb	r3, [r4, #2]
100065c0:	09da      	lsrs	r2, r3, #7
100065c2:	2a01      	cmp	r2, #1
100065c4:	d008      	beq.n	100065d8 <usbd_open_edpt_pair+0x78>
100065c6:	9a08      	ldr	r2, [sp, #32]
100065c8:	7013      	strb	r3, [r2, #0]
100065ca:	7823      	ldrb	r3, [r4, #0]
100065cc:	3701      	adds	r7, #1
100065ce:	18e4      	adds	r4, r4, r3
100065d0:	42af      	cmp	r7, r5
100065d2:	dbd5      	blt.n	10006580 <usbd_open_edpt_pair+0x20>
100065d4:	2001      	movs	r0, #1
100065d6:	e7e7      	b.n	100065a8 <usbd_open_edpt_pair+0x48>
100065d8:	9a09      	ldr	r2, [sp, #36]	; 0x24
100065da:	e7f5      	b.n	100065c8 <usbd_open_edpt_pair+0x68>
100065dc:	200024f4 	.word	0x200024f4

100065e0 <usbd_edpt_open>:
100065e0:	2270      	movs	r2, #112	; 0x70
100065e2:	b570      	push	{r4, r5, r6, lr}
100065e4:	788b      	ldrb	r3, [r1, #2]
100065e6:	0005      	movs	r5, r0
100065e8:	000c      	movs	r4, r1
100065ea:	421a      	tst	r2, r3
100065ec:	d001      	beq.n	100065f2 <usbd_edpt_open+0x12>
100065ee:	2000      	movs	r0, #0
100065f0:	bd70      	pop	{r4, r5, r6, pc}
100065f2:	4b06      	ldr	r3, [pc, #24]	; (1000660c <usbd_edpt_open+0x2c>)
100065f4:	0020      	movs	r0, r4
100065f6:	7899      	ldrb	r1, [r3, #2]
100065f8:	f000 fc3c 	bl	10006e74 <tu_edpt_validate>
100065fc:	2800      	cmp	r0, #0
100065fe:	d0f6      	beq.n	100065ee <usbd_edpt_open+0xe>
10006600:	0021      	movs	r1, r4
10006602:	0028      	movs	r0, r5
10006604:	f7fe fe98 	bl	10005338 <dcd_edpt_open>
10006608:	e7f2      	b.n	100065f0 <usbd_edpt_open+0x10>
1000660a:	46c0      	nop			; (mov r8, r8)
1000660c:	200024f4 	.word	0x200024f4

10006610 <usbd_edpt_claim>:
10006610:	b570      	push	{r4, r5, r6, lr}
10006612:	247f      	movs	r4, #127	; 0x7f
10006614:	400c      	ands	r4, r1
10006616:	0063      	lsls	r3, r4, #1
10006618:	4c14      	ldr	r4, [pc, #80]	; (1000666c <usbd_edpt_claim+0x5c>)
1000661a:	09c9      	lsrs	r1, r1, #7
1000661c:	18e4      	adds	r4, r4, r3
1000661e:	1864      	adds	r4, r4, r1
10006620:	3430      	adds	r4, #48	; 0x30
10006622:	78e3      	ldrb	r3, [r4, #3]
10006624:	07db      	lsls	r3, r3, #31
10006626:	0fdd      	lsrs	r5, r3, #31
10006628:	2b00      	cmp	r3, #0
1000662a:	d118      	bne.n	1000665e <usbd_edpt_claim+0x4e>
1000662c:	78e3      	ldrb	r3, [r4, #3]
1000662e:	075b      	lsls	r3, r3, #29
10006630:	d501      	bpl.n	10006636 <usbd_edpt_claim+0x26>
10006632:	0028      	movs	r0, r5
10006634:	bd70      	pop	{r4, r5, r6, pc}
10006636:	2101      	movs	r1, #1
10006638:	4e0d      	ldr	r6, [pc, #52]	; (10006670 <usbd_edpt_claim+0x60>)
1000663a:	4249      	negs	r1, r1
1000663c:	6830      	ldr	r0, [r6, #0]
1000663e:	f001 f90f 	bl	10007860 <__mutex_enter_timeout_ms_veneer>
10006642:	78e3      	ldrb	r3, [r4, #3]
10006644:	07db      	lsls	r3, r3, #31
10006646:	0fdd      	lsrs	r5, r3, #31
10006648:	2b00      	cmp	r3, #0
1000664a:	d10a      	bne.n	10006662 <usbd_edpt_claim+0x52>
1000664c:	78e3      	ldrb	r3, [r4, #3]
1000664e:	075b      	lsls	r3, r3, #29
10006650:	d408      	bmi.n	10006664 <usbd_edpt_claim+0x54>
10006652:	2204      	movs	r2, #4
10006654:	78e3      	ldrb	r3, [r4, #3]
10006656:	2501      	movs	r5, #1
10006658:	4313      	orrs	r3, r2
1000665a:	70e3      	strb	r3, [r4, #3]
1000665c:	e002      	b.n	10006664 <usbd_edpt_claim+0x54>
1000665e:	2500      	movs	r5, #0
10006660:	e7e7      	b.n	10006632 <usbd_edpt_claim+0x22>
10006662:	2500      	movs	r5, #0
10006664:	6830      	ldr	r0, [r6, #0]
10006666:	f001 f8db 	bl	10007820 <__mutex_exit_veneer>
1000666a:	e7e2      	b.n	10006632 <usbd_edpt_claim+0x22>
1000666c:	200024f4 	.word	0x200024f4
10006670:	20002548 	.word	0x20002548

10006674 <usbd_edpt_release>:
10006674:	b570      	push	{r4, r5, r6, lr}
10006676:	000c      	movs	r4, r1
10006678:	2101      	movs	r1, #1
1000667a:	4d0f      	ldr	r5, [pc, #60]	; (100066b8 <usbd_edpt_release+0x44>)
1000667c:	4249      	negs	r1, r1
1000667e:	6828      	ldr	r0, [r5, #0]
10006680:	f001 f8ee 	bl	10007860 <__mutex_enter_timeout_ms_veneer>
10006684:	217f      	movs	r1, #127	; 0x7f
10006686:	4021      	ands	r1, r4
10006688:	004b      	lsls	r3, r1, #1
1000668a:	490c      	ldr	r1, [pc, #48]	; (100066bc <usbd_edpt_release+0x48>)
1000668c:	09e4      	lsrs	r4, r4, #7
1000668e:	18c9      	adds	r1, r1, r3
10006690:	1909      	adds	r1, r1, r4
10006692:	3130      	adds	r1, #48	; 0x30
10006694:	78cb      	ldrb	r3, [r1, #3]
10006696:	2400      	movs	r4, #0
10006698:	07db      	lsls	r3, r3, #31
1000669a:	d408      	bmi.n	100066ae <usbd_edpt_release+0x3a>
1000669c:	78cb      	ldrb	r3, [r1, #3]
1000669e:	075b      	lsls	r3, r3, #29
100066a0:	0fdc      	lsrs	r4, r3, #31
100066a2:	2b00      	cmp	r3, #0
100066a4:	da03      	bge.n	100066ae <usbd_edpt_release+0x3a>
100066a6:	2204      	movs	r2, #4
100066a8:	78cb      	ldrb	r3, [r1, #3]
100066aa:	4393      	bics	r3, r2
100066ac:	70cb      	strb	r3, [r1, #3]
100066ae:	6828      	ldr	r0, [r5, #0]
100066b0:	f001 f8b6 	bl	10007820 <__mutex_exit_veneer>
100066b4:	0020      	movs	r0, r4
100066b6:	bd70      	pop	{r4, r5, r6, pc}
100066b8:	20002548 	.word	0x20002548
100066bc:	200024f4 	.word	0x200024f4

100066c0 <usbd_edpt_xfer>:
100066c0:	b570      	push	{r4, r5, r6, lr}
100066c2:	257f      	movs	r5, #127	; 0x7f
100066c4:	4c0f      	ldr	r4, [pc, #60]	; (10006704 <usbd_edpt_xfer+0x44>)
100066c6:	400d      	ands	r5, r1
100066c8:	006d      	lsls	r5, r5, #1
100066ca:	1964      	adds	r4, r4, r5
100066cc:	0006      	movs	r6, r0
100066ce:	09c8      	lsrs	r0, r1, #7
100066d0:	1824      	adds	r4, r4, r0
100066d2:	3430      	adds	r4, #48	; 0x30
100066d4:	78e5      	ldrb	r5, [r4, #3]
100066d6:	2000      	movs	r0, #0
100066d8:	07ed      	lsls	r5, r5, #31
100066da:	d500      	bpl.n	100066de <usbd_edpt_xfer+0x1e>
100066dc:	bd70      	pop	{r4, r5, r6, pc}
100066de:	2501      	movs	r5, #1
100066e0:	78e0      	ldrb	r0, [r4, #3]
100066e2:	4328      	orrs	r0, r5
100066e4:	70e0      	strb	r0, [r4, #3]
100066e6:	0030      	movs	r0, r6
100066e8:	f7fe fefc 	bl	100054e4 <dcd_edpt_xfer>
100066ec:	2800      	cmp	r0, #0
100066ee:	d1f5      	bne.n	100066dc <usbd_edpt_xfer+0x1c>
100066f0:	2201      	movs	r2, #1
100066f2:	78e3      	ldrb	r3, [r4, #3]
100066f4:	4393      	bics	r3, r2
100066f6:	70e3      	strb	r3, [r4, #3]
100066f8:	78e3      	ldrb	r3, [r4, #3]
100066fa:	3203      	adds	r2, #3
100066fc:	4393      	bics	r3, r2
100066fe:	70e3      	strb	r3, [r4, #3]
10006700:	e7ec      	b.n	100066dc <usbd_edpt_xfer+0x1c>
10006702:	46c0      	nop			; (mov r8, r8)
10006704:	200024f4 	.word	0x200024f4

10006708 <tud_control_status>:
10006708:	b570      	push	{r4, r5, r6, lr}
1000670a:	4e0a      	ldr	r6, [pc, #40]	; (10006734 <tud_control_status+0x2c>)
1000670c:	0005      	movs	r5, r0
1000670e:	0030      	movs	r0, r6
10006710:	2208      	movs	r2, #8
10006712:	000c      	movs	r4, r1
10006714:	f7fe f946 	bl	100049a4 <__wrap___aeabi_memcpy>
10006718:	2300      	movs	r3, #0
1000671a:	217f      	movs	r1, #127	; 0x7f
1000671c:	60f3      	str	r3, [r6, #12]
1000671e:	7822      	ldrb	r2, [r4, #0]
10006720:	60b3      	str	r3, [r6, #8]
10006722:	4291      	cmp	r1, r2
10006724:	415b      	adcs	r3, r3
10006726:	0028      	movs	r0, r5
10006728:	01d9      	lsls	r1, r3, #7
1000672a:	2200      	movs	r2, #0
1000672c:	2300      	movs	r3, #0
1000672e:	f7ff ffc7 	bl	100066c0 <usbd_edpt_xfer>
10006732:	bd70      	pop	{r4, r5, r6, pc}
10006734:	20002498 	.word	0x20002498

10006738 <tud_control_xfer>:
10006738:	b5f8      	push	{r3, r4, r5, r6, r7, lr}
1000673a:	46ce      	mov	lr, r9
1000673c:	4647      	mov	r7, r8
1000673e:	4691      	mov	r9, r2
10006740:	4e2a      	ldr	r6, [pc, #168]	; (100067ec <tud_control_xfer+0xb4>)
10006742:	b580      	push	{r7, lr}
10006744:	2208      	movs	r2, #8
10006746:	0007      	movs	r7, r0
10006748:	0030      	movs	r0, r6
1000674a:	000d      	movs	r5, r1
1000674c:	4698      	mov	r8, r3
1000674e:	f7fe f929 	bl	100049a4 <__wrap___aeabi_memcpy>
10006752:	464b      	mov	r3, r9
10006754:	60b3      	str	r3, [r6, #8]
10006756:	2300      	movs	r3, #0
10006758:	81f3      	strh	r3, [r6, #14]
1000675a:	79ec      	ldrb	r4, [r5, #7]
1000675c:	79a9      	ldrb	r1, [r5, #6]
1000675e:	0224      	lsls	r4, r4, #8
10006760:	430c      	orrs	r4, r1
10006762:	1c23      	adds	r3, r4, #0
10006764:	4544      	cmp	r4, r8
10006766:	d900      	bls.n	1000676a <tud_control_xfer+0x32>
10006768:	4643      	mov	r3, r8
1000676a:	b29a      	uxth	r2, r3
1000676c:	4690      	mov	r8, r2
1000676e:	81b3      	strh	r3, [r6, #12]
10006770:	2c00      	cmp	r4, #0
10006772:	d013      	beq.n	1000679c <tud_control_xfer+0x64>
10006774:	2a00      	cmp	r2, #0
10006776:	d01f      	beq.n	100067b8 <tud_control_xfer+0x80>
10006778:	464b      	mov	r3, r9
1000677a:	2b00      	cmp	r3, #0
1000677c:	d034      	beq.n	100067e8 <tud_control_xfer+0xb0>
1000677e:	1c13      	adds	r3, r2, #0
10006780:	2a40      	cmp	r2, #64	; 0x40
10006782:	d81f      	bhi.n	100067c4 <tud_control_xfer+0x8c>
10006784:	b29b      	uxth	r3, r3
10006786:	4698      	mov	r8, r3
10006788:	7833      	ldrb	r3, [r6, #0]
1000678a:	2b7f      	cmp	r3, #127	; 0x7f
1000678c:	d820      	bhi.n	100067d0 <tud_control_xfer+0x98>
1000678e:	2100      	movs	r1, #0
10006790:	4a17      	ldr	r2, [pc, #92]	; (100067f0 <tud_control_xfer+0xb8>)
10006792:	4643      	mov	r3, r8
10006794:	0038      	movs	r0, r7
10006796:	f7ff ff93 	bl	100066c0 <usbd_edpt_xfer>
1000679a:	e009      	b.n	100067b0 <tud_control_xfer+0x78>
1000679c:	227f      	movs	r2, #127	; 0x7f
1000679e:	782b      	ldrb	r3, [r5, #0]
100067a0:	0038      	movs	r0, r7
100067a2:	429a      	cmp	r2, r3
100067a4:	4164      	adcs	r4, r4
100067a6:	2300      	movs	r3, #0
100067a8:	2200      	movs	r2, #0
100067aa:	01e1      	lsls	r1, r4, #7
100067ac:	f7ff ff88 	bl	100066c0 <usbd_edpt_xfer>
100067b0:	bcc0      	pop	{r6, r7}
100067b2:	46b9      	mov	r9, r7
100067b4:	46b0      	mov	r8, r6
100067b6:	bdf8      	pop	{r3, r4, r5, r6, r7, pc}
100067b8:	7833      	ldrb	r3, [r6, #0]
100067ba:	2b7f      	cmp	r3, #127	; 0x7f
100067bc:	d911      	bls.n	100067e2 <tud_control_xfer+0xaa>
100067be:	2180      	movs	r1, #128	; 0x80
100067c0:	2200      	movs	r2, #0
100067c2:	e7e6      	b.n	10006792 <tud_control_xfer+0x5a>
100067c4:	2340      	movs	r3, #64	; 0x40
100067c6:	b29b      	uxth	r3, r3
100067c8:	4698      	mov	r8, r3
100067ca:	7833      	ldrb	r3, [r6, #0]
100067cc:	2b7f      	cmp	r3, #127	; 0x7f
100067ce:	d9de      	bls.n	1000678e <tud_control_xfer+0x56>
100067d0:	4c07      	ldr	r4, [pc, #28]	; (100067f0 <tud_control_xfer+0xb8>)
100067d2:	4642      	mov	r2, r8
100067d4:	4649      	mov	r1, r9
100067d6:	0020      	movs	r0, r4
100067d8:	f7fe f8e4 	bl	100049a4 <__wrap___aeabi_memcpy>
100067dc:	2180      	movs	r1, #128	; 0x80
100067de:	0022      	movs	r2, r4
100067e0:	e7d7      	b.n	10006792 <tud_control_xfer+0x5a>
100067e2:	2100      	movs	r1, #0
100067e4:	2200      	movs	r2, #0
100067e6:	e7d4      	b.n	10006792 <tud_control_xfer+0x5a>
100067e8:	2000      	movs	r0, #0
100067ea:	e7e1      	b.n	100067b0 <tud_control_xfer+0x78>
100067ec:	20002498 	.word	0x20002498
100067f0:	200024b4 	.word	0x200024b4

100067f4 <usbd_control_reset>:
100067f4:	b510      	push	{r4, lr}
100067f6:	2214      	movs	r2, #20
100067f8:	2100      	movs	r1, #0
100067fa:	4802      	ldr	r0, [pc, #8]	; (10006804 <usbd_control_reset+0x10>)
100067fc:	f7fe f8cc 	bl	10004998 <__wrap_memset>
10006800:	bd10      	pop	{r4, pc}
10006802:	46c0      	nop			; (mov r8, r8)
10006804:	20002498 	.word	0x20002498

10006808 <usbd_control_set_complete_callback>:
10006808:	4b01      	ldr	r3, [pc, #4]	; (10006810 <usbd_control_set_complete_callback+0x8>)
1000680a:	6118      	str	r0, [r3, #16]
1000680c:	4770      	bx	lr
1000680e:	46c0      	nop			; (mov r8, r8)
10006810:	20002498 	.word	0x20002498

10006814 <usbd_control_set_request>:
10006814:	b510      	push	{r4, lr}
10006816:	4c05      	ldr	r4, [pc, #20]	; (1000682c <usbd_control_set_request+0x18>)
10006818:	0001      	movs	r1, r0
1000681a:	2208      	movs	r2, #8
1000681c:	0020      	movs	r0, r4
1000681e:	f7fe f8c1 	bl	100049a4 <__wrap___aeabi_memcpy>
10006822:	2300      	movs	r3, #0
10006824:	60a3      	str	r3, [r4, #8]
10006826:	60e3      	str	r3, [r4, #12]
10006828:	bd10      	pop	{r4, pc}
1000682a:	46c0      	nop			; (mov r8, r8)
1000682c:	20002498 	.word	0x20002498

10006830 <usbd_control_xfer_cb>:
10006830:	b5f8      	push	{r3, r4, r5, r6, r7, lr}
10006832:	4c3b      	ldr	r4, [pc, #236]	; (10006920 <usbd_control_xfer_cb+0xf0>)
10006834:	001d      	movs	r5, r3
10006836:	7823      	ldrb	r3, [r4, #0]
10006838:	0006      	movs	r6, r0
1000683a:	09da      	lsrs	r2, r3, #7
1000683c:	09c9      	lsrs	r1, r1, #7
1000683e:	428a      	cmp	r2, r1
10006840:	d013      	beq.n	1000686a <usbd_control_xfer_cb+0x3a>
10006842:	2000      	movs	r0, #0
10006844:	2d00      	cmp	r5, #0
10006846:	d000      	beq.n	1000684a <usbd_control_xfer_cb+0x1a>
10006848:	bdf8      	pop	{r3, r4, r5, r6, r7, pc}
1000684a:	4b36      	ldr	r3, [pc, #216]	; (10006924 <usbd_control_xfer_cb+0xf4>)
1000684c:	2b00      	cmp	r3, #0
1000684e:	d003      	beq.n	10006858 <usbd_control_xfer_cb+0x28>
10006850:	0021      	movs	r1, r4
10006852:	0030      	movs	r0, r6
10006854:	f7fe fd62 	bl	1000531c <dcd_edpt0_status_complete>
10006858:	6923      	ldr	r3, [r4, #16]
1000685a:	2b00      	cmp	r3, #0
1000685c:	d044      	beq.n	100068e8 <usbd_control_xfer_cb+0xb8>
1000685e:	0022      	movs	r2, r4
10006860:	2102      	movs	r1, #2
10006862:	0030      	movs	r0, r6
10006864:	4798      	blx	r3
10006866:	2001      	movs	r0, #1
10006868:	e7ee      	b.n	10006848 <usbd_control_xfer_cb+0x18>
1000686a:	2b7f      	cmp	r3, #127	; 0x7f
1000686c:	d806      	bhi.n	1000687c <usbd_control_xfer_cb+0x4c>
1000686e:	68a0      	ldr	r0, [r4, #8]
10006870:	2800      	cmp	r0, #0
10006872:	d037      	beq.n	100068e4 <usbd_control_xfer_cb+0xb4>
10006874:	002a      	movs	r2, r5
10006876:	492c      	ldr	r1, [pc, #176]	; (10006928 <usbd_control_xfer_cb+0xf8>)
10006878:	f7fe f894 	bl	100049a4 <__wrap___aeabi_memcpy>
1000687c:	68a3      	ldr	r3, [r4, #8]
1000687e:	89e2      	ldrh	r2, [r4, #14]
10006880:	1959      	adds	r1, r3, r5
10006882:	1952      	adds	r2, r2, r5
10006884:	88e3      	ldrh	r3, [r4, #6]
10006886:	b292      	uxth	r2, r2
10006888:	81e2      	strh	r2, [r4, #14]
1000688a:	60a1      	str	r1, [r4, #8]
1000688c:	4293      	cmp	r3, r2
1000688e:	d014      	beq.n	100068ba <usbd_control_xfer_cb+0x8a>
10006890:	2d3f      	cmp	r5, #63	; 0x3f
10006892:	d912      	bls.n	100068ba <usbd_control_xfer_cb+0x8a>
10006894:	89a5      	ldrh	r5, [r4, #12]
10006896:	1aa8      	subs	r0, r5, r2
10006898:	1c07      	adds	r7, r0, #0
1000689a:	b280      	uxth	r0, r0
1000689c:	2840      	cmp	r0, #64	; 0x40
1000689e:	d82f      	bhi.n	10006900 <usbd_control_xfer_cb+0xd0>
100068a0:	7823      	ldrb	r3, [r4, #0]
100068a2:	b2bf      	uxth	r7, r7
100068a4:	2b7f      	cmp	r3, #127	; 0x7f
100068a6:	d82d      	bhi.n	10006904 <usbd_control_xfer_cb+0xd4>
100068a8:	2100      	movs	r1, #0
100068aa:	42aa      	cmp	r2, r5
100068ac:	d035      	beq.n	1000691a <usbd_control_xfer_cb+0xea>
100068ae:	4a1e      	ldr	r2, [pc, #120]	; (10006928 <usbd_control_xfer_cb+0xf8>)
100068b0:	003b      	movs	r3, r7
100068b2:	0030      	movs	r0, r6
100068b4:	f7ff ff04 	bl	100066c0 <usbd_edpt_xfer>
100068b8:	e7c6      	b.n	10006848 <usbd_control_xfer_cb+0x18>
100068ba:	6923      	ldr	r3, [r4, #16]
100068bc:	2b00      	cmp	r3, #0
100068be:	d005      	beq.n	100068cc <usbd_control_xfer_cb+0x9c>
100068c0:	0022      	movs	r2, r4
100068c2:	2101      	movs	r1, #1
100068c4:	0030      	movs	r0, r6
100068c6:	4798      	blx	r3
100068c8:	2800      	cmp	r0, #0
100068ca:	d00f      	beq.n	100068ec <usbd_control_xfer_cb+0xbc>
100068cc:	227f      	movs	r2, #127	; 0x7f
100068ce:	2100      	movs	r1, #0
100068d0:	7823      	ldrb	r3, [r4, #0]
100068d2:	0030      	movs	r0, r6
100068d4:	429a      	cmp	r2, r3
100068d6:	4149      	adcs	r1, r1
100068d8:	2300      	movs	r3, #0
100068da:	2200      	movs	r2, #0
100068dc:	01c9      	lsls	r1, r1, #7
100068de:	f7ff feef 	bl	100066c0 <usbd_edpt_xfer>
100068e2:	e7b1      	b.n	10006848 <usbd_control_xfer_cb+0x18>
100068e4:	2000      	movs	r0, #0
100068e6:	e7af      	b.n	10006848 <usbd_control_xfer_cb+0x18>
100068e8:	2001      	movs	r0, #1
100068ea:	e7ad      	b.n	10006848 <usbd_control_xfer_cb+0x18>
100068ec:	2100      	movs	r1, #0
100068ee:	0030      	movs	r0, r6
100068f0:	f7fe fe0a 	bl	10005508 <dcd_edpt_stall>
100068f4:	0030      	movs	r0, r6
100068f6:	2180      	movs	r1, #128	; 0x80
100068f8:	f7fe fe06 	bl	10005508 <dcd_edpt_stall>
100068fc:	2001      	movs	r0, #1
100068fe:	e7a3      	b.n	10006848 <usbd_control_xfer_cb+0x18>
10006900:	2740      	movs	r7, #64	; 0x40
10006902:	e7cd      	b.n	100068a0 <usbd_control_xfer_cb+0x70>
10006904:	42aa      	cmp	r2, r5
10006906:	d007      	beq.n	10006918 <usbd_control_xfer_cb+0xe8>
10006908:	4c07      	ldr	r4, [pc, #28]	; (10006928 <usbd_control_xfer_cb+0xf8>)
1000690a:	003a      	movs	r2, r7
1000690c:	0020      	movs	r0, r4
1000690e:	f7fe f849 	bl	100049a4 <__wrap___aeabi_memcpy>
10006912:	2180      	movs	r1, #128	; 0x80
10006914:	0022      	movs	r2, r4
10006916:	e7cb      	b.n	100068b0 <usbd_control_xfer_cb+0x80>
10006918:	2180      	movs	r1, #128	; 0x80
1000691a:	2200      	movs	r2, #0
1000691c:	e7c8      	b.n	100068b0 <usbd_control_xfer_cb+0x80>
1000691e:	46c0      	nop			; (mov r8, r8)
10006920:	20002498 	.word	0x20002498
10006924:	1000531d 	.word	0x1000531d
10006928:	200024b4 	.word	0x200024b4

1000692c <tud_cdc_n_connected>:
1000692c:	b510      	push	{r4, lr}
1000692e:	0004      	movs	r4, r0
10006930:	f7ff f808 	bl	10005944 <tud_mounted>
10006934:	2800      	cmp	r0, #0
10006936:	d101      	bne.n	1000693c <tud_cdc_n_connected+0x10>
10006938:	2000      	movs	r0, #0
1000693a:	bd10      	pop	{r4, pc}
1000693c:	f7ff f80a 	bl	10005954 <tud_suspended>
10006940:	2800      	cmp	r0, #0
10006942:	d1f9      	bne.n	10006938 <tud_cdc_n_connected+0xc>
10006944:	20b6      	movs	r0, #182	; 0xb6
10006946:	0080      	lsls	r0, r0, #2
10006948:	4344      	muls	r4, r0
1000694a:	4803      	ldr	r0, [pc, #12]	; (10006958 <tud_cdc_n_connected+0x2c>)
1000694c:	1900      	adds	r0, r0, r4
1000694e:	7903      	ldrb	r3, [r0, #4]
10006950:	2001      	movs	r0, #1
10006952:	4018      	ands	r0, r3
10006954:	e7f1      	b.n	1000693a <tud_cdc_n_connected+0xe>
10006956:	46c0      	nop			; (mov r8, r8)
10006958:	200021c0 	.word	0x200021c0

1000695c <tud_cdc_n_available>:
1000695c:	23b6      	movs	r3, #182	; 0xb6
1000695e:	009b      	lsls	r3, r3, #2
10006960:	4358      	muls	r0, r3
10006962:	b510      	push	{r4, lr}
10006964:	4b02      	ldr	r3, [pc, #8]	; (10006970 <tud_cdc_n_available+0x14>)
10006966:	3010      	adds	r0, #16
10006968:	18c0      	adds	r0, r0, r3
1000696a:	f000 fb11 	bl	10006f90 <tu_fifo_count>
1000696e:	bd10      	pop	{r4, pc}
10006970:	200021c0 	.word	0x200021c0

10006974 <tud_cdc_n_read>:
10006974:	b5f0      	push	{r4, r5, r6, r7, lr}
10006976:	25b6      	movs	r5, #182	; 0xb6
10006978:	00ad      	lsls	r5, r5, #2
1000697a:	4345      	muls	r5, r0
1000697c:	002c      	movs	r4, r5
1000697e:	46c6      	mov	lr, r8
10006980:	4f17      	ldr	r7, [pc, #92]	; (100069e0 <tud_cdc_n_read+0x6c>)
10006982:	3410      	adds	r4, #16
10006984:	19e4      	adds	r4, r4, r7
10006986:	b500      	push	{lr}
10006988:	0020      	movs	r0, r4
1000698a:	b292      	uxth	r2, r2
1000698c:	f000 fb74 	bl	10007078 <tu_fifo_read_n>
10006990:	0006      	movs	r6, r0
10006992:	0020      	movs	r0, r4
10006994:	f000 fb14 	bl	10006fc0 <tu_fifo_remaining>
10006998:	283f      	cmp	r0, #63	; 0x3f
1000699a:	d803      	bhi.n	100069a4 <tud_cdc_n_read+0x30>
1000699c:	0030      	movs	r0, r6
1000699e:	bc80      	pop	{r7}
100069a0:	46b8      	mov	r8, r7
100069a2:	bdf0      	pop	{r4, r5, r6, r7, pc}
100069a4:	197b      	adds	r3, r7, r5
100069a6:	2000      	movs	r0, #0
100069a8:	78d9      	ldrb	r1, [r3, #3]
100069aa:	4698      	mov	r8, r3
100069ac:	f7ff fe30 	bl	10006610 <usbd_edpt_claim>
100069b0:	2800      	cmp	r0, #0
100069b2:	d0f3      	beq.n	1000699c <tud_cdc_n_read+0x28>
100069b4:	0020      	movs	r0, r4
100069b6:	f000 fb03 	bl	10006fc0 <tu_fifo_remaining>
100069ba:	283f      	cmp	r0, #63	; 0x3f
100069bc:	d90a      	bls.n	100069d4 <tud_cdc_n_read+0x60>
100069be:	2396      	movs	r3, #150	; 0x96
100069c0:	009b      	lsls	r3, r3, #2
100069c2:	18ea      	adds	r2, r5, r3
100069c4:	4643      	mov	r3, r8
100069c6:	19d2      	adds	r2, r2, r7
100069c8:	78d9      	ldrb	r1, [r3, #3]
100069ca:	2000      	movs	r0, #0
100069cc:	2340      	movs	r3, #64	; 0x40
100069ce:	f7ff fe77 	bl	100066c0 <usbd_edpt_xfer>
100069d2:	e7e3      	b.n	1000699c <tud_cdc_n_read+0x28>
100069d4:	4643      	mov	r3, r8
100069d6:	2000      	movs	r0, #0
100069d8:	78d9      	ldrb	r1, [r3, #3]
100069da:	f7ff fe4b 	bl	10006674 <usbd_edpt_release>
100069de:	e7dd      	b.n	1000699c <tud_cdc_n_read+0x28>
100069e0:	200021c0 	.word	0x200021c0

100069e4 <tud_cdc_n_write_flush>:
100069e4:	b5f8      	push	{r3, r4, r5, r6, r7, lr}
100069e6:	0004      	movs	r4, r0
100069e8:	f7fe ffac 	bl	10005944 <tud_mounted>
100069ec:	2800      	cmp	r0, #0
100069ee:	d101      	bne.n	100069f4 <tud_cdc_n_write_flush+0x10>
100069f0:	2000      	movs	r0, #0
100069f2:	bdf8      	pop	{r3, r4, r5, r6, r7, pc}
100069f4:	f7fe ffae 	bl	10005954 <tud_suspended>
100069f8:	2800      	cmp	r0, #0
100069fa:	d1f9      	bne.n	100069f0 <tud_cdc_n_write_flush+0xc>
100069fc:	20b6      	movs	r0, #182	; 0xb6
100069fe:	0080      	lsls	r0, r0, #2
10006a00:	4344      	muls	r4, r0
10006a02:	0025      	movs	r5, r4
10006a04:	4e14      	ldr	r6, [pc, #80]	; (10006a58 <tud_cdc_n_write_flush+0x74>)
10006a06:	352c      	adds	r5, #44	; 0x2c
10006a08:	19ad      	adds	r5, r5, r6
10006a0a:	0028      	movs	r0, r5
10006a0c:	f000 fac0 	bl	10006f90 <tu_fifo_count>
10006a10:	2800      	cmp	r0, #0
10006a12:	d0ed      	beq.n	100069f0 <tud_cdc_n_write_flush+0xc>
10006a14:	1937      	adds	r7, r6, r4
10006a16:	2000      	movs	r0, #0
10006a18:	78b9      	ldrb	r1, [r7, #2]
10006a1a:	f7ff fdf9 	bl	10006610 <usbd_edpt_claim>
10006a1e:	2800      	cmp	r0, #0
10006a20:	d0e6      	beq.n	100069f0 <tud_cdc_n_write_flush+0xc>
10006a22:	23a6      	movs	r3, #166	; 0xa6
10006a24:	009b      	lsls	r3, r3, #2
10006a26:	469c      	mov	ip, r3
10006a28:	4464      	add	r4, ip
10006a2a:	19a4      	adds	r4, r4, r6
10006a2c:	0021      	movs	r1, r4
10006a2e:	0028      	movs	r0, r5
10006a30:	2240      	movs	r2, #64	; 0x40
10006a32:	f000 fb21 	bl	10007078 <tu_fifo_read_n>
10006a36:	78b9      	ldrb	r1, [r7, #2]
10006a38:	1e05      	subs	r5, r0, #0
10006a3a:	d008      	beq.n	10006a4e <tud_cdc_n_write_flush+0x6a>
10006a3c:	0003      	movs	r3, r0
10006a3e:	0022      	movs	r2, r4
10006a40:	2000      	movs	r0, #0
10006a42:	f7ff fe3d 	bl	100066c0 <usbd_edpt_xfer>
10006a46:	2800      	cmp	r0, #0
10006a48:	d0d2      	beq.n	100069f0 <tud_cdc_n_write_flush+0xc>
10006a4a:	0028      	movs	r0, r5
10006a4c:	e7d1      	b.n	100069f2 <tud_cdc_n_write_flush+0xe>
10006a4e:	2000      	movs	r0, #0
10006a50:	f7ff fe10 	bl	10006674 <usbd_edpt_release>
10006a54:	e7cc      	b.n	100069f0 <tud_cdc_n_write_flush+0xc>
10006a56:	46c0      	nop			; (mov r8, r8)
10006a58:	200021c0 	.word	0x200021c0

10006a5c <tud_cdc_n_write>:
10006a5c:	b570      	push	{r4, r5, r6, lr}
10006a5e:	24b6      	movs	r4, #182	; 0xb6
10006a60:	00a4      	lsls	r4, r4, #2
10006a62:	4344      	muls	r4, r0
10006a64:	4b09      	ldr	r3, [pc, #36]	; (10006a8c <tud_cdc_n_write+0x30>)
10006a66:	342c      	adds	r4, #44	; 0x2c
10006a68:	18e4      	adds	r4, r4, r3
10006a6a:	0005      	movs	r5, r0
10006a6c:	b292      	uxth	r2, r2
10006a6e:	0020      	movs	r0, r4
10006a70:	f000 fbc0 	bl	100071f4 <tu_fifo_write_n>
10006a74:	0006      	movs	r6, r0
10006a76:	0020      	movs	r0, r4
10006a78:	f000 fa8a 	bl	10006f90 <tu_fifo_count>
10006a7c:	283f      	cmp	r0, #63	; 0x3f
10006a7e:	d801      	bhi.n	10006a84 <tud_cdc_n_write+0x28>
10006a80:	0030      	movs	r0, r6
10006a82:	bd70      	pop	{r4, r5, r6, pc}
10006a84:	0028      	movs	r0, r5
10006a86:	f7ff ffad 	bl	100069e4 <tud_cdc_n_write_flush>
10006a8a:	e7f9      	b.n	10006a80 <tud_cdc_n_write+0x24>
10006a8c:	200021c0 	.word	0x200021c0

10006a90 <tud_cdc_n_write_available>:
10006a90:	23b6      	movs	r3, #182	; 0xb6
10006a92:	009b      	lsls	r3, r3, #2
10006a94:	4358      	muls	r0, r3
10006a96:	b510      	push	{r4, lr}
10006a98:	4b02      	ldr	r3, [pc, #8]	; (10006aa4 <tud_cdc_n_write_available+0x14>)
10006a9a:	302c      	adds	r0, #44	; 0x2c
10006a9c:	18c0      	adds	r0, r0, r3
10006a9e:	f000 fa8f 	bl	10006fc0 <tu_fifo_remaining>
10006aa2:	bd10      	pop	{r4, pc}
10006aa4:	200021c0 	.word	0x200021c0

10006aa8 <cdcd_init>:
10006aa8:	22b6      	movs	r2, #182	; 0xb6
10006aaa:	b5f0      	push	{r4, r5, r6, r7, lr}
10006aac:	4c1b      	ldr	r4, [pc, #108]	; (10006b1c <cdcd_init+0x74>)
10006aae:	b083      	sub	sp, #12
10006ab0:	2100      	movs	r1, #0
10006ab2:	0020      	movs	r0, r4
10006ab4:	0092      	lsls	r2, r2, #2
10006ab6:	f7fd ff6f 	bl	10004998 <__wrap_memset>
10006aba:	23ff      	movs	r3, #255	; 0xff
10006abc:	7163      	strb	r3, [r4, #5]
10006abe:	4b18      	ldr	r3, [pc, #96]	; (10006b20 <cdcd_init+0x78>)
10006ac0:	2680      	movs	r6, #128	; 0x80
10006ac2:	2500      	movs	r5, #0
10006ac4:	80e3      	strh	r3, [r4, #6]
10006ac6:	2701      	movs	r7, #1
10006ac8:	2308      	movs	r3, #8
10006aca:	0021      	movs	r1, r4
10006acc:	0020      	movs	r0, r4
10006ace:	0076      	lsls	r6, r6, #1
10006ad0:	7323      	strb	r3, [r4, #12]
10006ad2:	0032      	movs	r2, r6
10006ad4:	8127      	strh	r7, [r4, #8]
10006ad6:	3148      	adds	r1, #72	; 0x48
10006ad8:	9500      	str	r5, [sp, #0]
10006ada:	3b07      	subs	r3, #7
10006adc:	3010      	adds	r0, #16
10006ade:	f000 fa1b 	bl	10006f18 <tu_fifo_config>
10006ae2:	0021      	movs	r1, r4
10006ae4:	0020      	movs	r0, r4
10006ae6:	3149      	adds	r1, #73	; 0x49
10006ae8:	0032      	movs	r2, r6
10006aea:	31ff      	adds	r1, #255	; 0xff
10006aec:	2301      	movs	r3, #1
10006aee:	9700      	str	r7, [sp, #0]
10006af0:	302c      	adds	r0, #44	; 0x2c
10006af2:	f000 fa11 	bl	10006f18 <tu_fifo_config>
10006af6:	2392      	movs	r3, #146	; 0x92
10006af8:	009b      	lsls	r3, r3, #2
10006afa:	18e6      	adds	r6, r4, r3
10006afc:	0030      	movs	r0, r6
10006afe:	f7fb fa95 	bl	1000202c <mutex_init>
10006b02:	2394      	movs	r3, #148	; 0x94
10006b04:	009b      	lsls	r3, r3, #2
10006b06:	62a6      	str	r6, [r4, #40]	; 0x28
10006b08:	18e6      	adds	r6, r4, r3
10006b0a:	0030      	movs	r0, r6
10006b0c:	6265      	str	r5, [r4, #36]	; 0x24
10006b0e:	f7fb fa8d 	bl	1000202c <mutex_init>
10006b12:	6426      	str	r6, [r4, #64]	; 0x40
10006b14:	6465      	str	r5, [r4, #68]	; 0x44
10006b16:	b003      	add	sp, #12
10006b18:	bdf0      	pop	{r4, r5, r6, r7, pc}
10006b1a:	46c0      	nop			; (mov r8, r8)
10006b1c:	200021c0 	.word	0x200021c0
10006b20:	ffffc200 	.word	0xffffc200

10006b24 <cdcd_reset>:
10006b24:	b510      	push	{r4, lr}
10006b26:	4c09      	ldr	r4, [pc, #36]	; (10006b4c <cdcd_reset+0x28>)
10006b28:	2205      	movs	r2, #5
10006b2a:	2100      	movs	r1, #0
10006b2c:	0020      	movs	r0, r4
10006b2e:	f7fd ff33 	bl	10004998 <__wrap_memset>
10006b32:	0020      	movs	r0, r4
10006b34:	342c      	adds	r4, #44	; 0x2c
10006b36:	3010      	adds	r0, #16
10006b38:	f000 fbdc 	bl	100072f4 <tu_fifo_clear>
10006b3c:	0020      	movs	r0, r4
10006b3e:	f000 fbd9 	bl	100072f4 <tu_fifo_clear>
10006b42:	2101      	movs	r1, #1
10006b44:	0020      	movs	r0, r4
10006b46:	f000 fbfb 	bl	10007340 <tu_fifo_set_overwritable>
10006b4a:	bd10      	pop	{r4, pc}
10006b4c:	200021c0 	.word	0x200021c0

10006b50 <cdcd_open>:
10006b50:	b5f0      	push	{r4, r5, r6, r7, lr}
10006b52:	794b      	ldrb	r3, [r1, #5]
10006b54:	0006      	movs	r6, r0
10006b56:	b083      	sub	sp, #12
10006b58:	2b02      	cmp	r3, #2
10006b5a:	d102      	bne.n	10006b62 <cdcd_open+0x12>
10006b5c:	798b      	ldrb	r3, [r1, #6]
10006b5e:	2b02      	cmp	r3, #2
10006b60:	d003      	beq.n	10006b6a <cdcd_open+0x1a>
10006b62:	2500      	movs	r5, #0
10006b64:	0028      	movs	r0, r5
10006b66:	b003      	add	sp, #12
10006b68:	bdf0      	pop	{r4, r5, r6, r7, pc}
10006b6a:	4f2f      	ldr	r7, [pc, #188]	; (10006c28 <cdcd_open+0xd8>)
10006b6c:	78bb      	ldrb	r3, [r7, #2]
10006b6e:	2b00      	cmp	r3, #0
10006b70:	d1f7      	bne.n	10006b62 <cdcd_open+0x12>
10006b72:	788b      	ldrb	r3, [r1, #2]
10006b74:	2509      	movs	r5, #9
10006b76:	703b      	strb	r3, [r7, #0]
10006b78:	780c      	ldrb	r4, [r1, #0]
10006b7a:	190c      	adds	r4, r1, r4
10006b7c:	7863      	ldrb	r3, [r4, #1]
10006b7e:	2b24      	cmp	r3, #36	; 0x24
10006b80:	d10b      	bne.n	10006b9a <cdcd_open+0x4a>
10006b82:	2a08      	cmp	r2, #8
10006b84:	d802      	bhi.n	10006b8c <cdcd_open+0x3c>
10006b86:	e00f      	b.n	10006ba8 <cdcd_open+0x58>
10006b88:	42aa      	cmp	r2, r5
10006b8a:	d30d      	bcc.n	10006ba8 <cdcd_open+0x58>
10006b8c:	7823      	ldrb	r3, [r4, #0]
10006b8e:	18e4      	adds	r4, r4, r3
10006b90:	18ed      	adds	r5, r5, r3
10006b92:	7863      	ldrb	r3, [r4, #1]
10006b94:	b2ad      	uxth	r5, r5
10006b96:	2b24      	cmp	r3, #36	; 0x24
10006b98:	d0f6      	beq.n	10006b88 <cdcd_open+0x38>
10006b9a:	2b05      	cmp	r3, #5
10006b9c:	d020      	beq.n	10006be0 <cdcd_open+0x90>
10006b9e:	2b04      	cmp	r3, #4
10006ba0:	d102      	bne.n	10006ba8 <cdcd_open+0x58>
10006ba2:	7963      	ldrb	r3, [r4, #5]
10006ba4:	2b0a      	cmp	r3, #10
10006ba6:	d02e      	beq.n	10006c06 <cdcd_open+0xb6>
10006ba8:	4c20      	ldr	r4, [pc, #128]	; (10006c2c <cdcd_open+0xdc>)
10006baa:	0020      	movs	r0, r4
10006bac:	f000 fa08 	bl	10006fc0 <tu_fifo_remaining>
10006bb0:	283f      	cmp	r0, #63	; 0x3f
10006bb2:	d9d7      	bls.n	10006b64 <cdcd_open+0x14>
10006bb4:	0026      	movs	r6, r4
10006bb6:	3e10      	subs	r6, #16
10006bb8:	2000      	movs	r0, #0
10006bba:	78f1      	ldrb	r1, [r6, #3]
10006bbc:	f7ff fd28 	bl	10006610 <usbd_edpt_claim>
10006bc0:	2800      	cmp	r0, #0
10006bc2:	d0cf      	beq.n	10006b64 <cdcd_open+0x14>
10006bc4:	0020      	movs	r0, r4
10006bc6:	f000 f9fb 	bl	10006fc0 <tu_fifo_remaining>
10006bca:	283f      	cmp	r0, #63	; 0x3f
10006bcc:	d916      	bls.n	10006bfc <cdcd_open+0xac>
10006bce:	2392      	movs	r3, #146	; 0x92
10006bd0:	009b      	lsls	r3, r3, #2
10006bd2:	18e2      	adds	r2, r4, r3
10006bd4:	78f1      	ldrb	r1, [r6, #3]
10006bd6:	2340      	movs	r3, #64	; 0x40
10006bd8:	2000      	movs	r0, #0
10006bda:	f7ff fd71 	bl	100066c0 <usbd_edpt_xfer>
10006bde:	e7c1      	b.n	10006b64 <cdcd_open+0x14>
10006be0:	0021      	movs	r1, r4
10006be2:	0030      	movs	r0, r6
10006be4:	f7ff fcfc 	bl	100065e0 <usbd_edpt_open>
10006be8:	2800      	cmp	r0, #0
10006bea:	d0ba      	beq.n	10006b62 <cdcd_open+0x12>
10006bec:	78a3      	ldrb	r3, [r4, #2]
10006bee:	707b      	strb	r3, [r7, #1]
10006bf0:	7823      	ldrb	r3, [r4, #0]
10006bf2:	18ed      	adds	r5, r5, r3
10006bf4:	18e4      	adds	r4, r4, r3
10006bf6:	7863      	ldrb	r3, [r4, #1]
10006bf8:	b2ad      	uxth	r5, r5
10006bfa:	e7d0      	b.n	10006b9e <cdcd_open+0x4e>
10006bfc:	78f1      	ldrb	r1, [r6, #3]
10006bfe:	2000      	movs	r0, #0
10006c00:	f7ff fd38 	bl	10006674 <usbd_edpt_release>
10006c04:	e7ae      	b.n	10006b64 <cdcd_open+0x14>
10006c06:	4b0a      	ldr	r3, [pc, #40]	; (10006c30 <cdcd_open+0xe0>)
10006c08:	7827      	ldrb	r7, [r4, #0]
10006c0a:	9301      	str	r3, [sp, #4]
10006c0c:	3301      	adds	r3, #1
10006c0e:	9300      	str	r3, [sp, #0]
10006c10:	2202      	movs	r2, #2
10006c12:	2302      	movs	r3, #2
10006c14:	0030      	movs	r0, r6
10006c16:	19e1      	adds	r1, r4, r7
10006c18:	f7ff fca2 	bl	10006560 <usbd_open_edpt_pair>
10006c1c:	2800      	cmp	r0, #0
10006c1e:	d0a0      	beq.n	10006b62 <cdcd_open+0x12>
10006c20:	350e      	adds	r5, #14
10006c22:	19ed      	adds	r5, r5, r7
10006c24:	b2ad      	uxth	r5, r5
10006c26:	e7bf      	b.n	10006ba8 <cdcd_open+0x58>
10006c28:	200021c0 	.word	0x200021c0
10006c2c:	200021d0 	.word	0x200021d0
10006c30:	200021c2 	.word	0x200021c2

10006c34 <cdcd_control_xfer_cb>:
10006c34:	b5f8      	push	{r3, r4, r5, r6, r7, lr}
10006c36:	2360      	movs	r3, #96	; 0x60
10006c38:	0014      	movs	r4, r2
10006c3a:	7812      	ldrb	r2, [r2, #0]
10006c3c:	0005      	movs	r5, r0
10006c3e:	4013      	ands	r3, r2
10006c40:	2000      	movs	r0, #0
10006c42:	2b20      	cmp	r3, #32
10006c44:	d112      	bne.n	10006c6c <cdcd_control_xfer_cb+0x38>
10006c46:	4a2f      	ldr	r2, [pc, #188]	; (10006d04 <cdcd_control_xfer_cb+0xd0>)
10006c48:	7963      	ldrb	r3, [r4, #5]
10006c4a:	7927      	ldrb	r7, [r4, #4]
10006c4c:	7816      	ldrb	r6, [r2, #0]
10006c4e:	021b      	lsls	r3, r3, #8
10006c50:	433b      	orrs	r3, r7
10006c52:	429e      	cmp	r6, r3
10006c54:	d10a      	bne.n	10006c6c <cdcd_control_xfer_cb+0x38>
10006c56:	7863      	ldrb	r3, [r4, #1]
10006c58:	2b22      	cmp	r3, #34	; 0x22
10006c5a:	d027      	beq.n	10006cac <cdcd_control_xfer_cb+0x78>
10006c5c:	d807      	bhi.n	10006c6e <cdcd_control_xfer_cb+0x3a>
10006c5e:	2b20      	cmp	r3, #32
10006c60:	d017      	beq.n	10006c92 <cdcd_control_xfer_cb+0x5e>
10006c62:	2b21      	cmp	r3, #33	; 0x21
10006c64:	d102      	bne.n	10006c6c <cdcd_control_xfer_cb+0x38>
10006c66:	2900      	cmp	r1, #0
10006c68:	d03d      	beq.n	10006ce6 <cdcd_control_xfer_cb+0xb2>
10006c6a:	2001      	movs	r0, #1
10006c6c:	bdf8      	pop	{r3, r4, r5, r6, r7, pc}
10006c6e:	2b23      	cmp	r3, #35	; 0x23
10006c70:	d1fc      	bne.n	10006c6c <cdcd_control_xfer_cb+0x38>
10006c72:	2900      	cmp	r1, #0
10006c74:	d03f      	beq.n	10006cf6 <cdcd_control_xfer_cb+0xc2>
10006c76:	2902      	cmp	r1, #2
10006c78:	d1f7      	bne.n	10006c6a <cdcd_control_xfer_cb+0x36>
10006c7a:	4b23      	ldr	r3, [pc, #140]	; (10006d08 <cdcd_control_xfer_cb+0xd4>)
10006c7c:	2b00      	cmp	r3, #0
10006c7e:	d0f4      	beq.n	10006c6a <cdcd_control_xfer_cb+0x36>
10006c80:	78e1      	ldrb	r1, [r4, #3]
10006c82:	78a3      	ldrb	r3, [r4, #2]
10006c84:	0209      	lsls	r1, r1, #8
10006c86:	2000      	movs	r0, #0
10006c88:	4319      	orrs	r1, r3
10006c8a:	e000      	b.n	10006c8e <cdcd_control_xfer_cb+0x5a>
10006c8c:	bf00      	nop
10006c8e:	2001      	movs	r0, #1
10006c90:	e7ec      	b.n	10006c6c <cdcd_control_xfer_cb+0x38>
10006c92:	2900      	cmp	r1, #0
10006c94:	d027      	beq.n	10006ce6 <cdcd_control_xfer_cb+0xb2>
10006c96:	2902      	cmp	r1, #2
10006c98:	d1e7      	bne.n	10006c6a <cdcd_control_xfer_cb+0x36>
10006c9a:	4b1c      	ldr	r3, [pc, #112]	; (10006d0c <cdcd_control_xfer_cb+0xd8>)
10006c9c:	2b00      	cmp	r3, #0
10006c9e:	d0e4      	beq.n	10006c6a <cdcd_control_xfer_cb+0x36>
10006ca0:	2000      	movs	r0, #0
10006ca2:	1d91      	adds	r1, r2, #6
10006ca4:	f7fd fff2 	bl	10004c8c <tud_cdc_line_coding_cb>
10006ca8:	2001      	movs	r0, #1
10006caa:	e7df      	b.n	10006c6c <cdcd_control_xfer_cb+0x38>
10006cac:	2900      	cmp	r1, #0
10006cae:	d022      	beq.n	10006cf6 <cdcd_control_xfer_cb+0xc2>
10006cb0:	2902      	cmp	r1, #2
10006cb2:	d1da      	bne.n	10006c6a <cdcd_control_xfer_cb+0x36>
10006cb4:	2501      	movs	r5, #1
10006cb6:	002e      	movs	r6, r5
10006cb8:	78a3      	ldrb	r3, [r4, #2]
10006cba:	78e4      	ldrb	r4, [r4, #3]
10006cbc:	3901      	subs	r1, #1
10006cbe:	0224      	lsls	r4, r4, #8
10006cc0:	431c      	orrs	r4, r3
10006cc2:	7114      	strb	r4, [r2, #4]
10006cc4:	4026      	ands	r6, r4
10006cc6:	322c      	adds	r2, #44	; 0x2c
10006cc8:	0010      	movs	r0, r2
10006cca:	4071      	eors	r1, r6
10006ccc:	f000 fb38 	bl	10007340 <tu_fifo_set_overwritable>
10006cd0:	4b0f      	ldr	r3, [pc, #60]	; (10006d10 <cdcd_control_xfer_cb+0xdc>)
10006cd2:	2b00      	cmp	r3, #0
10006cd4:	d0c9      	beq.n	10006c6a <cdcd_control_xfer_cb+0x36>
10006cd6:	0862      	lsrs	r2, r4, #1
10006cd8:	2000      	movs	r0, #0
10006cda:	0031      	movs	r1, r6
10006cdc:	402a      	ands	r2, r5
10006cde:	e000      	b.n	10006ce2 <cdcd_control_xfer_cb+0xae>
10006ce0:	bf00      	nop
10006ce2:	2001      	movs	r0, #1
10006ce4:	e7c2      	b.n	10006c6c <cdcd_control_xfer_cb+0x38>
10006ce6:	2307      	movs	r3, #7
10006ce8:	0021      	movs	r1, r4
10006cea:	0028      	movs	r0, r5
10006cec:	4a09      	ldr	r2, [pc, #36]	; (10006d14 <cdcd_control_xfer_cb+0xe0>)
10006cee:	f7ff fd23 	bl	10006738 <tud_control_xfer>
10006cf2:	2001      	movs	r0, #1
10006cf4:	e7ba      	b.n	10006c6c <cdcd_control_xfer_cb+0x38>
10006cf6:	0021      	movs	r1, r4
10006cf8:	0028      	movs	r0, r5
10006cfa:	f7ff fd05 	bl	10006708 <tud_control_status>
10006cfe:	2001      	movs	r0, #1
10006d00:	e7b4      	b.n	10006c6c <cdcd_control_xfer_cb+0x38>
10006d02:	46c0      	nop			; (mov r8, r8)
10006d04:	200021c0 	.word	0x200021c0
10006d08:	00000000 	.word	0x00000000
10006d0c:	10004c8d 	.word	0x10004c8d
10006d10:	00000000 	.word	0x00000000
10006d14:	200021c6 	.word	0x200021c6

10006d18 <cdcd_xfer_cb>:
10006d18:	b5f8      	push	{r3, r4, r5, r6, r7, lr}
10006d1a:	4657      	mov	r7, sl
10006d1c:	464e      	mov	r6, r9
10006d1e:	4645      	mov	r5, r8
10006d20:	46de      	mov	lr, fp
10006d22:	b5e0      	push	{r5, r6, r7, lr}
10006d24:	4f49      	ldr	r7, [pc, #292]	; (10006e4c <cdcd_xfer_cb+0x134>)
10006d26:	4680      	mov	r8, r0
10006d28:	78fa      	ldrb	r2, [r7, #3]
10006d2a:	000c      	movs	r4, r1
10006d2c:	001e      	movs	r6, r3
10006d2e:	428a      	cmp	r2, r1
10006d30:	d164      	bne.n	10006dfc <cdcd_xfer_cb+0xe4>
10006d32:	b29a      	uxth	r2, r3
10006d34:	2396      	movs	r3, #150	; 0x96
10006d36:	009b      	lsls	r3, r3, #2
10006d38:	18fd      	adds	r5, r7, r3
10006d3a:	2310      	movs	r3, #16
10006d3c:	469b      	mov	fp, r3
10006d3e:	44bb      	add	fp, r7
10006d40:	0029      	movs	r1, r5
10006d42:	4658      	mov	r0, fp
10006d44:	f000 fa56 	bl	100071f4 <tu_fifo_write_n>
10006d48:	4b41      	ldr	r3, [pc, #260]	; (10006e50 <cdcd_xfer_cb+0x138>)
10006d4a:	46d9      	mov	r9, fp
10006d4c:	2b00      	cmp	r3, #0
10006d4e:	d018      	beq.n	10006d82 <cdcd_xfer_cb+0x6a>
10006d50:	797b      	ldrb	r3, [r7, #5]
10006d52:	46d9      	mov	r9, fp
10006d54:	2bff      	cmp	r3, #255	; 0xff
10006d56:	d014      	beq.n	10006d82 <cdcd_xfer_cb+0x6a>
10006d58:	2e00      	cmp	r6, #0
10006d5a:	d012      	beq.n	10006d82 <cdcd_xfer_cb+0x6a>
10006d5c:	19aa      	adds	r2, r5, r6
10006d5e:	4692      	mov	sl, r2
10006d60:	e003      	b.n	10006d6a <cdcd_xfer_cb+0x52>
10006d62:	3501      	adds	r5, #1
10006d64:	4555      	cmp	r5, sl
10006d66:	d00c      	beq.n	10006d82 <cdcd_xfer_cb+0x6a>
10006d68:	797b      	ldrb	r3, [r7, #5]
10006d6a:	782a      	ldrb	r2, [r5, #0]
10006d6c:	429a      	cmp	r2, r3
10006d6e:	d1f8      	bne.n	10006d62 <cdcd_xfer_cb+0x4a>
10006d70:	4648      	mov	r0, r9
10006d72:	f000 f91d 	bl	10006fb0 <tu_fifo_empty>
10006d76:	2800      	cmp	r0, #0
10006d78:	d1f3      	bne.n	10006d62 <cdcd_xfer_cb+0x4a>
10006d7a:	7979      	ldrb	r1, [r7, #5]
10006d7c:	e000      	b.n	10006d80 <cdcd_xfer_cb+0x68>
10006d7e:	bf00      	nop
10006d80:	e7ef      	b.n	10006d62 <cdcd_xfer_cb+0x4a>
10006d82:	4b34      	ldr	r3, [pc, #208]	; (10006e54 <cdcd_xfer_cb+0x13c>)
10006d84:	2b00      	cmp	r3, #0
10006d86:	d004      	beq.n	10006d92 <cdcd_xfer_cb+0x7a>
10006d88:	4648      	mov	r0, r9
10006d8a:	f000 f911 	bl	10006fb0 <tu_fifo_empty>
10006d8e:	2800      	cmp	r0, #0
10006d90:	d052      	beq.n	10006e38 <cdcd_xfer_cb+0x120>
10006d92:	4648      	mov	r0, r9
10006d94:	f000 f914 	bl	10006fc0 <tu_fifo_remaining>
10006d98:	283f      	cmp	r0, #63	; 0x3f
10006d9a:	d834      	bhi.n	10006e06 <cdcd_xfer_cb+0xee>
10006d9c:	464a      	mov	r2, r9
10006d9e:	3a10      	subs	r2, #16
10006da0:	7893      	ldrb	r3, [r2, #2]
10006da2:	42a3      	cmp	r3, r4
10006da4:	d007      	beq.n	10006db6 <cdcd_xfer_cb+0x9e>
10006da6:	2401      	movs	r4, #1
10006da8:	0020      	movs	r0, r4
10006daa:	bcf0      	pop	{r4, r5, r6, r7}
10006dac:	46bb      	mov	fp, r7
10006dae:	46b2      	mov	sl, r6
10006db0:	46a9      	mov	r9, r5
10006db2:	46a0      	mov	r8, r4
10006db4:	bdf8      	pop	{r3, r4, r5, r6, r7, pc}
10006db6:	4b28      	ldr	r3, [pc, #160]	; (10006e58 <cdcd_xfer_cb+0x140>)
10006db8:	2b00      	cmp	r3, #0
10006dba:	d002      	beq.n	10006dc2 <cdcd_xfer_cb+0xaa>
10006dbc:	2000      	movs	r0, #0
10006dbe:	e000      	b.n	10006dc2 <cdcd_xfer_cb+0xaa>
10006dc0:	bf00      	nop
10006dc2:	2000      	movs	r0, #0
10006dc4:	f7ff fe0e 	bl	100069e4 <tud_cdc_n_write_flush>
10006dc8:	2800      	cmp	r0, #0
10006dca:	d1ec      	bne.n	10006da6 <cdcd_xfer_cb+0x8e>
10006dcc:	4d23      	ldr	r5, [pc, #140]	; (10006e5c <cdcd_xfer_cb+0x144>)
10006dce:	0028      	movs	r0, r5
10006dd0:	f000 f8de 	bl	10006f90 <tu_fifo_count>
10006dd4:	2800      	cmp	r0, #0
10006dd6:	d1e6      	bne.n	10006da6 <cdcd_xfer_cb+0x8e>
10006dd8:	2e00      	cmp	r6, #0
10006dda:	d0e4      	beq.n	10006da6 <cdcd_xfer_cb+0x8e>
10006ddc:	06b3      	lsls	r3, r6, #26
10006dde:	d1e2      	bne.n	10006da6 <cdcd_xfer_cb+0x8e>
10006de0:	3d2c      	subs	r5, #44	; 0x2c
10006de2:	4640      	mov	r0, r8
10006de4:	78a9      	ldrb	r1, [r5, #2]
10006de6:	f7ff fc13 	bl	10006610 <usbd_edpt_claim>
10006dea:	1e04      	subs	r4, r0, #0
10006dec:	d0db      	beq.n	10006da6 <cdcd_xfer_cb+0x8e>
10006dee:	2300      	movs	r3, #0
10006df0:	2200      	movs	r2, #0
10006df2:	4640      	mov	r0, r8
10006df4:	78a9      	ldrb	r1, [r5, #2]
10006df6:	f7ff fc63 	bl	100066c0 <usbd_edpt_xfer>
10006dfa:	e7d5      	b.n	10006da8 <cdcd_xfer_cb+0x90>
10006dfc:	78bb      	ldrb	r3, [r7, #2]
10006dfe:	428b      	cmp	r3, r1
10006e00:	d0d9      	beq.n	10006db6 <cdcd_xfer_cb+0x9e>
10006e02:	2400      	movs	r4, #0
10006e04:	e7d0      	b.n	10006da8 <cdcd_xfer_cb+0x90>
10006e06:	464d      	mov	r5, r9
10006e08:	3d10      	subs	r5, #16
10006e0a:	2000      	movs	r0, #0
10006e0c:	78e9      	ldrb	r1, [r5, #3]
10006e0e:	f7ff fbff 	bl	10006610 <usbd_edpt_claim>
10006e12:	2800      	cmp	r0, #0
10006e14:	d101      	bne.n	10006e1a <cdcd_xfer_cb+0x102>
10006e16:	78ab      	ldrb	r3, [r5, #2]
10006e18:	e7c3      	b.n	10006da2 <cdcd_xfer_cb+0x8a>
10006e1a:	4648      	mov	r0, r9
10006e1c:	f000 f8d0 	bl	10006fc0 <tu_fifo_remaining>
10006e20:	283f      	cmp	r0, #63	; 0x3f
10006e22:	d90c      	bls.n	10006e3e <cdcd_xfer_cb+0x126>
10006e24:	2292      	movs	r2, #146	; 0x92
10006e26:	0092      	lsls	r2, r2, #2
10006e28:	2340      	movs	r3, #64	; 0x40
10006e2a:	2000      	movs	r0, #0
10006e2c:	78e9      	ldrb	r1, [r5, #3]
10006e2e:	444a      	add	r2, r9
10006e30:	f7ff fc46 	bl	100066c0 <usbd_edpt_xfer>
10006e34:	78ab      	ldrb	r3, [r5, #2]
10006e36:	e7b4      	b.n	10006da2 <cdcd_xfer_cb+0x8a>
10006e38:	e000      	b.n	10006e3c <cdcd_xfer_cb+0x124>
10006e3a:	bf00      	nop
10006e3c:	e7a9      	b.n	10006d92 <cdcd_xfer_cb+0x7a>
10006e3e:	2000      	movs	r0, #0
10006e40:	78e9      	ldrb	r1, [r5, #3]
10006e42:	f7ff fc17 	bl	10006674 <usbd_edpt_release>
10006e46:	78ab      	ldrb	r3, [r5, #2]
10006e48:	e7ab      	b.n	10006da2 <cdcd_xfer_cb+0x8a>
10006e4a:	46c0      	nop			; (mov r8, r8)
10006e4c:	200021c0 	.word	0x200021c0
	...
10006e5c:	200021ec 	.word	0x200021ec

10006e60 <tusb_init>:
10006e60:	b510      	push	{r4, lr}
10006e62:	2000      	movs	r0, #0
10006e64:	f7fe fd84 	bl	10005970 <tud_init>
10006e68:	bd10      	pop	{r4, pc}
10006e6a:	46c0      	nop			; (mov r8, r8)

10006e6c <tusb_inited>:
10006e6c:	b510      	push	{r4, lr}
10006e6e:	f7fe fd79 	bl	10005964 <tud_inited>
10006e72:	bd10      	pop	{r4, pc}

10006e74 <tu_edpt_validate>:
10006e74:	2207      	movs	r2, #7
10006e76:	b510      	push	{r4, lr}
10006e78:	7944      	ldrb	r4, [r0, #5]
10006e7a:	7903      	ldrb	r3, [r0, #4]
10006e7c:	4022      	ands	r2, r4
10006e7e:	0212      	lsls	r2, r2, #8
10006e80:	431a      	orrs	r2, r3
10006e82:	78c3      	ldrb	r3, [r0, #3]
10006e84:	079b      	lsls	r3, r3, #30
10006e86:	0f9b      	lsrs	r3, r3, #30
10006e88:	2b02      	cmp	r3, #2
10006e8a:	d005      	beq.n	10006e98 <tu_edpt_validate+0x24>
10006e8c:	2b03      	cmp	r3, #3
10006e8e:	d015      	beq.n	10006ebc <tu_edpt_validate+0x48>
10006e90:	2000      	movs	r0, #0
10006e92:	2b01      	cmp	r3, #1
10006e94:	d008      	beq.n	10006ea8 <tu_edpt_validate+0x34>
10006e96:	bd10      	pop	{r4, pc}
10006e98:	2902      	cmp	r1, #2
10006e9a:	d01c      	beq.n	10006ed6 <tu_edpt_validate+0x62>
10006e9c:	2000      	movs	r0, #0
10006e9e:	2340      	movs	r3, #64	; 0x40
10006ea0:	4293      	cmp	r3, r2
10006ea2:	4140      	adcs	r0, r0
10006ea4:	b2c0      	uxtb	r0, r0
10006ea6:	e7f6      	b.n	10006e96 <tu_edpt_validate+0x22>
10006ea8:	3902      	subs	r1, #2
10006eaa:	424b      	negs	r3, r1
10006eac:	4159      	adcs	r1, r3
10006eae:	4b0d      	ldr	r3, [pc, #52]	; (10006ee4 <tu_edpt_validate+0x70>)
10006eb0:	469c      	mov	ip, r3
10006eb2:	4461      	add	r1, ip
10006eb4:	4291      	cmp	r1, r2
10006eb6:	4140      	adcs	r0, r0
10006eb8:	b2c0      	uxtb	r0, r0
10006eba:	e7ec      	b.n	10006e96 <tu_edpt_validate+0x22>
10006ebc:	3902      	subs	r1, #2
10006ebe:	424b      	negs	r3, r1
10006ec0:	4159      	adcs	r1, r3
10006ec2:	23f0      	movs	r3, #240	; 0xf0
10006ec4:	2000      	movs	r0, #0
10006ec6:	4249      	negs	r1, r1
10006ec8:	009b      	lsls	r3, r3, #2
10006eca:	4019      	ands	r1, r3
10006ecc:	3140      	adds	r1, #64	; 0x40
10006ece:	4291      	cmp	r1, r2
10006ed0:	4140      	adcs	r0, r0
10006ed2:	b2c0      	uxtb	r0, r0
10006ed4:	e7df      	b.n	10006e96 <tu_edpt_validate+0x22>
10006ed6:	4b04      	ldr	r3, [pc, #16]	; (10006ee8 <tu_edpt_validate+0x74>)
10006ed8:	469c      	mov	ip, r3
10006eda:	4462      	add	r2, ip
10006edc:	4253      	negs	r3, r2
10006ede:	415a      	adcs	r2, r3
10006ee0:	b2d0      	uxtb	r0, r2
10006ee2:	e7d8      	b.n	10006e96 <tu_edpt_validate+0x22>
10006ee4:	000003ff 	.word	0x000003ff
10006ee8:	fffffe00 	.word	0xfffffe00

10006eec <tu_edpt_bind_driver>:
10006eec:	b5f0      	push	{r4, r5, r6, r7, lr}
10006eee:	2a00      	cmp	r2, #0
10006ef0:	d011      	beq.n	10006f16 <tu_edpt_bind_driver+0x2a>
10006ef2:	2400      	movs	r4, #0
10006ef4:	277f      	movs	r7, #127	; 0x7f
10006ef6:	784d      	ldrb	r5, [r1, #1]
10006ef8:	2d05      	cmp	r5, #5
10006efa:	d106      	bne.n	10006f0a <tu_edpt_bind_driver+0x1e>
10006efc:	003d      	movs	r5, r7
10006efe:	788e      	ldrb	r6, [r1, #2]
10006f00:	4035      	ands	r5, r6
10006f02:	006d      	lsls	r5, r5, #1
10006f04:	09f6      	lsrs	r6, r6, #7
10006f06:	1945      	adds	r5, r0, r5
10006f08:	55ab      	strb	r3, [r5, r6]
10006f0a:	780d      	ldrb	r5, [r1, #0]
10006f0c:	1964      	adds	r4, r4, r5
10006f0e:	b2a4      	uxth	r4, r4
10006f10:	1949      	adds	r1, r1, r5
10006f12:	42a2      	cmp	r2, r4
10006f14:	d8ef      	bhi.n	10006ef6 <tu_edpt_bind_driver+0xa>
10006f16:	bdf0      	pop	{r4, r5, r6, r7, pc}

10006f18 <tu_fifo_config>:
10006f18:	b5f0      	push	{r4, r5, r6, r7, lr}
10006f1a:	46c6      	mov	lr, r8
10006f1c:	b500      	push	{lr}
10006f1e:	0015      	movs	r5, r2
10006f20:	aa06      	add	r2, sp, #24
10006f22:	001e      	movs	r6, r3
10006f24:	7813      	ldrb	r3, [r2, #0]
10006f26:	2280      	movs	r2, #128	; 0x80
10006f28:	0004      	movs	r4, r0
10006f2a:	000f      	movs	r7, r1
10006f2c:	4698      	mov	r8, r3
10006f2e:	0212      	lsls	r2, r2, #8
10006f30:	4295      	cmp	r5, r2
10006f32:	d82a      	bhi.n	10006f8a <tu_fifo_config+0x72>
10006f34:	6940      	ldr	r0, [r0, #20]
10006f36:	2800      	cmp	r0, #0
10006f38:	d003      	beq.n	10006f42 <tu_fifo_config+0x2a>
10006f3a:	2101      	movs	r1, #1
10006f3c:	4249      	negs	r1, r1
10006f3e:	f000 fc8f 	bl	10007860 <__mutex_enter_timeout_ms_veneer>
10006f42:	69a0      	ldr	r0, [r4, #24]
10006f44:	2800      	cmp	r0, #0
10006f46:	d003      	beq.n	10006f50 <tu_fifo_config+0x38>
10006f48:	2101      	movs	r1, #1
10006f4a:	4249      	negs	r1, r1
10006f4c:	f000 fc88 	bl	10007860 <__mutex_enter_timeout_ms_veneer>
10006f50:	4643      	mov	r3, r8
10006f52:	80a5      	strh	r5, [r4, #4]
10006f54:	006d      	lsls	r5, r5, #1
10006f56:	b2ad      	uxth	r5, r5
10006f58:	7223      	strb	r3, [r4, #8]
10006f5a:	1e6b      	subs	r3, r5, #1
10006f5c:	81a3      	strh	r3, [r4, #12]
10006f5e:	2300      	movs	r3, #0
10006f60:	6960      	ldr	r0, [r4, #20]
10006f62:	426d      	negs	r5, r5
10006f64:	81e3      	strh	r3, [r4, #14]
10006f66:	6027      	str	r7, [r4, #0]
10006f68:	80e6      	strh	r6, [r4, #6]
10006f6a:	8165      	strh	r5, [r4, #10]
10006f6c:	8223      	strh	r3, [r4, #16]
10006f6e:	2800      	cmp	r0, #0
10006f70:	d001      	beq.n	10006f76 <tu_fifo_config+0x5e>
10006f72:	f000 fc55 	bl	10007820 <__mutex_exit_veneer>
10006f76:	69a0      	ldr	r0, [r4, #24]
10006f78:	2401      	movs	r4, #1
10006f7a:	2800      	cmp	r0, #0
10006f7c:	d001      	beq.n	10006f82 <tu_fifo_config+0x6a>
10006f7e:	f000 fc4f 	bl	10007820 <__mutex_exit_veneer>
10006f82:	0020      	movs	r0, r4
10006f84:	bc80      	pop	{r7}
10006f86:	46b8      	mov	r8, r7
10006f88:	bdf0      	pop	{r4, r5, r6, r7, pc}
10006f8a:	2400      	movs	r4, #0
10006f8c:	e7f9      	b.n	10006f82 <tu_fifo_config+0x6a>
10006f8e:	46c0      	nop			; (mov r8, r8)

10006f90 <tu_fifo_count>:
10006f90:	89c1      	ldrh	r1, [r0, #14]
10006f92:	8a02      	ldrh	r2, [r0, #16]
10006f94:	1a8b      	subs	r3, r1, r2
10006f96:	b29b      	uxth	r3, r3
10006f98:	4291      	cmp	r1, r2
10006f9a:	d202      	bcs.n	10006fa2 <tu_fifo_count+0x12>
10006f9c:	8942      	ldrh	r2, [r0, #10]
10006f9e:	1a9b      	subs	r3, r3, r2
10006fa0:	b29b      	uxth	r3, r3
10006fa2:	8882      	ldrh	r2, [r0, #4]
10006fa4:	1c10      	adds	r0, r2, #0
10006fa6:	429a      	cmp	r2, r3
10006fa8:	d900      	bls.n	10006fac <tu_fifo_count+0x1c>
10006faa:	1c18      	adds	r0, r3, #0
10006fac:	b280      	uxth	r0, r0
10006fae:	4770      	bx	lr

10006fb0 <tu_fifo_empty>:
10006fb0:	0003      	movs	r3, r0
10006fb2:	89c0      	ldrh	r0, [r0, #14]
10006fb4:	8a1b      	ldrh	r3, [r3, #16]
10006fb6:	1ac0      	subs	r0, r0, r3
10006fb8:	4243      	negs	r3, r0
10006fba:	4158      	adcs	r0, r3
10006fbc:	b2c0      	uxtb	r0, r0
10006fbe:	4770      	bx	lr

10006fc0 <tu_fifo_remaining>:
10006fc0:	b510      	push	{r4, lr}
10006fc2:	89c4      	ldrh	r4, [r0, #14]
10006fc4:	8a01      	ldrh	r1, [r0, #16]
10006fc6:	8883      	ldrh	r3, [r0, #4]
10006fc8:	1a62      	subs	r2, r4, r1
10006fca:	b292      	uxth	r2, r2
10006fcc:	428c      	cmp	r4, r1
10006fce:	d202      	bcs.n	10006fd6 <tu_fifo_remaining+0x16>
10006fd0:	8940      	ldrh	r0, [r0, #10]
10006fd2:	1a12      	subs	r2, r2, r0
10006fd4:	b292      	uxth	r2, r2
10006fd6:	1a98      	subs	r0, r3, r2
10006fd8:	b280      	uxth	r0, r0
10006fda:	bd10      	pop	{r4, pc}

10006fdc <tu_fifo_read>:
10006fdc:	b570      	push	{r4, r5, r6, lr}
10006fde:	0004      	movs	r4, r0
10006fe0:	6980      	ldr	r0, [r0, #24]
10006fe2:	000e      	movs	r6, r1
10006fe4:	2800      	cmp	r0, #0
10006fe6:	d003      	beq.n	10006ff0 <tu_fifo_read+0x14>
10006fe8:	2101      	movs	r1, #1
10006fea:	4249      	negs	r1, r1
10006fec:	f000 fc38 	bl	10007860 <__mutex_enter_timeout_ms_veneer>
10006ff0:	89e1      	ldrh	r1, [r4, #14]
10006ff2:	8a22      	ldrh	r2, [r4, #16]
10006ff4:	b288      	uxth	r0, r1
10006ff6:	1a8d      	subs	r5, r1, r2
10006ff8:	b293      	uxth	r3, r2
10006ffa:	b2ad      	uxth	r5, r5
10006ffc:	4291      	cmp	r1, r2
10006ffe:	d202      	bcs.n	10007006 <tu_fifo_read+0x2a>
10007000:	8962      	ldrh	r2, [r4, #10]
10007002:	1aad      	subs	r5, r5, r2
10007004:	b2ad      	uxth	r5, r5
10007006:	88a2      	ldrh	r2, [r4, #4]
10007008:	42aa      	cmp	r2, r5
1000700a:	d207      	bcs.n	1000701c <tu_fifo_read+0x40>
1000700c:	4290      	cmp	r0, r2
1000700e:	d225      	bcs.n	1000705c <tu_fifo_read+0x80>
10007010:	8961      	ldrh	r1, [r4, #10]
10007012:	1851      	adds	r1, r2, r1
10007014:	1a41      	subs	r1, r0, r1
10007016:	b289      	uxth	r1, r1
10007018:	0015      	movs	r5, r2
1000701a:	8221      	strh	r1, [r4, #16]
1000701c:	2d00      	cmp	r5, #0
1000701e:	d102      	bne.n	10007026 <tu_fifo_read+0x4a>
10007020:	e022      	b.n	10007068 <tu_fifo_read+0x8c>
10007022:	1a9b      	subs	r3, r3, r2
10007024:	b29b      	uxth	r3, r3
10007026:	429a      	cmp	r2, r3
10007028:	d9fb      	bls.n	10007022 <tu_fifo_read+0x46>
1000702a:	88e2      	ldrh	r2, [r4, #6]
1000702c:	6821      	ldr	r1, [r4, #0]
1000702e:	4353      	muls	r3, r2
10007030:	0030      	movs	r0, r6
10007032:	18c9      	adds	r1, r1, r3
10007034:	f7fd fcb6 	bl	100049a4 <__wrap___aeabi_memcpy>
10007038:	8a22      	ldrh	r2, [r4, #16]
1000703a:	2501      	movs	r5, #1
1000703c:	1c53      	adds	r3, r2, #1
1000703e:	b29b      	uxth	r3, r3
10007040:	429a      	cmp	r2, r3
10007042:	d914      	bls.n	1000706e <tu_fifo_read+0x92>
10007044:	2300      	movs	r3, #0
10007046:	8962      	ldrh	r2, [r4, #10]
10007048:	189b      	adds	r3, r3, r2
1000704a:	b29b      	uxth	r3, r3
1000704c:	69a0      	ldr	r0, [r4, #24]
1000704e:	8223      	strh	r3, [r4, #16]
10007050:	2800      	cmp	r0, #0
10007052:	d001      	beq.n	10007058 <tu_fifo_read+0x7c>
10007054:	f000 fbe4 	bl	10007820 <__mutex_exit_veneer>
10007058:	0028      	movs	r0, r5
1000705a:	bd70      	pop	{r4, r5, r6, pc}
1000705c:	1a81      	subs	r1, r0, r2
1000705e:	89a5      	ldrh	r5, [r4, #12]
10007060:	b289      	uxth	r1, r1
10007062:	428d      	cmp	r5, r1
10007064:	d2d8      	bcs.n	10007018 <tu_fifo_read+0x3c>
10007066:	e7d3      	b.n	10007010 <tu_fifo_read+0x34>
10007068:	2500      	movs	r5, #0
1000706a:	8a23      	ldrh	r3, [r4, #16]
1000706c:	b29b      	uxth	r3, r3
1000706e:	89a2      	ldrh	r2, [r4, #12]
10007070:	429a      	cmp	r2, r3
10007072:	d2eb      	bcs.n	1000704c <tu_fifo_read+0x70>
10007074:	e7e7      	b.n	10007046 <tu_fifo_read+0x6a>
10007076:	46c0      	nop			; (mov r8, r8)

10007078 <tu_fifo_read_n>:
10007078:	b5f0      	push	{r4, r5, r6, r7, lr}
1000707a:	464f      	mov	r7, r9
1000707c:	4646      	mov	r6, r8
1000707e:	46d6      	mov	lr, sl
10007080:	0005      	movs	r5, r0
10007082:	6980      	ldr	r0, [r0, #24]
10007084:	4688      	mov	r8, r1
10007086:	4691      	mov	r9, r2
10007088:	b5c0      	push	{r6, r7, lr}
1000708a:	2800      	cmp	r0, #0
1000708c:	d003      	beq.n	10007096 <tu_fifo_read_n+0x1e>
1000708e:	2101      	movs	r1, #1
10007090:	4249      	negs	r1, r1
10007092:	f000 fbe5 	bl	10007860 <__mutex_enter_timeout_ms_veneer>
10007096:	89ea      	ldrh	r2, [r5, #14]
10007098:	8a2b      	ldrh	r3, [r5, #16]
1000709a:	b291      	uxth	r1, r2
1000709c:	1ad6      	subs	r6, r2, r3
1000709e:	b29c      	uxth	r4, r3
100070a0:	b2b6      	uxth	r6, r6
100070a2:	429a      	cmp	r2, r3
100070a4:	d202      	bcs.n	100070ac <tu_fifo_read_n+0x34>
100070a6:	896b      	ldrh	r3, [r5, #10]
100070a8:	1af6      	subs	r6, r6, r3
100070aa:	b2b6      	uxth	r6, r6
100070ac:	88af      	ldrh	r7, [r5, #4]
100070ae:	42b7      	cmp	r7, r6
100070b0:	d209      	bcs.n	100070c6 <tu_fifo_read_n+0x4e>
100070b2:	42b9      	cmp	r1, r7
100070b4:	d254      	bcs.n	10007160 <tu_fifo_read_n+0xe8>
100070b6:	896b      	ldrh	r3, [r5, #10]
100070b8:	18fb      	adds	r3, r7, r3
100070ba:	1acb      	subs	r3, r1, r3
100070bc:	b29b      	uxth	r3, r3
100070be:	003e      	movs	r6, r7
100070c0:	822b      	strh	r3, [r5, #16]
100070c2:	8a2c      	ldrh	r4, [r5, #16]
100070c4:	b2a4      	uxth	r4, r4
100070c6:	2e00      	cmp	r6, #0
100070c8:	d050      	beq.n	1000716c <tu_fifo_read_n+0xf4>
100070ca:	464b      	mov	r3, r9
100070cc:	45b1      	cmp	r9, r6
100070ce:	d845      	bhi.n	1000715c <tu_fifo_read_n+0xe4>
100070d0:	b29e      	uxth	r6, r3
100070d2:	42a7      	cmp	r7, r4
100070d4:	d803      	bhi.n	100070de <tu_fifo_read_n+0x66>
100070d6:	1be4      	subs	r4, r4, r7
100070d8:	b2a4      	uxth	r4, r4
100070da:	42a7      	cmp	r7, r4
100070dc:	d9fb      	bls.n	100070d6 <tu_fifo_read_n+0x5e>
100070de:	88eb      	ldrh	r3, [r5, #6]
100070e0:	1b38      	subs	r0, r7, r4
100070e2:	0019      	movs	r1, r3
100070e4:	4699      	mov	r9, r3
100070e6:	682b      	ldr	r3, [r5, #0]
100070e8:	4361      	muls	r1, r4
100070ea:	469c      	mov	ip, r3
100070ec:	b280      	uxth	r0, r0
100070ee:	4461      	add	r1, ip
100070f0:	4286      	cmp	r6, r0
100070f2:	d925      	bls.n	10007140 <tu_fifo_read_n+0xc8>
100070f4:	464b      	mov	r3, r9
100070f6:	4358      	muls	r0, r3
100070f8:	b283      	uxth	r3, r0
100070fa:	001a      	movs	r2, r3
100070fc:	4640      	mov	r0, r8
100070fe:	469a      	mov	sl, r3
10007100:	f7fd fc50 	bl	100049a4 <__wrap___aeabi_memcpy>
10007104:	464b      	mov	r3, r9
10007106:	4640      	mov	r0, r8
10007108:	1bf7      	subs	r7, r6, r7
1000710a:	19e4      	adds	r4, r4, r7
1000710c:	435c      	muls	r4, r3
1000710e:	6829      	ldr	r1, [r5, #0]
10007110:	b2a2      	uxth	r2, r4
10007112:	4450      	add	r0, sl
10007114:	f7fd fc46 	bl	100049a4 <__wrap___aeabi_memcpy>
10007118:	8a2a      	ldrh	r2, [r5, #16]
1000711a:	1993      	adds	r3, r2, r6
1000711c:	b29b      	uxth	r3, r3
1000711e:	429a      	cmp	r2, r3
10007120:	d918      	bls.n	10007154 <tu_fifo_read_n+0xdc>
10007122:	896a      	ldrh	r2, [r5, #10]
10007124:	189b      	adds	r3, r3, r2
10007126:	b29b      	uxth	r3, r3
10007128:	69a8      	ldr	r0, [r5, #24]
1000712a:	822b      	strh	r3, [r5, #16]
1000712c:	2800      	cmp	r0, #0
1000712e:	d001      	beq.n	10007134 <tu_fifo_read_n+0xbc>
10007130:	f000 fb76 	bl	10007820 <__mutex_exit_veneer>
10007134:	0030      	movs	r0, r6
10007136:	bce0      	pop	{r5, r6, r7}
10007138:	46ba      	mov	sl, r7
1000713a:	46b1      	mov	r9, r6
1000713c:	46a8      	mov	r8, r5
1000713e:	bdf0      	pop	{r4, r5, r6, r7, pc}
10007140:	464a      	mov	r2, r9
10007142:	4640      	mov	r0, r8
10007144:	4372      	muls	r2, r6
10007146:	f7fd fc2d 	bl	100049a4 <__wrap___aeabi_memcpy>
1000714a:	8a2a      	ldrh	r2, [r5, #16]
1000714c:	1993      	adds	r3, r2, r6
1000714e:	b29b      	uxth	r3, r3
10007150:	429a      	cmp	r2, r3
10007152:	d8e6      	bhi.n	10007122 <tu_fifo_read_n+0xaa>
10007154:	89aa      	ldrh	r2, [r5, #12]
10007156:	429a      	cmp	r2, r3
10007158:	d2e6      	bcs.n	10007128 <tu_fifo_read_n+0xb0>
1000715a:	e7e2      	b.n	10007122 <tu_fifo_read_n+0xaa>
1000715c:	1c33      	adds	r3, r6, #0
1000715e:	e7b7      	b.n	100070d0 <tu_fifo_read_n+0x58>
10007160:	1bcb      	subs	r3, r1, r7
10007162:	89aa      	ldrh	r2, [r5, #12]
10007164:	b29b      	uxth	r3, r3
10007166:	429a      	cmp	r2, r3
10007168:	d2a9      	bcs.n	100070be <tu_fifo_read_n+0x46>
1000716a:	e7a4      	b.n	100070b6 <tu_fifo_read_n+0x3e>
1000716c:	8a2b      	ldrh	r3, [r5, #16]
1000716e:	89aa      	ldrh	r2, [r5, #12]
10007170:	b29b      	uxth	r3, r3
10007172:	429a      	cmp	r2, r3
10007174:	d2d8      	bcs.n	10007128 <tu_fifo_read_n+0xb0>
10007176:	e7d4      	b.n	10007122 <tu_fifo_read_n+0xaa>

10007178 <tu_fifo_write>:
10007178:	b5f8      	push	{r3, r4, r5, r6, r7, lr}
1000717a:	0004      	movs	r4, r0
1000717c:	6940      	ldr	r0, [r0, #20]
1000717e:	000e      	movs	r6, r1
10007180:	2800      	cmp	r0, #0
10007182:	d003      	beq.n	1000718c <tu_fifo_write+0x14>
10007184:	2101      	movs	r1, #1
10007186:	4249      	negs	r1, r1
10007188:	f000 fb6a 	bl	10007860 <__mutex_enter_timeout_ms_veneer>
1000718c:	89e2      	ldrh	r2, [r4, #14]
1000718e:	8a21      	ldrh	r1, [r4, #16]
10007190:	b295      	uxth	r5, r2
10007192:	1a53      	subs	r3, r2, r1
10007194:	b29b      	uxth	r3, r3
10007196:	4291      	cmp	r1, r2
10007198:	d902      	bls.n	100071a0 <tu_fifo_write+0x28>
1000719a:	8962      	ldrh	r2, [r4, #10]
1000719c:	1a9b      	subs	r3, r3, r2
1000719e:	b29b      	uxth	r3, r3
100071a0:	88a2      	ldrh	r2, [r4, #4]
100071a2:	429a      	cmp	r2, r3
100071a4:	d021      	beq.n	100071ea <tu_fifo_write+0x72>
100071a6:	002b      	movs	r3, r5
100071a8:	4295      	cmp	r5, r2
100071aa:	d303      	bcc.n	100071b4 <tu_fifo_write+0x3c>
100071ac:	1a9b      	subs	r3, r3, r2
100071ae:	b29b      	uxth	r3, r3
100071b0:	429a      	cmp	r2, r3
100071b2:	d9fb      	bls.n	100071ac <tu_fifo_write+0x34>
100071b4:	88e2      	ldrh	r2, [r4, #6]
100071b6:	6821      	ldr	r1, [r4, #0]
100071b8:	4353      	muls	r3, r2
100071ba:	18c8      	adds	r0, r1, r3
100071bc:	0031      	movs	r1, r6
100071be:	f7fd fbf1 	bl	100049a4 <__wrap___aeabi_memcpy>
100071c2:	1c6b      	adds	r3, r5, #1
100071c4:	b29b      	uxth	r3, r3
100071c6:	429d      	cmp	r5, r3
100071c8:	d90b      	bls.n	100071e2 <tu_fifo_write+0x6a>
100071ca:	8962      	ldrh	r2, [r4, #10]
100071cc:	189b      	adds	r3, r3, r2
100071ce:	b29b      	uxth	r3, r3
100071d0:	6960      	ldr	r0, [r4, #20]
100071d2:	2701      	movs	r7, #1
100071d4:	81e3      	strh	r3, [r4, #14]
100071d6:	2800      	cmp	r0, #0
100071d8:	d001      	beq.n	100071de <tu_fifo_write+0x66>
100071da:	f000 fb21 	bl	10007820 <__mutex_exit_veneer>
100071de:	0038      	movs	r0, r7
100071e0:	bdf8      	pop	{r3, r4, r5, r6, r7, pc}
100071e2:	89a2      	ldrh	r2, [r4, #12]
100071e4:	429a      	cmp	r2, r3
100071e6:	d2f3      	bcs.n	100071d0 <tu_fifo_write+0x58>
100071e8:	e7ef      	b.n	100071ca <tu_fifo_write+0x52>
100071ea:	7a27      	ldrb	r7, [r4, #8]
100071ec:	2f00      	cmp	r7, #0
100071ee:	d1da      	bne.n	100071a6 <tu_fifo_write+0x2e>
100071f0:	e7f5      	b.n	100071de <tu_fifo_write+0x66>
100071f2:	46c0      	nop			; (mov r8, r8)

100071f4 <tu_fifo_write_n>:
100071f4:	b5f8      	push	{r3, r4, r5, r6, r7, lr}
100071f6:	4645      	mov	r5, r8
100071f8:	464e      	mov	r6, r9
100071fa:	46de      	mov	lr, fp
100071fc:	4657      	mov	r7, sl
100071fe:	4688      	mov	r8, r1
10007200:	b5e0      	push	{r5, r6, r7, lr}
10007202:	0005      	movs	r5, r0
10007204:	1e16      	subs	r6, r2, #0
10007206:	d05a      	beq.n	100072be <tu_fifo_write_n+0xca>
10007208:	6940      	ldr	r0, [r0, #20]
1000720a:	2800      	cmp	r0, #0
1000720c:	d003      	beq.n	10007216 <tu_fifo_write_n+0x22>
1000720e:	2101      	movs	r1, #1
10007210:	4249      	negs	r1, r1
10007212:	f000 fb25 	bl	10007860 <__mutex_enter_timeout_ms_veneer>
10007216:	89ef      	ldrh	r7, [r5, #14]
10007218:	7a2b      	ldrb	r3, [r5, #8]
1000721a:	8a29      	ldrh	r1, [r5, #16]
1000721c:	b2bf      	uxth	r7, r7
1000721e:	b289      	uxth	r1, r1
10007220:	2b00      	cmp	r3, #0
10007222:	d13b      	bne.n	1000729c <tu_fifo_write_n+0xa8>
10007224:	1a7a      	subs	r2, r7, r1
10007226:	88ab      	ldrh	r3, [r5, #4]
10007228:	b292      	uxth	r2, r2
1000722a:	428f      	cmp	r7, r1
1000722c:	d202      	bcs.n	10007234 <tu_fifo_write_n+0x40>
1000722e:	8969      	ldrh	r1, [r5, #10]
10007230:	1a52      	subs	r2, r2, r1
10007232:	b292      	uxth	r2, r2
10007234:	1a9a      	subs	r2, r3, r2
10007236:	1c11      	adds	r1, r2, #0
10007238:	b292      	uxth	r2, r2
1000723a:	42b2      	cmp	r2, r6
1000723c:	d853      	bhi.n	100072e6 <tu_fifo_write_n+0xf2>
1000723e:	88ea      	ldrh	r2, [r5, #6]
10007240:	b28e      	uxth	r6, r1
10007242:	4692      	mov	sl, r2
10007244:	1af2      	subs	r2, r6, r3
10007246:	b292      	uxth	r2, r2
10007248:	4691      	mov	r9, r2
1000724a:	003c      	movs	r4, r7
1000724c:	429f      	cmp	r7, r3
1000724e:	d303      	bcc.n	10007258 <tu_fifo_write_n+0x64>
10007250:	1ae4      	subs	r4, r4, r3
10007252:	b2a4      	uxth	r4, r4
10007254:	429c      	cmp	r4, r3
10007256:	d2fb      	bcs.n	10007250 <tu_fifo_write_n+0x5c>
10007258:	4650      	mov	r0, sl
1000725a:	682a      	ldr	r2, [r5, #0]
1000725c:	4360      	muls	r0, r4
1000725e:	4694      	mov	ip, r2
10007260:	1b1b      	subs	r3, r3, r4
10007262:	b29b      	uxth	r3, r3
10007264:	4652      	mov	r2, sl
10007266:	4460      	add	r0, ip
10007268:	429e      	cmp	r6, r3
1000726a:	d82a      	bhi.n	100072c2 <tu_fifo_write_n+0xce>
1000726c:	4641      	mov	r1, r8
1000726e:	4372      	muls	r2, r6
10007270:	f7fd fb98 	bl	100049a4 <__wrap___aeabi_memcpy>
10007274:	19f3      	adds	r3, r6, r7
10007276:	b29b      	uxth	r3, r3
10007278:	429f      	cmp	r7, r3
1000727a:	d81c      	bhi.n	100072b6 <tu_fifo_write_n+0xc2>
1000727c:	89aa      	ldrh	r2, [r5, #12]
1000727e:	429a      	cmp	r2, r3
10007280:	d319      	bcc.n	100072b6 <tu_fifo_write_n+0xc2>
10007282:	6968      	ldr	r0, [r5, #20]
10007284:	81eb      	strh	r3, [r5, #14]
10007286:	2800      	cmp	r0, #0
10007288:	d001      	beq.n	1000728e <tu_fifo_write_n+0x9a>
1000728a:	f000 fac9 	bl	10007820 <__mutex_exit_veneer>
1000728e:	0030      	movs	r0, r6
10007290:	bcf0      	pop	{r4, r5, r6, r7}
10007292:	46bb      	mov	fp, r7
10007294:	46b2      	mov	sl, r6
10007296:	46a9      	mov	r9, r5
10007298:	46a0      	mov	r8, r4
1000729a:	bdf8      	pop	{r3, r4, r5, r6, r7, pc}
1000729c:	88ea      	ldrh	r2, [r5, #6]
1000729e:	88ab      	ldrh	r3, [r5, #4]
100072a0:	4692      	mov	sl, r2
100072a2:	429e      	cmp	r6, r3
100072a4:	d321      	bcc.n	100072ea <tu_fifo_write_n+0xf6>
100072a6:	1af6      	subs	r6, r6, r3
100072a8:	4356      	muls	r6, r2
100072aa:	2200      	movs	r2, #0
100072ac:	44b0      	add	r8, r6
100072ae:	000f      	movs	r7, r1
100072b0:	001e      	movs	r6, r3
100072b2:	4691      	mov	r9, r2
100072b4:	e7c9      	b.n	1000724a <tu_fifo_write_n+0x56>
100072b6:	896a      	ldrh	r2, [r5, #10]
100072b8:	189b      	adds	r3, r3, r2
100072ba:	b29b      	uxth	r3, r3
100072bc:	e7e1      	b.n	10007282 <tu_fifo_write_n+0x8e>
100072be:	2600      	movs	r6, #0
100072c0:	e7e5      	b.n	1000728e <tu_fifo_write_n+0x9a>
100072c2:	4353      	muls	r3, r2
100072c4:	b29b      	uxth	r3, r3
100072c6:	001a      	movs	r2, r3
100072c8:	4641      	mov	r1, r8
100072ca:	469b      	mov	fp, r3
100072cc:	f7fd fb6a 	bl	100049a4 <__wrap___aeabi_memcpy>
100072d0:	0022      	movs	r2, r4
100072d2:	4653      	mov	r3, sl
100072d4:	4641      	mov	r1, r8
100072d6:	444a      	add	r2, r9
100072d8:	435a      	muls	r2, r3
100072da:	6828      	ldr	r0, [r5, #0]
100072dc:	b292      	uxth	r2, r2
100072de:	4459      	add	r1, fp
100072e0:	f7fd fb60 	bl	100049a4 <__wrap___aeabi_memcpy>
100072e4:	e7c6      	b.n	10007274 <tu_fifo_write_n+0x80>
100072e6:	1c31      	adds	r1, r6, #0
100072e8:	e7a9      	b.n	1000723e <tu_fifo_write_n+0x4a>
100072ea:	1af2      	subs	r2, r6, r3
100072ec:	b292      	uxth	r2, r2
100072ee:	4691      	mov	r9, r2
100072f0:	e7ab      	b.n	1000724a <tu_fifo_write_n+0x56>
100072f2:	46c0      	nop			; (mov r8, r8)

100072f4 <tu_fifo_clear>:
100072f4:	b510      	push	{r4, lr}
100072f6:	0004      	movs	r4, r0
100072f8:	6940      	ldr	r0, [r0, #20]
100072fa:	2800      	cmp	r0, #0
100072fc:	d003      	beq.n	10007306 <tu_fifo_clear+0x12>
100072fe:	2101      	movs	r1, #1
10007300:	4249      	negs	r1, r1
10007302:	f000 faad 	bl	10007860 <__mutex_enter_timeout_ms_veneer>
10007306:	69a0      	ldr	r0, [r4, #24]
10007308:	2800      	cmp	r0, #0
1000730a:	d003      	beq.n	10007314 <tu_fifo_clear+0x20>
1000730c:	2101      	movs	r1, #1
1000730e:	4249      	negs	r1, r1
10007310:	f000 faa6 	bl	10007860 <__mutex_enter_timeout_ms_veneer>
10007314:	2300      	movs	r3, #0
10007316:	81e3      	strh	r3, [r4, #14]
10007318:	8223      	strh	r3, [r4, #16]
1000731a:	88a3      	ldrh	r3, [r4, #4]
1000731c:	6960      	ldr	r0, [r4, #20]
1000731e:	005b      	lsls	r3, r3, #1
10007320:	b29b      	uxth	r3, r3
10007322:	1e5a      	subs	r2, r3, #1
10007324:	425b      	negs	r3, r3
10007326:	81a2      	strh	r2, [r4, #12]
10007328:	8163      	strh	r3, [r4, #10]
1000732a:	2800      	cmp	r0, #0
1000732c:	d001      	beq.n	10007332 <tu_fifo_clear+0x3e>
1000732e:	f000 fa77 	bl	10007820 <__mutex_exit_veneer>
10007332:	69a0      	ldr	r0, [r4, #24]
10007334:	2800      	cmp	r0, #0
10007336:	d001      	beq.n	1000733c <tu_fifo_clear+0x48>
10007338:	f000 fa72 	bl	10007820 <__mutex_exit_veneer>
1000733c:	2001      	movs	r0, #1
1000733e:	bd10      	pop	{r4, pc}

10007340 <tu_fifo_set_overwritable>:
10007340:	b570      	push	{r4, r5, r6, lr}
10007342:	0004      	movs	r4, r0
10007344:	6940      	ldr	r0, [r0, #20]
10007346:	000d      	movs	r5, r1
10007348:	2800      	cmp	r0, #0
1000734a:	d003      	beq.n	10007354 <tu_fifo_set_overwritable+0x14>
1000734c:	2101      	movs	r1, #1
1000734e:	4249      	negs	r1, r1
10007350:	f000 fa86 	bl	10007860 <__mutex_enter_timeout_ms_veneer>
10007354:	69a0      	ldr	r0, [r4, #24]
10007356:	2800      	cmp	r0, #0
10007358:	d003      	beq.n	10007362 <tu_fifo_set_overwritable+0x22>
1000735a:	2101      	movs	r1, #1
1000735c:	4249      	negs	r1, r1
1000735e:	f000 fa7f 	bl	10007860 <__mutex_enter_timeout_ms_veneer>
10007362:	6960      	ldr	r0, [r4, #20]
10007364:	7225      	strb	r5, [r4, #8]
10007366:	2800      	cmp	r0, #0
10007368:	d001      	beq.n	1000736e <tu_fifo_set_overwritable+0x2e>
1000736a:	f000 fa59 	bl	10007820 <__mutex_exit_veneer>
1000736e:	69a0      	ldr	r0, [r4, #24]
10007370:	2800      	cmp	r0, #0
10007372:	d001      	beq.n	10007378 <tu_fifo_set_overwritable+0x38>
10007374:	f000 fa54 	bl	10007820 <__mutex_exit_veneer>
10007378:	2001      	movs	r0, #1
1000737a:	bd70      	pop	{r4, r5, r6, pc}

1000737c <_retrieve_unique_id_on_boot>:
1000737c:	b510      	push	{r4, lr}
1000737e:	4802      	ldr	r0, [pc, #8]	; (10007388 <_retrieve_unique_id_on_boot+0xc>)
10007380:	f000 f8d8 	bl	10007534 <flash_get_unique_id>
10007384:	bd10      	pop	{r4, pc}
10007386:	46c0      	nop			; (mov r8, r8)
10007388:	20002bf0 	.word	0x20002bf0

1000738c <pico_get_unique_board_id_string>:
1000738c:	b530      	push	{r4, r5, lr}
1000738e:	1e4b      	subs	r3, r1, #1
10007390:	2901      	cmp	r1, #1
10007392:	d100      	bne.n	10007396 <pico_get_unique_board_id_string+0xa>
10007394:	e0a7      	b.n	100074e6 <pico_get_unique_board_id_string+0x15a>
10007396:	4a66      	ldr	r2, [pc, #408]	; (10007530 <pico_get_unique_board_id_string+0x1a4>)
10007398:	7811      	ldrb	r1, [r2, #0]
1000739a:	110d      	asrs	r5, r1, #4
1000739c:	002c      	movs	r4, r5
1000739e:	3430      	adds	r4, #48	; 0x30
100073a0:	299f      	cmp	r1, #159	; 0x9f
100073a2:	d900      	bls.n	100073a6 <pico_get_unique_board_id_string+0x1a>
100073a4:	e0a2      	b.n	100074ec <pico_get_unique_board_id_string+0x160>
100073a6:	7004      	strb	r4, [r0, #0]
100073a8:	2b01      	cmp	r3, #1
100073aa:	d100      	bne.n	100073ae <pico_get_unique_board_id_string+0x22>
100073ac:	e0be      	b.n	1000752c <pico_get_unique_board_id_string+0x1a0>
100073ae:	210f      	movs	r1, #15
100073b0:	7814      	ldrb	r4, [r2, #0]
100073b2:	4021      	ands	r1, r4
100073b4:	000c      	movs	r4, r1
100073b6:	3430      	adds	r4, #48	; 0x30
100073b8:	2909      	cmp	r1, #9
100073ba:	dd00      	ble.n	100073be <pico_get_unique_board_id_string+0x32>
100073bc:	e098      	b.n	100074f0 <pico_get_unique_board_id_string+0x164>
100073be:	7044      	strb	r4, [r0, #1]
100073c0:	2b02      	cmp	r3, #2
100073c2:	d100      	bne.n	100073c6 <pico_get_unique_board_id_string+0x3a>
100073c4:	e0b2      	b.n	1000752c <pico_get_unique_board_id_string+0x1a0>
100073c6:	7854      	ldrb	r4, [r2, #1]
100073c8:	1125      	asrs	r5, r4, #4
100073ca:	0029      	movs	r1, r5
100073cc:	3130      	adds	r1, #48	; 0x30
100073ce:	2c9f      	cmp	r4, #159	; 0x9f
100073d0:	d900      	bls.n	100073d4 <pico_get_unique_board_id_string+0x48>
100073d2:	e090      	b.n	100074f6 <pico_get_unique_board_id_string+0x16a>
100073d4:	7081      	strb	r1, [r0, #2]
100073d6:	2b03      	cmp	r3, #3
100073d8:	d100      	bne.n	100073dc <pico_get_unique_board_id_string+0x50>
100073da:	e0a7      	b.n	1000752c <pico_get_unique_board_id_string+0x1a0>
100073dc:	210f      	movs	r1, #15
100073de:	4021      	ands	r1, r4
100073e0:	000c      	movs	r4, r1
100073e2:	3430      	adds	r4, #48	; 0x30
100073e4:	2909      	cmp	r1, #9
100073e6:	dd00      	ble.n	100073ea <pico_get_unique_board_id_string+0x5e>
100073e8:	e087      	b.n	100074fa <pico_get_unique_board_id_string+0x16e>
100073ea:	70c4      	strb	r4, [r0, #3]
100073ec:	2b04      	cmp	r3, #4
100073ee:	d100      	bne.n	100073f2 <pico_get_unique_board_id_string+0x66>
100073f0:	e09c      	b.n	1000752c <pico_get_unique_board_id_string+0x1a0>
100073f2:	7894      	ldrb	r4, [r2, #2]
100073f4:	1125      	asrs	r5, r4, #4
100073f6:	0029      	movs	r1, r5
100073f8:	3130      	adds	r1, #48	; 0x30
100073fa:	2c9f      	cmp	r4, #159	; 0x9f
100073fc:	d900      	bls.n	10007400 <pico_get_unique_board_id_string+0x74>
100073fe:	e07f      	b.n	10007500 <pico_get_unique_board_id_string+0x174>
10007400:	7101      	strb	r1, [r0, #4]
10007402:	2b05      	cmp	r3, #5
10007404:	d100      	bne.n	10007408 <pico_get_unique_board_id_string+0x7c>
10007406:	e091      	b.n	1000752c <pico_get_unique_board_id_string+0x1a0>
10007408:	210f      	movs	r1, #15
1000740a:	4021      	ands	r1, r4
1000740c:	000c      	movs	r4, r1
1000740e:	3430      	adds	r4, #48	; 0x30
10007410:	2909      	cmp	r1, #9
10007412:	dd00      	ble.n	10007416 <pico_get_unique_board_id_string+0x8a>
10007414:	e076      	b.n	10007504 <pico_get_unique_board_id_string+0x178>
10007416:	7144      	strb	r4, [r0, #5]
10007418:	2b06      	cmp	r3, #6
1000741a:	d100      	bne.n	1000741e <pico_get_unique_board_id_string+0x92>
1000741c:	e086      	b.n	1000752c <pico_get_unique_board_id_string+0x1a0>
1000741e:	78d4      	ldrb	r4, [r2, #3]
10007420:	1125      	asrs	r5, r4, #4
10007422:	0029      	movs	r1, r5
10007424:	3130      	adds	r1, #48	; 0x30
10007426:	2c9f      	cmp	r4, #159	; 0x9f
10007428:	d900      	bls.n	1000742c <pico_get_unique_board_id_string+0xa0>
1000742a:	e06e      	b.n	1000750a <pico_get_unique_board_id_string+0x17e>
1000742c:	7181      	strb	r1, [r0, #6]
1000742e:	2b07      	cmp	r3, #7
10007430:	d100      	bne.n	10007434 <pico_get_unique_board_id_string+0xa8>
10007432:	e07b      	b.n	1000752c <pico_get_unique_board_id_string+0x1a0>
10007434:	210f      	movs	r1, #15
10007436:	4021      	ands	r1, r4
10007438:	000c      	movs	r4, r1
1000743a:	3430      	adds	r4, #48	; 0x30
1000743c:	2909      	cmp	r1, #9
1000743e:	dc66      	bgt.n	1000750e <pico_get_unique_board_id_string+0x182>
10007440:	71c4      	strb	r4, [r0, #7]
10007442:	2b08      	cmp	r3, #8
10007444:	d100      	bne.n	10007448 <pico_get_unique_board_id_string+0xbc>
10007446:	e071      	b.n	1000752c <pico_get_unique_board_id_string+0x1a0>
10007448:	7914      	ldrb	r4, [r2, #4]
1000744a:	1125      	asrs	r5, r4, #4
1000744c:	0029      	movs	r1, r5
1000744e:	3130      	adds	r1, #48	; 0x30
10007450:	2c9f      	cmp	r4, #159	; 0x9f
10007452:	d85f      	bhi.n	10007514 <pico_get_unique_board_id_string+0x188>
10007454:	7201      	strb	r1, [r0, #8]
10007456:	2b09      	cmp	r3, #9
10007458:	d068      	beq.n	1000752c <pico_get_unique_board_id_string+0x1a0>
1000745a:	210f      	movs	r1, #15
1000745c:	4021      	ands	r1, r4
1000745e:	000c      	movs	r4, r1
10007460:	3430      	adds	r4, #48	; 0x30
10007462:	2909      	cmp	r1, #9
10007464:	dc58      	bgt.n	10007518 <pico_get_unique_board_id_string+0x18c>
10007466:	7244      	strb	r4, [r0, #9]
10007468:	2b0a      	cmp	r3, #10
1000746a:	d05f      	beq.n	1000752c <pico_get_unique_board_id_string+0x1a0>
1000746c:	7954      	ldrb	r4, [r2, #5]
1000746e:	1125      	asrs	r5, r4, #4
10007470:	0029      	movs	r1, r5
10007472:	3130      	adds	r1, #48	; 0x30
10007474:	2c9f      	cmp	r4, #159	; 0x9f
10007476:	d852      	bhi.n	1000751e <pico_get_unique_board_id_string+0x192>
10007478:	7281      	strb	r1, [r0, #10]
1000747a:	2b0b      	cmp	r3, #11
1000747c:	d056      	beq.n	1000752c <pico_get_unique_board_id_string+0x1a0>
1000747e:	210f      	movs	r1, #15
10007480:	4021      	ands	r1, r4
10007482:	000c      	movs	r4, r1
10007484:	3430      	adds	r4, #48	; 0x30
10007486:	2909      	cmp	r1, #9
10007488:	dc4b      	bgt.n	10007522 <pico_get_unique_board_id_string+0x196>
1000748a:	72c4      	strb	r4, [r0, #11]
1000748c:	2b0c      	cmp	r3, #12
1000748e:	d04d      	beq.n	1000752c <pico_get_unique_board_id_string+0x1a0>
10007490:	7994      	ldrb	r4, [r2, #6]
10007492:	1125      	asrs	r5, r4, #4
10007494:	0029      	movs	r1, r5
10007496:	3130      	adds	r1, #48	; 0x30
10007498:	2c9f      	cmp	r4, #159	; 0x9f
1000749a:	d900      	bls.n	1000749e <pico_get_unique_board_id_string+0x112>
1000749c:	3107      	adds	r1, #7
1000749e:	7301      	strb	r1, [r0, #12]
100074a0:	2b0d      	cmp	r3, #13
100074a2:	d043      	beq.n	1000752c <pico_get_unique_board_id_string+0x1a0>
100074a4:	210f      	movs	r1, #15
100074a6:	4021      	ands	r1, r4
100074a8:	000c      	movs	r4, r1
100074aa:	3430      	adds	r4, #48	; 0x30
100074ac:	2909      	cmp	r1, #9
100074ae:	dd01      	ble.n	100074b4 <pico_get_unique_board_id_string+0x128>
100074b0:	3137      	adds	r1, #55	; 0x37
100074b2:	000c      	movs	r4, r1
100074b4:	7344      	strb	r4, [r0, #13]
100074b6:	2b0e      	cmp	r3, #14
100074b8:	d038      	beq.n	1000752c <pico_get_unique_board_id_string+0x1a0>
100074ba:	79d1      	ldrb	r1, [r2, #7]
100074bc:	110c      	asrs	r4, r1, #4
100074be:	0022      	movs	r2, r4
100074c0:	3230      	adds	r2, #48	; 0x30
100074c2:	299f      	cmp	r1, #159	; 0x9f
100074c4:	d900      	bls.n	100074c8 <pico_get_unique_board_id_string+0x13c>
100074c6:	3207      	adds	r2, #7
100074c8:	7382      	strb	r2, [r0, #14]
100074ca:	2b0f      	cmp	r3, #15
100074cc:	d02e      	beq.n	1000752c <pico_get_unique_board_id_string+0x1a0>
100074ce:	220f      	movs	r2, #15
100074d0:	400a      	ands	r2, r1
100074d2:	0011      	movs	r1, r2
100074d4:	3137      	adds	r1, #55	; 0x37
100074d6:	2a09      	cmp	r2, #9
100074d8:	dc01      	bgt.n	100074de <pico_get_unique_board_id_string+0x152>
100074da:	3230      	adds	r2, #48	; 0x30
100074dc:	0011      	movs	r1, r2
100074de:	73c1      	strb	r1, [r0, #15]
100074e0:	2b10      	cmp	r3, #16
100074e2:	d023      	beq.n	1000752c <pico_get_unique_board_id_string+0x1a0>
100074e4:	3010      	adds	r0, #16
100074e6:	2300      	movs	r3, #0
100074e8:	7003      	strb	r3, [r0, #0]
100074ea:	bd30      	pop	{r4, r5, pc}
100074ec:	3407      	adds	r4, #7
100074ee:	e75a      	b.n	100073a6 <pico_get_unique_board_id_string+0x1a>
100074f0:	3137      	adds	r1, #55	; 0x37
100074f2:	000c      	movs	r4, r1
100074f4:	e763      	b.n	100073be <pico_get_unique_board_id_string+0x32>
100074f6:	3107      	adds	r1, #7
100074f8:	e76c      	b.n	100073d4 <pico_get_unique_board_id_string+0x48>
100074fa:	3137      	adds	r1, #55	; 0x37
100074fc:	000c      	movs	r4, r1
100074fe:	e774      	b.n	100073ea <pico_get_unique_board_id_string+0x5e>
10007500:	3107      	adds	r1, #7
10007502:	e77d      	b.n	10007400 <pico_get_unique_board_id_string+0x74>
10007504:	3137      	adds	r1, #55	; 0x37
10007506:	000c      	movs	r4, r1
10007508:	e785      	b.n	10007416 <pico_get_unique_board_id_string+0x8a>
1000750a:	3107      	adds	r1, #7
1000750c:	e78e      	b.n	1000742c <pico_get_unique_board_id_string+0xa0>
1000750e:	3137      	adds	r1, #55	; 0x37
10007510:	000c      	movs	r4, r1
10007512:	e795      	b.n	10007440 <pico_get_unique_board_id_string+0xb4>
10007514:	3107      	adds	r1, #7
10007516:	e79d      	b.n	10007454 <pico_get_unique_board_id_string+0xc8>
10007518:	3137      	adds	r1, #55	; 0x37
1000751a:	000c      	movs	r4, r1
1000751c:	e7a3      	b.n	10007466 <pico_get_unique_board_id_string+0xda>
1000751e:	3107      	adds	r1, #7
10007520:	e7aa      	b.n	10007478 <pico_get_unique_board_id_string+0xec>
10007522:	3137      	adds	r1, #55	; 0x37
10007524:	000c      	movs	r4, r1
10007526:	72c4      	strb	r4, [r0, #11]
10007528:	2b0c      	cmp	r3, #12
1000752a:	d1b1      	bne.n	10007490 <pico_get_unique_board_id_string+0x104>
1000752c:	18c0      	adds	r0, r0, r3
1000752e:	e7da      	b.n	100074e6 <pico_get_unique_board_id_string+0x15a>
10007530:	20002bf0 	.word	0x20002bf0

10007534 <flash_get_unique_id>:
10007534:	b530      	push	{r4, r5, lr}
10007536:	2500      	movs	r5, #0
10007538:	b089      	sub	sp, #36	; 0x24
1000753a:	0004      	movs	r4, r0
1000753c:	2209      	movs	r2, #9
1000753e:	2100      	movs	r1, #0
10007540:	a801      	add	r0, sp, #4
10007542:	9500      	str	r5, [sp, #0]
10007544:	f7fd fa28 	bl	10004998 <__wrap_memset>
10007548:	2209      	movs	r2, #9
1000754a:	2100      	movs	r1, #0
1000754c:	a805      	add	r0, sp, #20
1000754e:	9504      	str	r5, [sp, #16]
10007550:	f7fd fa22 	bl	10004998 <__wrap_memset>
10007554:	234b      	movs	r3, #75	; 0x4b
10007556:	466a      	mov	r2, sp
10007558:	4668      	mov	r0, sp
1000755a:	7013      	strb	r3, [r2, #0]
1000755c:	a904      	add	r1, sp, #16
1000755e:	220d      	movs	r2, #13
10007560:	f000 f956 	bl	10007810 <__flash_do_cmd_veneer>
10007564:	2115      	movs	r1, #21
10007566:	2208      	movs	r2, #8
10007568:	0020      	movs	r0, r4
1000756a:	4469      	add	r1, sp
1000756c:	f7fd fa1a 	bl	100049a4 <__wrap___aeabi_memcpy>
10007570:	b009      	add	sp, #36	; 0x24
10007572:	bd30      	pop	{r4, r5, pc}

10007574 <atoi>:
10007574:	b510      	push	{r4, lr}
10007576:	220a      	movs	r2, #10
10007578:	2100      	movs	r1, #0
1000757a:	f000 f929 	bl	100077d0 <strtol>
1000757e:	bd10      	pop	{r4, pc}

10007580 <_atoi_r>:
10007580:	b510      	push	{r4, lr}
10007582:	230a      	movs	r3, #10
10007584:	2200      	movs	r2, #0
10007586:	f000 f8ff 	bl	10007788 <_strtol_r>
1000758a:	bd10      	pop	{r4, pc}

1000758c <stpcpy>:
1000758c:	0003      	movs	r3, r0
1000758e:	0002      	movs	r2, r0
10007590:	0008      	movs	r0, r1
10007592:	4318      	orrs	r0, r3
10007594:	b530      	push	{r4, r5, lr}
10007596:	0780      	lsls	r0, r0, #30
10007598:	d111      	bne.n	100075be <stpcpy+0x32>
1000759a:	6808      	ldr	r0, [r1, #0]
1000759c:	4c0c      	ldr	r4, [pc, #48]	; (100075d0 <stpcpy+0x44>)
1000759e:	4d0d      	ldr	r5, [pc, #52]	; (100075d4 <stpcpy+0x48>)
100075a0:	1904      	adds	r4, r0, r4
100075a2:	4384      	bics	r4, r0
100075a4:	422c      	tst	r4, r5
100075a6:	d10a      	bne.n	100075be <stpcpy+0x32>
100075a8:	0014      	movs	r4, r2
100075aa:	3104      	adds	r1, #4
100075ac:	6020      	str	r0, [r4, #0]
100075ae:	6808      	ldr	r0, [r1, #0]
100075b0:	4c07      	ldr	r4, [pc, #28]	; (100075d0 <stpcpy+0x44>)
100075b2:	3204      	adds	r2, #4
100075b4:	1904      	adds	r4, r0, r4
100075b6:	4384      	bics	r4, r0
100075b8:	0013      	movs	r3, r2
100075ba:	422c      	tst	r4, r5
100075bc:	d0f4      	beq.n	100075a8 <stpcpy+0x1c>
100075be:	780a      	ldrb	r2, [r1, #0]
100075c0:	0018      	movs	r0, r3
100075c2:	701a      	strb	r2, [r3, #0]
100075c4:	3101      	adds	r1, #1
100075c6:	3301      	adds	r3, #1
100075c8:	2a00      	cmp	r2, #0
100075ca:	d1f8      	bne.n	100075be <stpcpy+0x32>
100075cc:	bd30      	pop	{r4, r5, pc}
100075ce:	46c0      	nop			; (mov r8, r8)
100075d0:	fefefeff 	.word	0xfefefeff
100075d4:	80808080 	.word	0x80808080

100075d8 <strcpy>:
100075d8:	0003      	movs	r3, r0
100075da:	780a      	ldrb	r2, [r1, #0]
100075dc:	3101      	adds	r1, #1
100075de:	701a      	strb	r2, [r3, #0]
100075e0:	3301      	adds	r3, #1
100075e2:	2a00      	cmp	r2, #0
100075e4:	d1f9      	bne.n	100075da <strcpy+0x2>
100075e6:	4770      	bx	lr

100075e8 <strlen>:
100075e8:	b510      	push	{r4, lr}
100075ea:	0783      	lsls	r3, r0, #30
100075ec:	d00a      	beq.n	10007604 <strlen+0x1c>
100075ee:	0003      	movs	r3, r0
100075f0:	2103      	movs	r1, #3
100075f2:	e002      	b.n	100075fa <strlen+0x12>
100075f4:	3301      	adds	r3, #1
100075f6:	420b      	tst	r3, r1
100075f8:	d005      	beq.n	10007606 <strlen+0x1e>
100075fa:	781a      	ldrb	r2, [r3, #0]
100075fc:	2a00      	cmp	r2, #0
100075fe:	d1f9      	bne.n	100075f4 <strlen+0xc>
10007600:	1a18      	subs	r0, r3, r0
10007602:	bd10      	pop	{r4, pc}
10007604:	0003      	movs	r3, r0
10007606:	6819      	ldr	r1, [r3, #0]
10007608:	4a0c      	ldr	r2, [pc, #48]	; (1000763c <strlen+0x54>)
1000760a:	4c0d      	ldr	r4, [pc, #52]	; (10007640 <strlen+0x58>)
1000760c:	188a      	adds	r2, r1, r2
1000760e:	438a      	bics	r2, r1
10007610:	4222      	tst	r2, r4
10007612:	d10f      	bne.n	10007634 <strlen+0x4c>
10007614:	6859      	ldr	r1, [r3, #4]
10007616:	4a09      	ldr	r2, [pc, #36]	; (1000763c <strlen+0x54>)
10007618:	3304      	adds	r3, #4
1000761a:	188a      	adds	r2, r1, r2
1000761c:	438a      	bics	r2, r1
1000761e:	4222      	tst	r2, r4
10007620:	d108      	bne.n	10007634 <strlen+0x4c>
10007622:	6859      	ldr	r1, [r3, #4]
10007624:	4a05      	ldr	r2, [pc, #20]	; (1000763c <strlen+0x54>)
10007626:	3304      	adds	r3, #4
10007628:	188a      	adds	r2, r1, r2
1000762a:	438a      	bics	r2, r1
1000762c:	4222      	tst	r2, r4
1000762e:	d0f1      	beq.n	10007614 <strlen+0x2c>
10007630:	e000      	b.n	10007634 <strlen+0x4c>
10007632:	3301      	adds	r3, #1
10007634:	781a      	ldrb	r2, [r3, #0]
10007636:	2a00      	cmp	r2, #0
10007638:	d1fb      	bne.n	10007632 <strlen+0x4a>
1000763a:	e7e1      	b.n	10007600 <strlen+0x18>
1000763c:	fefefeff 	.word	0xfefefeff
10007640:	80808080 	.word	0x80808080

10007644 <_strtol_l.part.0>:
10007644:	b5f0      	push	{r4, r5, r6, r7, lr}
10007646:	4657      	mov	r7, sl
10007648:	464e      	mov	r6, r9
1000764a:	4645      	mov	r5, r8
1000764c:	46de      	mov	lr, fp
1000764e:	4682      	mov	sl, r0
10007650:	b5e0      	push	{r5, r6, r7, lr}
10007652:	4691      	mov	r9, r2
10007654:	4688      	mov	r8, r1
10007656:	001e      	movs	r6, r3
10007658:	000a      	movs	r2, r1
1000765a:	2008      	movs	r0, #8
1000765c:	4f48      	ldr	r7, [pc, #288]	; (10007780 <_strtol_l.part.0+0x13c>)
1000765e:	b083      	sub	sp, #12
10007660:	0013      	movs	r3, r2
10007662:	781c      	ldrb	r4, [r3, #0]
10007664:	1c55      	adds	r5, r2, #1
10007666:	5d39      	ldrb	r1, [r7, r4]
10007668:	002a      	movs	r2, r5
1000766a:	4208      	tst	r0, r1
1000766c:	d1f8      	bne.n	10007660 <_strtol_l.part.0+0x1c>
1000766e:	2c2d      	cmp	r4, #45	; 0x2d
10007670:	d066      	beq.n	10007740 <_strtol_l.part.0+0xfc>
10007672:	2c2b      	cmp	r4, #43	; 0x2b
10007674:	d029      	beq.n	100076ca <_strtol_l.part.0+0x86>
10007676:	4b43      	ldr	r3, [pc, #268]	; (10007784 <_strtol_l.part.0+0x140>)
10007678:	469b      	mov	fp, r3
1000767a:	2300      	movs	r3, #0
1000767c:	9301      	str	r3, [sp, #4]
1000767e:	2e00      	cmp	r6, #0
10007680:	d02b      	beq.n	100076da <_strtol_l.part.0+0x96>
10007682:	2e10      	cmp	r6, #16
10007684:	d064      	beq.n	10007750 <_strtol_l.part.0+0x10c>
10007686:	0037      	movs	r7, r6
10007688:	0039      	movs	r1, r7
1000768a:	4658      	mov	r0, fp
1000768c:	f7fc faf4 	bl	10003c78 <__wrap___aeabi_uidiv>
10007690:	002b      	movs	r3, r5
10007692:	468c      	mov	ip, r1
10007694:	2200      	movs	r2, #0
10007696:	2100      	movs	r1, #0
10007698:	e007      	b.n	100076aa <_strtol_l.part.0+0x66>
1000769a:	4288      	cmp	r0, r1
1000769c:	d312      	bcc.n	100076c4 <_strtol_l.part.0+0x80>
1000769e:	d03f      	beq.n	10007720 <_strtol_l.part.0+0xdc>
100076a0:	2201      	movs	r2, #1
100076a2:	4379      	muls	r1, r7
100076a4:	1869      	adds	r1, r5, r1
100076a6:	781c      	ldrb	r4, [r3, #0]
100076a8:	3301      	adds	r3, #1
100076aa:	0025      	movs	r5, r4
100076ac:	3d30      	subs	r5, #48	; 0x30
100076ae:	2d09      	cmp	r5, #9
100076b0:	d904      	bls.n	100076bc <_strtol_l.part.0+0x78>
100076b2:	3d11      	subs	r5, #17
100076b4:	2d19      	cmp	r5, #25
100076b6:	d815      	bhi.n	100076e4 <_strtol_l.part.0+0xa0>
100076b8:	3c37      	subs	r4, #55	; 0x37
100076ba:	0025      	movs	r5, r4
100076bc:	42ae      	cmp	r6, r5
100076be:	dd19      	ble.n	100076f4 <_strtol_l.part.0+0xb0>
100076c0:	2a00      	cmp	r2, #0
100076c2:	daea      	bge.n	1000769a <_strtol_l.part.0+0x56>
100076c4:	2201      	movs	r2, #1
100076c6:	4252      	negs	r2, r2
100076c8:	e7ed      	b.n	100076a6 <_strtol_l.part.0+0x62>
100076ca:	782c      	ldrb	r4, [r5, #0]
100076cc:	1c9d      	adds	r5, r3, #2
100076ce:	4b2d      	ldr	r3, [pc, #180]	; (10007784 <_strtol_l.part.0+0x140>)
100076d0:	469b      	mov	fp, r3
100076d2:	2300      	movs	r3, #0
100076d4:	9301      	str	r3, [sp, #4]
100076d6:	2e00      	cmp	r6, #0
100076d8:	d1d3      	bne.n	10007682 <_strtol_l.part.0+0x3e>
100076da:	2c30      	cmp	r4, #48	; 0x30
100076dc:	d046      	beq.n	1000776c <_strtol_l.part.0+0x128>
100076de:	270a      	movs	r7, #10
100076e0:	260a      	movs	r6, #10
100076e2:	e7d1      	b.n	10007688 <_strtol_l.part.0+0x44>
100076e4:	0025      	movs	r5, r4
100076e6:	3d61      	subs	r5, #97	; 0x61
100076e8:	2d19      	cmp	r5, #25
100076ea:	d803      	bhi.n	100076f4 <_strtol_l.part.0+0xb0>
100076ec:	3c57      	subs	r4, #87	; 0x57
100076ee:	0025      	movs	r5, r4
100076f0:	42ae      	cmp	r6, r5
100076f2:	dce5      	bgt.n	100076c0 <_strtol_l.part.0+0x7c>
100076f4:	2a00      	cmp	r2, #0
100076f6:	db18      	blt.n	1000772a <_strtol_l.part.0+0xe6>
100076f8:	9801      	ldr	r0, [sp, #4]
100076fa:	2800      	cmp	r0, #0
100076fc:	d000      	beq.n	10007700 <_strtol_l.part.0+0xbc>
100076fe:	4249      	negs	r1, r1
10007700:	4648      	mov	r0, r9
10007702:	2800      	cmp	r0, #0
10007704:	d004      	beq.n	10007710 <_strtol_l.part.0+0xcc>
10007706:	2a00      	cmp	r2, #0
10007708:	d138      	bne.n	1000777c <_strtol_l.part.0+0x138>
1000770a:	464b      	mov	r3, r9
1000770c:	4642      	mov	r2, r8
1000770e:	601a      	str	r2, [r3, #0]
10007710:	0008      	movs	r0, r1
10007712:	b003      	add	sp, #12
10007714:	bcf0      	pop	{r4, r5, r6, r7}
10007716:	46bb      	mov	fp, r7
10007718:	46b2      	mov	sl, r6
1000771a:	46a9      	mov	r9, r5
1000771c:	46a0      	mov	r8, r4
1000771e:	bdf0      	pop	{r4, r5, r6, r7, pc}
10007720:	45ac      	cmp	ip, r5
10007722:	dabd      	bge.n	100076a0 <_strtol_l.part.0+0x5c>
10007724:	2201      	movs	r2, #1
10007726:	4252      	negs	r2, r2
10007728:	e7bd      	b.n	100076a6 <_strtol_l.part.0+0x62>
1000772a:	2222      	movs	r2, #34	; 0x22
1000772c:	4651      	mov	r1, sl
1000772e:	600a      	str	r2, [r1, #0]
10007730:	464a      	mov	r2, r9
10007732:	4659      	mov	r1, fp
10007734:	2a00      	cmp	r2, #0
10007736:	d0eb      	beq.n	10007710 <_strtol_l.part.0+0xcc>
10007738:	3b01      	subs	r3, #1
1000773a:	4698      	mov	r8, r3
1000773c:	4659      	mov	r1, fp
1000773e:	e7e4      	b.n	1000770a <_strtol_l.part.0+0xc6>
10007740:	782c      	ldrb	r4, [r5, #0]
10007742:	1c9d      	adds	r5, r3, #2
10007744:	2380      	movs	r3, #128	; 0x80
10007746:	061b      	lsls	r3, r3, #24
10007748:	469b      	mov	fp, r3
1000774a:	2301      	movs	r3, #1
1000774c:	9301      	str	r3, [sp, #4]
1000774e:	e796      	b.n	1000767e <_strtol_l.part.0+0x3a>
10007750:	2c30      	cmp	r4, #48	; 0x30
10007752:	d104      	bne.n	1000775e <_strtol_l.part.0+0x11a>
10007754:	2220      	movs	r2, #32
10007756:	782b      	ldrb	r3, [r5, #0]
10007758:	4393      	bics	r3, r2
1000775a:	2b58      	cmp	r3, #88	; 0x58
1000775c:	d001      	beq.n	10007762 <_strtol_l.part.0+0x11e>
1000775e:	2710      	movs	r7, #16
10007760:	e792      	b.n	10007688 <_strtol_l.part.0+0x44>
10007762:	786c      	ldrb	r4, [r5, #1]
10007764:	2710      	movs	r7, #16
10007766:	2610      	movs	r6, #16
10007768:	3502      	adds	r5, #2
1000776a:	e78d      	b.n	10007688 <_strtol_l.part.0+0x44>
1000776c:	2220      	movs	r2, #32
1000776e:	782b      	ldrb	r3, [r5, #0]
10007770:	4393      	bics	r3, r2
10007772:	2b58      	cmp	r3, #88	; 0x58
10007774:	d0f5      	beq.n	10007762 <_strtol_l.part.0+0x11e>
10007776:	2708      	movs	r7, #8
10007778:	2608      	movs	r6, #8
1000777a:	e785      	b.n	10007688 <_strtol_l.part.0+0x44>
1000777c:	468b      	mov	fp, r1
1000777e:	e7db      	b.n	10007738 <_strtol_l.part.0+0xf4>
10007780:	10007d99 	.word	0x10007d99
10007784:	7fffffff 	.word	0x7fffffff

10007788 <_strtol_r>:
10007788:	b510      	push	{r4, lr}
1000778a:	2b01      	cmp	r3, #1
1000778c:	d004      	beq.n	10007798 <_strtol_r+0x10>
1000778e:	2b24      	cmp	r3, #36	; 0x24
10007790:	d802      	bhi.n	10007798 <_strtol_r+0x10>
10007792:	f7ff ff57 	bl	10007644 <_strtol_l.part.0>
10007796:	e004      	b.n	100077a2 <_strtol_r+0x1a>
10007798:	f000 f830 	bl	100077fc <__errno>
1000779c:	2316      	movs	r3, #22
1000779e:	6003      	str	r3, [r0, #0]
100077a0:	2000      	movs	r0, #0
100077a2:	bd10      	pop	{r4, pc}

100077a4 <strtol_l>:
100077a4:	0013      	movs	r3, r2
100077a6:	b510      	push	{r4, lr}
100077a8:	2a01      	cmp	r2, #1
100077aa:	d009      	beq.n	100077c0 <strtol_l+0x1c>
100077ac:	2a24      	cmp	r2, #36	; 0x24
100077ae:	d807      	bhi.n	100077c0 <strtol_l+0x1c>
100077b0:	4a06      	ldr	r2, [pc, #24]	; (100077cc <strtol_l+0x28>)
100077b2:	6814      	ldr	r4, [r2, #0]
100077b4:	000a      	movs	r2, r1
100077b6:	0001      	movs	r1, r0
100077b8:	0020      	movs	r0, r4
100077ba:	f7ff ff43 	bl	10007644 <_strtol_l.part.0>
100077be:	e004      	b.n	100077ca <strtol_l+0x26>
100077c0:	f000 f81c 	bl	100077fc <__errno>
100077c4:	2316      	movs	r3, #22
100077c6:	6003      	str	r3, [r0, #0]
100077c8:	2000      	movs	r0, #0
100077ca:	bd10      	pop	{r4, pc}
100077cc:	20001a40 	.word	0x20001a40

100077d0 <strtol>:
100077d0:	0013      	movs	r3, r2
100077d2:	b510      	push	{r4, lr}
100077d4:	2a01      	cmp	r2, #1
100077d6:	d009      	beq.n	100077ec <strtol+0x1c>
100077d8:	2a24      	cmp	r2, #36	; 0x24
100077da:	d807      	bhi.n	100077ec <strtol+0x1c>
100077dc:	4a06      	ldr	r2, [pc, #24]	; (100077f8 <strtol+0x28>)
100077de:	6814      	ldr	r4, [r2, #0]
100077e0:	000a      	movs	r2, r1
100077e2:	0001      	movs	r1, r0
100077e4:	0020      	movs	r0, r4
100077e6:	f7ff ff2d 	bl	10007644 <_strtol_l.part.0>
100077ea:	e004      	b.n	100077f6 <strtol+0x26>
100077ec:	f000 f806 	bl	100077fc <__errno>
100077f0:	2316      	movs	r3, #22
100077f2:	6003      	str	r3, [r0, #0]
100077f4:	2000      	movs	r0, #0
100077f6:	bd10      	pop	{r4, pc}
100077f8:	20001a40 	.word	0x20001a40

100077fc <__errno>:
100077fc:	4b01      	ldr	r3, [pc, #4]	; (10007804 <__errno+0x8>)
100077fe:	6818      	ldr	r0, [r3, #0]
10007800:	4770      	bx	lr
10007802:	46c0      	nop			; (mov r8, r8)
10007804:	20001a40 	.word	0x20001a40

10007808 <_fini>:
10007808:	b5f8      	push	{r3, r4, r5, r6, r7, lr}
1000780a:	46c0      	nop			; (mov r8, r8)
1000780c:	0000      	movs	r0, r0
	...

10007810 <__flash_do_cmd_veneer>:
10007810:	b401      	push	{r0}
10007812:	4802      	ldr	r0, [pc, #8]	; (1000781c <__flash_do_cmd_veneer+0xc>)
10007814:	4684      	mov	ip, r0
10007816:	bc01      	pop	{r0}
10007818:	4760      	bx	ip
1000781a:	bf00      	nop
1000781c:	2000028d 	.word	0x2000028d

10007820 <__mutex_exit_veneer>:
10007820:	b401      	push	{r0}
10007822:	4802      	ldr	r0, [pc, #8]	; (1000782c <__mutex_exit_veneer+0xc>)
10007824:	4684      	mov	ip, r0
10007826:	bc01      	pop	{r0}
10007828:	4760      	bx	ip
1000782a:	bf00      	nop
1000782c:	200001ed 	.word	0x200001ed

10007830 <____aeabi_ldiv0_veneer>:
10007830:	b401      	push	{r0}
10007832:	4802      	ldr	r0, [pc, #8]	; (1000783c <____aeabi_ldiv0_veneer+0xc>)
10007834:	4684      	mov	ip, r0
10007836:	bc01      	pop	{r0}
10007838:	4760      	bx	ip
1000783a:	bf00      	nop
1000783c:	20000351 	.word	0x20000351

10007840 <____aeabi_idiv0_veneer>:
10007840:	b401      	push	{r0}
10007842:	4802      	ldr	r0, [pc, #8]	; (1000784c <____aeabi_idiv0_veneer+0xc>)
10007844:	4684      	mov	ip, r0
10007846:	bc01      	pop	{r0}
10007848:	4760      	bx	ip
1000784a:	bf00      	nop
1000784c:	20000351 	.word	0x20000351

10007850 <__mutex_try_enter_veneer>:
10007850:	b401      	push	{r0}
10007852:	4802      	ldr	r0, [pc, #8]	; (1000785c <__mutex_try_enter_veneer+0xc>)
10007854:	4684      	mov	ip, r0
10007856:	bc01      	pop	{r0}
10007858:	4760      	bx	ip
1000785a:	bf00      	nop
1000785c:	20000109 	.word	0x20000109

10007860 <__mutex_enter_timeout_ms_veneer>:
10007860:	b401      	push	{r0}
10007862:	4802      	ldr	r0, [pc, #8]	; (1000786c <__mutex_enter_timeout_ms_veneer+0xc>)
10007864:	4684      	mov	ip, r0
10007866:	bc01      	pop	{r0}
10007868:	4760      	bx	ip
1000786a:	bf00      	nop
1000786c:	2000014d 	.word	0x2000014d

10007870 <__mutex_enter_blocking_veneer>:
10007870:	b401      	push	{r0}
10007872:	4802      	ldr	r0, [pc, #8]	; (1000787c <__mutex_enter_blocking_veneer+0xc>)
10007874:	4684      	mov	ip, r0
10007876:	bc01      	pop	{r0}
10007878:	4760      	bx	ip
1000787a:	bf00      	nop
1000787c:	200000c1 	.word	0x200000c1

Disassembly of section .data:

200000c0 <mutex_enter_blocking>:
200000c0:	23d0      	movs	r3, #208	; 0xd0
200000c2:	b530      	push	{r4, r5, lr}
200000c4:	2500      	movs	r5, #0
200000c6:	061b      	lsls	r3, r3, #24
200000c8:	2400      	movs	r4, #0
200000ca:	575d      	ldrsb	r5, [r3, r5]
200000cc:	e006      	b.n	200000dc <mutex_enter_blocking+0x1c>
200000ce:	6803      	ldr	r3, [r0, #0]
200000d0:	f3bf 8f5f 	dmb	sy
200000d4:	601c      	str	r4, [r3, #0]
200000d6:	f381 8810 	msr	PRIMASK, r1
200000da:	bf20      	wfe
200000dc:	6802      	ldr	r2, [r0, #0]
200000de:	f3ef 8110 	mrs	r1, PRIMASK
200000e2:	b672      	cpsid	i
200000e4:	6813      	ldr	r3, [r2, #0]
200000e6:	2b00      	cmp	r3, #0
200000e8:	d0fc      	beq.n	200000e4 <mutex_enter_blocking+0x24>
200000ea:	f3bf 8f5f 	dmb	sy
200000ee:	7903      	ldrb	r3, [r0, #4]
200000f0:	2b7f      	cmp	r3, #127	; 0x7f
200000f2:	d9ec      	bls.n	200000ce <mutex_enter_blocking+0xe>
200000f4:	7105      	strb	r5, [r0, #4]
200000f6:	6803      	ldr	r3, [r0, #0]
200000f8:	f3bf 8f5f 	dmb	sy
200000fc:	2200      	movs	r2, #0
200000fe:	601a      	str	r2, [r3, #0]
20000100:	f381 8810 	msr	PRIMASK, r1
20000104:	bd30      	pop	{r4, r5, pc}
20000106:	46c0      	nop			; (mov r8, r8)

20000108 <mutex_try_enter>:
20000108:	0003      	movs	r3, r0
2000010a:	6800      	ldr	r0, [r0, #0]
2000010c:	f3ef 8c10 	mrs	ip, PRIMASK
20000110:	b672      	cpsid	i
20000112:	6802      	ldr	r2, [r0, #0]
20000114:	2a00      	cmp	r2, #0
20000116:	d0fc      	beq.n	20000112 <mutex_try_enter+0xa>
20000118:	f3bf 8f5f 	dmb	sy
2000011c:	2204      	movs	r2, #4
2000011e:	569a      	ldrsb	r2, [r3, r2]
20000120:	2a00      	cmp	r2, #0
20000122:	db0b      	blt.n	2000013c <mutex_try_enter+0x34>
20000124:	2900      	cmp	r1, #0
20000126:	d00f      	beq.n	20000148 <mutex_try_enter+0x40>
20000128:	2000      	movs	r0, #0
2000012a:	600a      	str	r2, [r1, #0]
2000012c:	681b      	ldr	r3, [r3, #0]
2000012e:	f3bf 8f5f 	dmb	sy
20000132:	2200      	movs	r2, #0
20000134:	601a      	str	r2, [r3, #0]
20000136:	f38c 8810 	msr	PRIMASK, ip
2000013a:	4770      	bx	lr
2000013c:	22d0      	movs	r2, #208	; 0xd0
2000013e:	0612      	lsls	r2, r2, #24
20000140:	6812      	ldr	r2, [r2, #0]
20000142:	2001      	movs	r0, #1
20000144:	711a      	strb	r2, [r3, #4]
20000146:	e7f1      	b.n	2000012c <mutex_try_enter+0x24>
20000148:	2000      	movs	r0, #0
2000014a:	e7ef      	b.n	2000012c <mutex_try_enter+0x24>

2000014c <mutex_enter_timeout_ms>:
2000014c:	b5f0      	push	{r4, r5, r6, r7, lr}
2000014e:	46c6      	mov	lr, r8
20000150:	b500      	push	{lr}
20000152:	b082      	sub	sp, #8
20000154:	000c      	movs	r4, r1
20000156:	0007      	movs	r7, r0
20000158:	f000 f8fe 	bl	20000358 <__time_us_64_veneer>
2000015c:	22fa      	movs	r2, #250	; 0xfa
2000015e:	2300      	movs	r3, #0
20000160:	9000      	str	r0, [sp, #0]
20000162:	9101      	str	r1, [sp, #4]
20000164:	0020      	movs	r0, r4
20000166:	0092      	lsls	r2, r2, #2
20000168:	2100      	movs	r1, #0
2000016a:	f000 f8fd 	bl	20000368 <____wrap___aeabi_lmul_veneer>
2000016e:	9a00      	ldr	r2, [sp, #0]
20000170:	9b01      	ldr	r3, [sp, #4]
20000172:	0014      	movs	r4, r2
20000174:	001d      	movs	r5, r3
20000176:	1824      	adds	r4, r4, r0
20000178:	414d      	adcs	r5, r1
2000017a:	42ab      	cmp	r3, r5
2000017c:	d82f      	bhi.n	200001de <mutex_enter_timeout_ms+0x92>
2000017e:	d02b      	beq.n	200001d8 <mutex_enter_timeout_ms+0x8c>
20000180:	23d0      	movs	r3, #208	; 0xd0
20000182:	061b      	lsls	r3, r3, #24
20000184:	681b      	ldr	r3, [r3, #0]
20000186:	2600      	movs	r6, #0
20000188:	4698      	mov	r8, r3
2000018a:	e00b      	b.n	200001a4 <mutex_enter_timeout_ms+0x58>
2000018c:	683b      	ldr	r3, [r7, #0]
2000018e:	f3bf 8f5f 	dmb	sy
20000192:	601e      	str	r6, [r3, #0]
20000194:	f381 8810 	msr	PRIMASK, r1
20000198:	0020      	movs	r0, r4
2000019a:	0029      	movs	r1, r5
2000019c:	f000 f8ec 	bl	20000378 <__best_effort_wfe_or_timeout_veneer>
200001a0:	2800      	cmp	r0, #0
200001a2:	d120      	bne.n	200001e6 <mutex_enter_timeout_ms+0x9a>
200001a4:	683a      	ldr	r2, [r7, #0]
200001a6:	f3ef 8110 	mrs	r1, PRIMASK
200001aa:	b672      	cpsid	i
200001ac:	6813      	ldr	r3, [r2, #0]
200001ae:	2b00      	cmp	r3, #0
200001b0:	d0fc      	beq.n	200001ac <mutex_enter_timeout_ms+0x60>
200001b2:	f3bf 8f5f 	dmb	sy
200001b6:	793b      	ldrb	r3, [r7, #4]
200001b8:	2b7f      	cmp	r3, #127	; 0x7f
200001ba:	d9e7      	bls.n	2000018c <mutex_enter_timeout_ms+0x40>
200001bc:	4643      	mov	r3, r8
200001be:	713b      	strb	r3, [r7, #4]
200001c0:	683b      	ldr	r3, [r7, #0]
200001c2:	f3bf 8f5f 	dmb	sy
200001c6:	2200      	movs	r2, #0
200001c8:	601a      	str	r2, [r3, #0]
200001ca:	f381 8810 	msr	PRIMASK, r1
200001ce:	2001      	movs	r0, #1
200001d0:	b002      	add	sp, #8
200001d2:	bc80      	pop	{r7}
200001d4:	46b8      	mov	r8, r7
200001d6:	bdf0      	pop	{r4, r5, r6, r7, pc}
200001d8:	9b00      	ldr	r3, [sp, #0]
200001da:	42a3      	cmp	r3, r4
200001dc:	d9d0      	bls.n	20000180 <mutex_enter_timeout_ms+0x34>
200001de:	2401      	movs	r4, #1
200001e0:	4264      	negs	r4, r4
200001e2:	17e5      	asrs	r5, r4, #31
200001e4:	e7cc      	b.n	20000180 <mutex_enter_timeout_ms+0x34>
200001e6:	2000      	movs	r0, #0
200001e8:	e7f2      	b.n	200001d0 <mutex_enter_timeout_ms+0x84>
200001ea:	46c0      	nop			; (mov r8, r8)

200001ec <mutex_exit>:
200001ec:	6802      	ldr	r2, [r0, #0]
200001ee:	f3ef 8110 	mrs	r1, PRIMASK
200001f2:	b672      	cpsid	i
200001f4:	6813      	ldr	r3, [r2, #0]
200001f6:	2b00      	cmp	r3, #0
200001f8:	d0fc      	beq.n	200001f4 <mutex_exit+0x8>
200001fa:	f3bf 8f5f 	dmb	sy
200001fe:	23ff      	movs	r3, #255	; 0xff
20000200:	7103      	strb	r3, [r0, #4]
20000202:	6803      	ldr	r3, [r0, #0]
20000204:	f3bf 8f5f 	dmb	sy
20000208:	2200      	movs	r2, #0
2000020a:	601a      	str	r2, [r3, #0]
2000020c:	f381 8810 	msr	PRIMASK, r1
20000210:	bf40      	sev
20000212:	4770      	bx	lr

20000214 <flash_init_boot2_copyout>:
20000214:	4808      	ldr	r0, [pc, #32]	; (20000238 <flash_init_boot2_copyout+0x24>)
20000216:	b510      	push	{r4, lr}
20000218:	7803      	ldrb	r3, [r0, #0]
2000021a:	2b00      	cmp	r3, #0
2000021c:	d10a      	bne.n	20000234 <flash_init_boot2_copyout+0x20>
2000021e:	2380      	movs	r3, #128	; 0x80
20000220:	4906      	ldr	r1, [pc, #24]	; (2000023c <flash_init_boot2_copyout+0x28>)
20000222:	4a07      	ldr	r2, [pc, #28]	; (20000240 <flash_init_boot2_copyout+0x2c>)
20000224:	055b      	lsls	r3, r3, #21
20000226:	681c      	ldr	r4, [r3, #0]
20000228:	50cc      	str	r4, [r1, r3]
2000022a:	3304      	adds	r3, #4
2000022c:	4293      	cmp	r3, r2
2000022e:	d1fa      	bne.n	20000226 <flash_init_boot2_copyout+0x12>
20000230:	2301      	movs	r3, #1
20000232:	7003      	strb	r3, [r0, #0]
20000234:	bd10      	pop	{r4, pc}
20000236:	46c0      	nop			; (mov r8, r8)
20000238:	20002c30 	.word	0x20002c30
2000023c:	10002624 	.word	0x10002624
20000240:	10000100 	.word	0x10000100

20000244 <flash_enable_xip_via_boot2>:
20000244:	b510      	push	{r4, lr}
20000246:	4b02      	ldr	r3, [pc, #8]	; (20000250 <flash_enable_xip_via_boot2+0xc>)
20000248:	3301      	adds	r3, #1
2000024a:	4798      	blx	r3
2000024c:	bd10      	pop	{r4, pc}
2000024e:	46c0      	nop			; (mov r8, r8)
20000250:	20002624 	.word	0x20002624

20000254 <flash_cs_force.constprop.0>:
20000254:	4b03      	ldr	r3, [pc, #12]	; (20000264 <flash_cs_force.constprop.0+0x10>)
20000256:	681a      	ldr	r2, [r3, #0]
20000258:	23c0      	movs	r3, #192	; 0xc0
2000025a:	009b      	lsls	r3, r3, #2
2000025c:	4393      	bics	r3, r2
2000025e:	4a02      	ldr	r2, [pc, #8]	; (20000268 <flash_cs_force.constprop.0+0x14>)
20000260:	6013      	str	r3, [r2, #0]
20000262:	4770      	bx	lr
20000264:	4001800c 	.word	0x4001800c
20000268:	4001900c 	.word	0x4001900c

2000026c <flash_cs_force.constprop.1>:
2000026c:	4b05      	ldr	r3, [pc, #20]	; (20000284 <flash_cs_force.constprop.1+0x18>)
2000026e:	681a      	ldr	r2, [r3, #0]
20000270:	2380      	movs	r3, #128	; 0x80
20000272:	009b      	lsls	r3, r3, #2
20000274:	4053      	eors	r3, r2
20000276:	22c0      	movs	r2, #192	; 0xc0
20000278:	0092      	lsls	r2, r2, #2
2000027a:	4013      	ands	r3, r2
2000027c:	4a02      	ldr	r2, [pc, #8]	; (20000288 <flash_cs_force.constprop.1+0x1c>)
2000027e:	6013      	str	r3, [r2, #0]
20000280:	4770      	bx	lr
20000282:	46c0      	nop			; (mov r8, r8)
20000284:	4001800c 	.word	0x4001800c
20000288:	4001900c 	.word	0x4001900c

2000028c <flash_do_cmd>:
2000028c:	2314      	movs	r3, #20
2000028e:	b5f0      	push	{r4, r5, r6, r7, lr}
20000290:	46d6      	mov	lr, sl
20000292:	464f      	mov	r7, r9
20000294:	4646      	mov	r6, r8
20000296:	469a      	mov	sl, r3
20000298:	4681      	mov	r9, r0
2000029a:	8818      	ldrh	r0, [r3, #0]
2000029c:	3304      	adds	r3, #4
2000029e:	b5c0      	push	{r6, r7, lr}
200002a0:	4698      	mov	r8, r3
200002a2:	000e      	movs	r6, r1
200002a4:	881b      	ldrh	r3, [r3, #0]
200002a6:	4927      	ldr	r1, [pc, #156]	; (20000344 <flash_do_cmd+0xb8>)
200002a8:	0014      	movs	r4, r2
200002aa:	4798      	blx	r3
200002ac:	4653      	mov	r3, sl
200002ae:	0007      	movs	r7, r0
200002b0:	8818      	ldrh	r0, [r3, #0]
200002b2:	4643      	mov	r3, r8
200002b4:	4924      	ldr	r1, [pc, #144]	; (20000348 <flash_do_cmd+0xbc>)
200002b6:	881b      	ldrh	r3, [r3, #0]
200002b8:	4798      	blx	r3
200002ba:	4653      	mov	r3, sl
200002bc:	0005      	movs	r5, r0
200002be:	8818      	ldrh	r0, [r3, #0]
200002c0:	4643      	mov	r3, r8
200002c2:	4922      	ldr	r1, [pc, #136]	; (2000034c <flash_do_cmd+0xc0>)
200002c4:	881b      	ldrh	r3, [r3, #0]
200002c6:	4798      	blx	r3
200002c8:	4680      	mov	r8, r0
200002ca:	f7ff ffa3 	bl	20000214 <flash_init_boot2_copyout>
200002ce:	47b8      	blx	r7
200002d0:	47a8      	blx	r5
200002d2:	f7ff ffcb 	bl	2000026c <flash_cs_force.constprop.1>
200002d6:	2c00      	cmp	r4, #0
200002d8:	d01b      	beq.n	20000312 <flash_do_cmd+0x86>
200002da:	21c0      	movs	r1, #192	; 0xc0
200002dc:	0022      	movs	r2, r4
200002de:	2708      	movs	r7, #8
200002e0:	2002      	movs	r0, #2
200002e2:	0549      	lsls	r1, r1, #21
200002e4:	003d      	movs	r5, r7
200002e6:	6a8b      	ldr	r3, [r1, #40]	; 0x28
200002e8:	401d      	ands	r5, r3
200002ea:	4218      	tst	r0, r3
200002ec:	d00b      	beq.n	20000306 <flash_do_cmd+0x7a>
200002ee:	2c00      	cmp	r4, #0
200002f0:	d009      	beq.n	20000306 <flash_do_cmd+0x7a>
200002f2:	1b13      	subs	r3, r2, r4
200002f4:	2b0d      	cmp	r3, #13
200002f6:	d81f      	bhi.n	20000338 <flash_do_cmd+0xac>
200002f8:	464b      	mov	r3, r9
200002fa:	781b      	ldrb	r3, [r3, #0]
200002fc:	3c01      	subs	r4, #1
200002fe:	660b      	str	r3, [r1, #96]	; 0x60
20000300:	2301      	movs	r3, #1
20000302:	469c      	mov	ip, r3
20000304:	44e1      	add	r9, ip
20000306:	0023      	movs	r3, r4
20000308:	2d00      	cmp	r5, #0
2000030a:	d10c      	bne.n	20000326 <flash_do_cmd+0x9a>
2000030c:	4313      	orrs	r3, r2
2000030e:	2b00      	cmp	r3, #0
20000310:	d1e8      	bne.n	200002e4 <flash_do_cmd+0x58>
20000312:	f7ff ff9f 	bl	20000254 <flash_cs_force.constprop.0>
20000316:	47c0      	blx	r8
20000318:	f7ff ff94 	bl	20000244 <flash_enable_xip_via_boot2>
2000031c:	bce0      	pop	{r5, r6, r7}
2000031e:	46ba      	mov	sl, r7
20000320:	46b1      	mov	r9, r6
20000322:	46a8      	mov	r8, r5
20000324:	bdf0      	pop	{r4, r5, r6, r7, pc}
20000326:	2a00      	cmp	r2, #0
20000328:	d0f1      	beq.n	2000030e <flash_do_cmd+0x82>
2000032a:	6e0b      	ldr	r3, [r1, #96]	; 0x60
2000032c:	3a01      	subs	r2, #1
2000032e:	7033      	strb	r3, [r6, #0]
20000330:	0013      	movs	r3, r2
20000332:	3601      	adds	r6, #1
20000334:	4323      	orrs	r3, r4
20000336:	e7ea      	b.n	2000030e <flash_do_cmd+0x82>
20000338:	2d00      	cmp	r5, #0
2000033a:	d0d3      	beq.n	200002e4 <flash_do_cmd+0x58>
2000033c:	2a00      	cmp	r2, #0
2000033e:	d0d1      	beq.n	200002e4 <flash_do_cmd+0x58>
20000340:	e7f3      	b.n	2000032a <flash_do_cmd+0x9e>
20000342:	46c0      	nop			; (mov r8, r8)
20000344:	00004649 	.word	0x00004649
20000348:	00005845 	.word	0x00005845
2000034c:	00004346 	.word	0x00004346

20000350 <__aeabi_idiv0>:
20000350:	4770      	bx	lr
20000352:	46c0      	nop			; (mov r8, r8)
20000354:	0000      	movs	r0, r0
	...

20000358 <__time_us_64_veneer>:
20000358:	b401      	push	{r0}
2000035a:	4802      	ldr	r0, [pc, #8]	; (20000364 <__time_us_64_veneer+0xc>)
2000035c:	4684      	mov	ip, r0
2000035e:	bc01      	pop	{r0}
20000360:	4760      	bx	ip
20000362:	bf00      	nop
20000364:	10001acd 	.word	0x10001acd

20000368 <____wrap___aeabi_lmul_veneer>:
20000368:	b401      	push	{r0}
2000036a:	4802      	ldr	r0, [pc, #8]	; (20000374 <____wrap___aeabi_lmul_veneer+0xc>)
2000036c:	4684      	mov	ip, r0
2000036e:	bc01      	pop	{r0}
20000370:	4760      	bx	ip
20000372:	bf00      	nop
20000374:	100048c5 	.word	0x100048c5

20000378 <__best_effort_wfe_or_timeout_veneer>:
20000378:	b401      	push	{r0}
2000037a:	4802      	ldr	r0, [pc, #8]	; (20000384 <__best_effort_wfe_or_timeout_veneer+0xc>)
2000037c:	4684      	mov	ip, r0
2000037e:	bc01      	pop	{r0}
20000380:	4760      	bx	ip
20000382:	bf00      	nop
20000384:	10001929 	.word	0x10001929

20000388 <default_angle_value>:
20000388:	0000005a                                Z...

2000038c <num_array>:
2000038c:	00000001 00000001 00000001 00000001     ................
2000039c:	00000001 00000001 00000001 00000001     ................
	...
200003c4:	00000001 00000000 00000000 00000000     ................
	...
200003e0:	00000001 00000001 00000001 00000000     ................
200003f0:	00000001 00000001 00000000 00000001     ................
	...
2000041c:	00000001 00000000 00000000 00000000     ................
2000042c:	00000000 00000001 00000001 00000000     ................
	...
20000454:	00000001 00000000 00000000 00000001     ................
	...
2000046c:	00000001 00000000 00000000 00000000     ................
	...
20000490:	00000001 00000000 00000001 00000001     ................
200004a0:	00000000 00000001 00000000 00000000     ................
	...
200004cc:	00000001 00000001 00000000 00000000     ................
200004dc:	00000001 00000000 00000000 00000000     ................
	...
20000504:	00000001 00000000 00000000 00000000     ................
20000514:	00000001 00000000 00000000 00000000     ................
	...
20000530:	00000001 00000001 00000000 00000000     ................
20000540:	00000001 00000001 00000000 00000001     ................
	...
20000584:	00000001 00000000 00000000 00000000     ................
	...
200005b0:	00000001 00000001 00000000 00000001     ................
200005c0:	00000001 00000001 00000000 00000001     ................
200005d0:	00000001 00000000 00000001 00000000     ................
	...
200005f4:	00000001 00000001 00000001 00000000     ................
20000604:	00000001 00000001 00000000 00000001     ................
20000614:	00000001 00000001 00000000 00000001     ................
20000624:	00000001 00000000 00000001 00000001     ................
20000634:	00000001 00000000 00000001 00000001     ................
	...
2000064c:	00000001 00000000 00000000 00000000     ................
2000065c:	00000000 00000001 00000001 00000001     ................
2000066c:	00000001 00000000 00000001 00000001     ................
	...
20000684:	00000001 00000000 00000000 00000001     ................
	...
2000069c:	00000001 00000001 00000001 00000000     ................
200006ac:	00000001 00000001 00000000 00000000     ................
200006bc:	00000000 00000001 00000000 00000001     ................
200006cc:	00000001 00000000 00000001 00000001     ................
200006dc:	00000001 00000000 00000001 00000001     ................
	...
200006fc:	00000001 00000001 00000000 00000000     ................
2000070c:	00000001 00000001 00000001 00000000     ................
2000071c:	00000001 00000001 00000000 00000000     ................
	...
20000734:	00000001 00000000 00000000 00000000     ................
20000744:	00000001 00000001 00000001 00000000     ................
20000754:	00000001 00000001 00000000 00000001     ................
20000764:	00000001 00000000 00000000 00000001     ................
20000774:	00000001 00000000 00000001 00000001     ................
20000784:	00000001 00000000 00000001 00000001     ................
	...
200007b4:	00000001 00000001 00000001 00000000     ................
200007c4:	00000001 00000001 00000000 00000000     ................
	...
200007e0:	00000001 00000001 00000000 00000000     ................
200007f0:	00000001 00000000 00000000 00000000     ................
20000800:	00000000 00000001 00000001 00000000     ................
	...
20000828:	00000001 00000000 00000000 00000000     ................
20000838:	00000000 00000001 00000001 00000001     ................
20000848:	00000001 00000000 00000001 00000001     ................
	...
20000860:	00000001 00000000 00000000 00000000     ................
20000870:	00000000 00000001 00000000 00000001     ................
	...
20000890:	00000001 00000000 00000001 00000000     ................
	...
200008ac:	00000001 00000000 00000001 00000000     ................
200008bc:	00000000 00000001 00000000 00000000     ................
200008cc:	00000000 00000001 00000000 00000000     ................
	...
200008e4:	00000001 00000000 00000000 00000001     ................
200008f4:	00000000 00000001 00000001 00000000     ................
20000904:	00000000 00000001 00000000 00000000     ................
	...
2000091c:	00000001 00000000 00000000 00000000     ................
2000092c:	00000001 00000001 00000000 00000000     ................
2000093c:	00000000 00000001 00000000 00000000     ................
	...
20000954:	00000001 00000000 00000000 00000000     ................
20000964:	00000001 00000000 00000000 00000000     ................
20000974:	00000000 00000001 00000000 00000000     ................
	...
2000098c:	00000001 00000001 00000001 00000000     ................
2000099c:	00000000 00000001 00000001 00000000     ................
200009ac:	00000000 00000001 00000000 00000000     ................
	...
200009c4:	00000001 00000000 00000000 00000000     ................
	...
200009e8:	00000001 00000000 00000000 00000000     ................
200009f8:	00000000 00000001 00000000 00000000     ................
	...
20000a10:	00000001 00000001 00000000 00000000     ................
20000a20:	00000001 00000000 00000000 00000001     ................
	...
20000a38:	00000001 00000000 00000000 00000000     ................
	...
20000a58:	00000001 00000000 00000000 00000001     ................
	...
20000a70:	00000001 00000001 00000001 00000000     ................
20000a80:	00000001 00000001 00000000 00000000     ................
20000a90:	00000001 00000000 00000000 00000001     ................
	...
20000aac:	00000001 00000000 00000000 00000000     ................
20000abc:	00000000 00000001 00000000 00000001     ................
	...
20000ad4:	00000001 00000000 00000000 00000000     ................
20000ae4:	00000001 00000000 00000000 00000001     ................
	...
20000b00:	00000001 00000000 00000000 00000001     ................
	...
20000b20:	00000001 00000000 00000001 00000001     ................
	...
20000b38:	00000001 00000000 00000000 00000001     ................
	...
20000b5c:	00000001 00000001 00000000 00000000     ................
20000b6c:	00000000 00000001 00000000 00000000     ................
20000b7c:	00000001 00000000 00000000 00000000     ................
	...
20000b94:	00000001 00000000 00000000 00000000     ................
20000ba4:	00000000 00000001 00000000 00000000     ................
20000bb4:	00000001 00000000 00000000 00000001     ................
20000bc4:	00000001 00000000 00000000 00000001     ................
20000bd4:	00000001 00000000 00000000 00000001     ................
	...
20000bec:	00000001 00000000 00000000 00000000     ................
	...
20000c18:	00000001 00000000 00000000 00000001     ................
	...
20000c40:	00000001 00000001 00000000 00000000     ................
20000c50:	00000000 00000001 00000000 00000001     ................
20000c60:	00000001 00000000 00000001 00000000     ................
	...
20000c8c:	00000001 00000000 00000001 00000001     ................
20000c9c:	00000000 00000001 00000001 00000001     ................
20000cac:	00000000 00000001 00000001 00000000     ................
	...
20000cc4:	00000001 00000000 00000001 00000001     ................
	...
20000cdc:	00000001 00000000 00000000 00000000     ................
20000cec:	00000000 00000001 00000000 00000000     ................
20000cfc:	00000001 00000000 00000001 00000001     ................
	...
20000d14:	00000001 00000000 00000000 00000001     ................
	...
20000d34:	00000001 00000000 00000001 00000001     ................
	...
20000d50:	00000001 00000000 00000001 00000001     ................
	...
20000d6c:	00000001 00000000 00000001 00000001     ................
	...
20000d8c:	00000001 00000001 00000000 00000000     ................
	...
20000da4:	00000001 00000000 00000001 00000001     ................
	...
20000dc4:	00000001 00000000 00000000 00000000     ................
	...
20000ddc:	00000001 00000000 00000001 00000001     ................
20000dec:	00000000 00000001 00000001 00000000     ................
20000dfc:	00000000 00000001 00000001 00000000     ................
	...
20000e14:	00000001 00000000 00000001 00000001     ................
	...
20000e4c:	00000001 00000000 00000001 00000001     ................
	...
20000e70:	00000001 00000001 00000000 00000000     ................
	...
20000e88:	00000001 00000001 00000000 00000000     ................
20000e98:	00000001 00000000 00000000 00000000     ................
	...
20000ec0:	00000001 00000001 00000000 00000000     ................
20000ed0:	00000001 00000001 00000001 00000000     ................
20000ee0:	00000001 00000001 00000000 00000000     ................
	...
20000ef8:	00000001 00000001 00000000 00000000     ................
20000f08:	00000000 00000001 00000000 00000000     ................
	...
20000f20:	00000001 00000000 00000000 00000000     ................
20000f30:	00000001 00000001 00000000 00000000     ................
20000f40:	00000000 00000001 00000000 00000000     ................
20000f50:	00000001 00000000 00000000 00000000     ................
	...
20000f68:	00000001 00000001 00000000 00000000     ................
	...
20000f80:	00000001 00000000 00000001 00000001     ................
	...
20000fa0:	00000001 00000001 00000000 00000000     ................
	...
20000fbc:	00000001 00000001 00000000 00000000     ................
	...
20000fd8:	00000001 00000001 00000000 00000000     ................
	...
20000ff4:	00000001 00000000 00000000 00000000     ................
	...
20001010:	00000001 00000001 00000000 00000000     ................
20001020:	00000001 00000001 00000000 00000000     ................
20001030:	00000001 00000001 00000000 00000000     ................
	...
20001048:	00000001 00000001 00000000 00000000     ................
	...
20001080:	00000001 00000001 00000000 00000000     ................
	...
200010a0:	00000001 00000001 00000000 00000000     ................
	...
200010b8:	00000001 00000000 00000000 00000000     ................
200010c8:	00000001 00000000 00000000 00000000     ................
	...
200010f0:	00000001 00000000 00000000 00000000     ................
20001100:	00000001 00000001 00000001 00000000     ................
20001110:	00000001 00000001 00000000 00000000     ................
	...
20001128:	00000001 00000000 00000000 00000000     ................
20001138:	00000000 00000001 00000000 00000000     ................
	...
20001150:	00000001 00000000 00000000 00000000     ................
20001160:	00000001 00000000 00000000 00000000     ................
20001170:	00000000 00000001 00000000 00000000     ................
20001180:	00000001 00000000 00000000 00000000     ................
	...
20001198:	00000001 00000000 00000000 00000000     ................
	...
200011b0:	00000001 00000000 00000001 00000001     ................
	...
200011d0:	00000001 00000000 00000000 00000000     ................
	...
200011ec:	00000001 00000001 00000000 00000000     ................
	...
20001208:	00000001 00000000 00000000 00000000     ................
	...
20001224:	00000001 00000000 00000000 00000000     ................
	...
20001240:	00000001 00000000 00000000 00000000     ................
20001250:	00000001 00000001 00000000 00000000     ................
20001260:	00000001 00000001 00000000 00000000     ................
	...
20001278:	00000001 00000000 00000000 00000000     ................
	...
200012b0:	00000001 00000000 00000000 00000000     ................
	...
200012d0:	00000001 00000001 00000000 00000001     ................
200012e0:	00000001 00000000 00000000 00000001     ................
200012f0:	00000001 00000000 00000001 00000000     ................
	...
20001314:	00000001 00000001 00000000 00000000     ................
20001324:	00000001 00000001 00000000 00000001     ................
20001334:	00000001 00000001 00000000 00000001     ................
20001344:	00000001 00000000 00000001 00000001     ................
	...
2000135c:	00000001 00000001 00000000 00000000     ................
2000136c:	00000001 00000000 00000000 00000000     ................
2000137c:	00000000 00000001 00000001 00000001     ................
	...
20001394:	00000001 00000001 00000000 00000000     ................
200013a4:	00000001 00000000 00000000 00000001     ................
	...
200013bc:	00000001 00000001 00000000 00000000     ................
200013cc:	00000001 00000001 00000000 00000000     ................
200013dc:	00000000 00000001 00000000 00000001     ................
200013ec:	00000001 00000000 00000001 00000001     ................
	...
20001404:	00000001 00000001 00000000 00000000     ................
	...
2000141c:	00000001 00000001 00000000 00000000     ................
2000142c:	00000001 00000001 00000000 00000000     ................
2000143c:	00000001 00000001 00000000 00000000     ................
	...
20001454:	00000001 00000000 00000000 00000000     ................
20001464:	00000001 00000001 00000000 00000000     ................
20001474:	00000001 00000001 00000000 00000001     ................
20001484:	00000001 00000000 00000000 00000001     ................
20001494:	00000001 00000000 00000001 00000001     ................
	...
200014ac:	00000001 00000001 00000000 00000000     ................
	...
200014d4:	00000001 00000001 00000000 00000000     ................
200014e4:	00000001 00000001 00000000 00000000     ................
	...
20001500:	00000001 00000001 00000000 00000000     ................
	...
20001528:	00000001 00000000 00000000 00000000     ................
	...
20001560:	00000001 00000001 00000001 00000000     ................
20001570:	00000001 00000001 00000000 00000000     ................
	...
2000159c:	00000001 00000000 00000000 00000000     ................
200015ac:	00000000 00000001 00000000 00000000     ................
	...
200015d4:	00000001 00000000 00000000 00000001     ................
	...
20001610:	00000001 00000000 00000001 00000001     ................
	...
2000164c:	00000001 00000001 00000000 00000000     ................
	...
20001684:	00000001 00000000 00000000 00000000     ................
	...
200016b0:	00000001 00000001 00000000 00000000     ................
200016c0:	00000001 00000001 00000000 00000000     ................
	...
20001730:	00000001 00000001 00000000 00000000     ................
	...
2000174c:	00000001 00000001 00000000 00000001     ................
	...
20001784:	00000001 00000001 00000000 00000001     ................
20001794:	00000001 00000001 00000000 00000001     ................
200017a4:	00000001 00000000 00000000 00000000     ................
	...
200017bc:	00000001 00000001 00000000 00000000     ................
200017cc:	00000001 00000000 00000000 00000000     ................
200017dc:	00000000 00000001 00000000 00000000     ................
	...
200017f4:	00000001 00000001 00000000 00000000     ................
20001804:	00000001 00000000 00000000 00000001     ................
	...
2000182c:	00000001 00000001 00000000 00000000     ................
2000183c:	00000000 00000001 00000000 00000001     ................
2000184c:	00000001 00000000 00000000 00000000     ................
	...
20001864:	00000001 00000001 00000000 00000000     ................
	...
2000187c:	00000001 00000001 00000000 00000000     ................
	...
2000189c:	00000001 00000001 00000000 00000000     ................
	...
200018b4:	00000001 00000000 00000000 00000000     ................
	...
200018d4:	00000001 00000001 00000000 00000001     ................
200018e4:	00000001 00000000 00000000 00000001     ................
200018f4:	00000001 00000000 00000000 00000000     ................
	...
2000190c:	00000001 00000001 00000000 00000000     ................
	...
20001944:	00000001 00000001 00000000 00000000     ................
	...
20001960:	00000001 00000001 00000000              ............

2000196c <striped_spin_lock_num>:
2000196c:	00000010                                ....

20001970 <irq_handler_chain_slots>:
20001970:	00000000 	.word	0x00000000
20001974:	00010000 	.word	0x00010000
	...
20001980:	00020000 	.word	0x00020000
	...
2000198c:	00030000 	.word	0x00030000
	...
20001998:	00ff0000 	.word	0x00ff0000
2000199c:	00000000 	.word	0x00000000

200019a0 <irq_handler_chain_first_slot>:
200019a0:	b500      	push	{lr}
200019a2:	6848      	ldr	r0, [r1, #4]
200019a4:	3101      	adds	r1, #1
200019a6:	468e      	mov	lr, r1
200019a8:	4700      	bx	r0

200019aa <irq_handler_chain_remove_tail>:
200019aa:	4670      	mov	r0, lr
200019ac:	3809      	subs	r0, #9
200019ae:	4901      	ldr	r1, [pc, #4]	; (200019b4 <irq_handler_chain_remove_tail+0xa>)
200019b0:	4788      	blx	r1
200019b2:	bd00      	pop	{pc}
200019b4:	100011c9 	.word	0x100011c9

200019b8 <default_alarm_pool>:
200019b8:	200019d0 00000000 20001e98 2000275c     ... ....... \'. 
	...

200019d0 <default_alarm_pool_heap>:
200019d0:	2000276c 00000000 00000000 00000010     l'. ............

200019e0 <aeabi_bits_funcs>:
200019e0:	00003350 	.word	0x00003350
200019e4:	0000334c 	.word	0x0000334c
200019e8:	00003354 	.word	0x00003354
200019ec:	00003352 	.word	0x00003352

200019f0 <aeabi_bits_funcs_end>:
200019f0:	0000534d 	.word	0x0000534d
200019f4:	0000434d 	.word	0x0000434d
200019f8:	00003453 	.word	0x00003453
200019fc:	00003443 	.word	0x00003443

20001a00 <stdio_usb>:
20001a00:	10004d29 00000000 10004cc1 00000000     )M.......L......

20001a10 <ep_dir_string>:
20001a10:	10007cec 10007cf0                       .|...|..

20001a18 <_usbd_qdef>:
20001a18:	20002550 000c0010 ffe00000 0000001f     P%. ............
	...

20001a40 <_impure_ptr>:
20001a40:	20001a48 00000000                       H.. ....

20001a48 <impure_data>:
20001a48:	00000000 20001d34 20001d9c 20001e04     ....4.. ... ... 
	...
20001af0:	00000001 00000000 abcd330e e66d1234     .........3..4.m.
20001b00:	0005deec 0000000b 00000000 00000000     ................
	...

20001e70 <malloc_mutex>:
	...

20001e78 <print_mutex>:
	...

20001e80 <__mutex_array_end>:
20001e80:	10004989 	.word	0x10004989
20001e84:	10003bb5 	.word	0x10003bb5
20001e88:	100042d1 	.word	0x100042d1
20001e8c:	100048f9 	.word	0x100048f9

20001e90 <__frame_dummy_init_array_entry>:
20001e90:	10000339 1000737d                       9...}s..
